ARM GAS  /tmp/ccUoHWVf.s 			page 1


   1              		.cpu cortex-m3
   2              		.eabi_attribute 20, 1
   3              		.eabi_attribute 21, 1
   4              		.eabi_attribute 23, 3
   5              		.eabi_attribute 24, 1
   6              		.eabi_attribute 25, 1
   7              		.eabi_attribute 26, 1
   8              		.eabi_attribute 30, 1
   9              		.eabi_attribute 34, 1
  10              		.eabi_attribute 18, 4
  11              		.file	"camera.c"
  12              		.text
  13              	.Ltext0:
  14              		.cfi_sections	.debug_frame
  15              		.section	.text.arducam_write_register,"ax",%progbits
  16              		.align	1
  17              		.global	arducam_write_register
  18              		.arch armv7-m
  19              		.syntax unified
  20              		.thumb
  21              		.thumb_func
  22              		.fpu softvfp
  24              	arducam_write_register:
  25              	.LVL0:
  26              	.LFB68:
  27              		.file 1 "libs/camera/camera.c"
   1:libs/camera/camera.c **** #include "camera.h"
   2:libs/camera/camera.c **** #include "i2c_slave.h"
   3:libs/camera/camera.c **** 
   4:libs/camera/camera.c **** 
   5:libs/camera/camera.c **** uint8_t image_buffer[MAX_IMAGE_SIZE]={0};
   6:libs/camera/camera.c **** 
   7:libs/camera/camera.c **** #define JPEG_SOI 0xFFD8  // Start Of Image
   8:libs/camera/camera.c **** #define JPEG_EOI 0xFFD9  // End Of Image
   9:libs/camera/camera.c **** uint32_t jpeg_size = 0;
  10:libs/camera/camera.c **** 
  11:libs/camera/camera.c **** 
  12:libs/camera/camera.c **** uint32_t ssdv_packets_in_image = 0;
  13:libs/camera/camera.c **** uint32_t ssdv_start_addr = 0; 
  14:libs/camera/camera.c **** 
  15:libs/camera/camera.c **** /* USER CODE BEGIN PD */
  16:libs/camera/camera.c **** extern SPI_HandleTypeDef hspi1;
  17:libs/camera/camera.c **** char ssdv_type = SSDV_TYPE_NORMAL;
  18:libs/camera/camera.c **** char ssdv_call_sign[7] = "CALSIGN";
  19:libs/camera/camera.c **** uint8_t ssdv_image_id = 0;
  20:libs/camera/camera.c **** int8_t ssdv_quality = 4;
  21:libs/camera/camera.c **** 
  22:libs/camera/camera.c **** 
  23:libs/camera/camera.c **** void arducam_write_register(uint8_t reg, uint8_t value) {
  28              		.loc 1 23 57 view -0
  29              		.cfi_startproc
  30              		@ args = 0, pretend = 0, frame = 8
  31              		@ frame_needed = 0, uses_anonymous_args = 0
  32              		.loc 1 23 57 is_stmt 0 view .LVU1
  33 0000 10B5     		push	{r4, lr}
  34              	.LCFI0:
  35              		.cfi_def_cfa_offset 8
ARM GAS  /tmp/ccUoHWVf.s 			page 2


  36              		.cfi_offset 4, -8
  37              		.cfi_offset 14, -4
  38 0002 82B0     		sub	sp, sp, #8
  39              	.LCFI1:
  40              		.cfi_def_cfa_offset 16
  24:libs/camera/camera.c ****     uint8_t tx_buf[2] = {reg | 0x80, value};
  41              		.loc 1 24 5 is_stmt 1 view .LVU2
  42              		.loc 1 24 13 is_stmt 0 view .LVU3
  43 0004 60F07F00 		orn	r0, r0, #127
  44              	.LVL1:
  45              		.loc 1 24 13 view .LVU4
  46 0008 8DF80400 		strb	r0, [sp, #4]
  47 000c 8DF80510 		strb	r1, [sp, #5]
  25:libs/camera/camera.c ****     CS_LOW(); // Assert CS
  48              		.loc 1 25 5 is_stmt 1 view .LVU5
  49 0010 094C     		ldr	r4, .L3
  50 0012 0022     		movs	r2, #0
  51 0014 1021     		movs	r1, #16
  52              	.LVL2:
  53              		.loc 1 25 5 is_stmt 0 view .LVU6
  54 0016 2046     		mov	r0, r4
  55 0018 FFF7FEFF 		bl	HAL_GPIO_WritePin
  56              	.LVL3:
  26:libs/camera/camera.c ****     HAL_SPI_Transmit(&hspi1, tx_buf, 2, HAL_MAX_DELAY);
  57              		.loc 1 26 5 is_stmt 1 view .LVU7
  58 001c 4FF0FF33 		mov	r3, #-1
  59 0020 0222     		movs	r2, #2
  60 0022 01A9     		add	r1, sp, #4
  61 0024 0548     		ldr	r0, .L3+4
  62 0026 FFF7FEFF 		bl	HAL_SPI_Transmit
  63              	.LVL4:
  27:libs/camera/camera.c ****     CS_HIGH();
  64              		.loc 1 27 5 view .LVU8
  65 002a 0122     		movs	r2, #1
  66 002c 1021     		movs	r1, #16
  67 002e 2046     		mov	r0, r4
  68 0030 FFF7FEFF 		bl	HAL_GPIO_WritePin
  69              	.LVL5:
  28:libs/camera/camera.c **** }
  70              		.loc 1 28 1 is_stmt 0 view .LVU9
  71 0034 02B0     		add	sp, sp, #8
  72              	.LCFI2:
  73              		.cfi_def_cfa_offset 8
  74              		@ sp needed
  75 0036 10BD     		pop	{r4, pc}
  76              	.L4:
  77              		.align	2
  78              	.L3:
  79 0038 00080140 		.word	1073809408
  80 003c 00000000 		.word	hspi1
  81              		.cfi_endproc
  82              	.LFE68:
  84              		.section	.text.arducam_read_register,"ax",%progbits
  85              		.align	1
  86              		.global	arducam_read_register
  87              		.syntax unified
  88              		.thumb
ARM GAS  /tmp/ccUoHWVf.s 			page 3


  89              		.thumb_func
  90              		.fpu softvfp
  92              	arducam_read_register:
  93              	.LVL6:
  94              	.LFB69:
  29:libs/camera/camera.c **** 
  30:libs/camera/camera.c **** uint8_t arducam_read_register(uint8_t reg) {
  95              		.loc 1 30 44 is_stmt 1 view -0
  96              		.cfi_startproc
  97              		@ args = 0, pretend = 0, frame = 8
  98              		@ frame_needed = 0, uses_anonymous_args = 0
  99              		.loc 1 30 44 is_stmt 0 view .LVU11
 100 0000 10B5     		push	{r4, lr}
 101              	.LCFI3:
 102              		.cfi_def_cfa_offset 8
 103              		.cfi_offset 4, -8
 104              		.cfi_offset 14, -4
 105 0002 84B0     		sub	sp, sp, #16
 106              	.LCFI4:
 107              		.cfi_def_cfa_offset 24
  31:libs/camera/camera.c ****     uint8_t tx_buf[2] = {reg & 0x7F, 0x00}; // Second byte is dummy
 108              		.loc 1 31 5 is_stmt 1 view .LVU12
 109              		.loc 1 31 30 is_stmt 0 view .LVU13
 110 0004 00F07F00 		and	r0, r0, #127
 111              	.LVL7:
 112              		.loc 1 31 13 view .LVU14
 113 0008 8DF80C00 		strb	r0, [sp, #12]
 114 000c 0022     		movs	r2, #0
 115 000e 8DF80D20 		strb	r2, [sp, #13]
  32:libs/camera/camera.c ****     uint8_t rx_buf[2];
 116              		.loc 1 32 5 is_stmt 1 view .LVU15
  33:libs/camera/camera.c ****     CS_LOW(); // Assert CS
 117              		.loc 1 33 5 view .LVU16
 118 0012 0B4C     		ldr	r4, .L7
 119 0014 1021     		movs	r1, #16
 120 0016 2046     		mov	r0, r4
 121 0018 FFF7FEFF 		bl	HAL_GPIO_WritePin
 122              	.LVL8:
  34:libs/camera/camera.c ****     HAL_SPI_TransmitReceive(&hspi1, tx_buf, rx_buf, 2, HAL_MAX_DELAY);
 123              		.loc 1 34 5 view .LVU17
 124 001c 4FF0FF33 		mov	r3, #-1
 125 0020 0093     		str	r3, [sp]
 126 0022 0223     		movs	r3, #2
 127 0024 02AA     		add	r2, sp, #8
 128 0026 03A9     		add	r1, sp, #12
 129 0028 0648     		ldr	r0, .L7+4
 130 002a FFF7FEFF 		bl	HAL_SPI_TransmitReceive
 131              	.LVL9:
  35:libs/camera/camera.c ****     CS_HIGH(); // Assert CS
 132              		.loc 1 35 5 view .LVU18
 133 002e 0122     		movs	r2, #1
 134 0030 1021     		movs	r1, #16
 135 0032 2046     		mov	r0, r4
 136 0034 FFF7FEFF 		bl	HAL_GPIO_WritePin
 137              	.LVL10:
  36:libs/camera/camera.c **** 
  37:libs/camera/camera.c ****     return rx_buf[1]; // Received data
ARM GAS  /tmp/ccUoHWVf.s 			page 4


 138              		.loc 1 37 5 view .LVU19
  38:libs/camera/camera.c **** }
 139              		.loc 1 38 1 is_stmt 0 view .LVU20
 140 0038 9DF80900 		ldrb	r0, [sp, #9]	@ zero_extendqisi2
 141 003c 04B0     		add	sp, sp, #16
 142              	.LCFI5:
 143              		.cfi_def_cfa_offset 8
 144              		@ sp needed
 145 003e 10BD     		pop	{r4, pc}
 146              	.L8:
 147              		.align	2
 148              	.L7:
 149 0040 00080140 		.word	1073809408
 150 0044 00000000 		.word	hspi1
 151              		.cfi_endproc
 152              	.LFE69:
 154              		.section	.text.arducam_burst_read,"ax",%progbits
 155              		.align	1
 156              		.global	arducam_burst_read
 157              		.syntax unified
 158              		.thumb
 159              		.thumb_func
 160              		.fpu softvfp
 162              	arducam_burst_read:
 163              	.LVL11:
 164              	.LFB70:
  39:libs/camera/camera.c **** 
  40:libs/camera/camera.c **** 
  41:libs/camera/camera.c **** 
  42:libs/camera/camera.c **** // // Burst read from FIFO
  43:libs/camera/camera.c **** // uint32_t arducam_burst_read(uint8_t *buf, uint32_t max_len) {
  44:libs/camera/camera.c **** //     uint8_t burst_cmd = 0x3C; // Burst read register
  45:libs/camera/camera.c **** //     CS_LOW();
  46:libs/camera/camera.c **** //     HAL_SPI_Transmit(&hspi1, &burst_cmd, 1, HAL_MAX_DELAY);
  47:libs/camera/camera.c **** //     uint8_t dummy = 0x00;
  48:libs/camera/camera.c **** //     HAL_SPI_Transmit(&hspi1, &dummy, 1, HAL_MAX_DELAY); // First dummy byte
  49:libs/camera/camera.c **** 
  50:libs/camera/camera.c **** //     HAL_SPI_Receive(&hspi1, buf, max_len, HAL_MAX_DELAY);
  51:libs/camera/camera.c **** //     CS_HIGH();
  52:libs/camera/camera.c **** //     return max_len;
  53:libs/camera/camera.c **** // }
  54:libs/camera/camera.c **** 
  55:libs/camera/camera.c **** 
  56:libs/camera/camera.c **** // Safer burst read from FIFO
  57:libs/camera/camera.c **** uint32_t arducam_burst_read(uint8_t *buf, uint32_t max_len) {
 165              		.loc 1 57 61 is_stmt 1 view -0
 166              		.cfi_startproc
 167              		@ args = 0, pretend = 0, frame = 8
 168              		@ frame_needed = 0, uses_anonymous_args = 0
 169              		.loc 1 57 61 is_stmt 0 view .LVU22
 170 0000 F0B5     		push	{r4, r5, r6, r7, lr}
 171              	.LCFI6:
 172              		.cfi_def_cfa_offset 20
 173              		.cfi_offset 4, -20
 174              		.cfi_offset 5, -16
 175              		.cfi_offset 6, -12
 176              		.cfi_offset 7, -8
ARM GAS  /tmp/ccUoHWVf.s 			page 5


 177              		.cfi_offset 14, -4
 178 0002 85B0     		sub	sp, sp, #20
 179              	.LCFI7:
 180              		.cfi_def_cfa_offset 40
 181 0004 0646     		mov	r6, r0
 182 0006 0D46     		mov	r5, r1
  58:libs/camera/camera.c ****     uint8_t burst_cmd = 0x3C;
 183              		.loc 1 58 5 is_stmt 1 view .LVU23
 184              		.loc 1 58 13 is_stmt 0 view .LVU24
 185 0008 3C23     		movs	r3, #60
 186 000a 8DF80F30 		strb	r3, [sp, #15]
  59:libs/camera/camera.c ****     CS_LOW();
 187              		.loc 1 59 5 is_stmt 1 view .LVU25
 188 000e 0022     		movs	r2, #0
 189 0010 1021     		movs	r1, #16
 190              	.LVL12:
 191              		.loc 1 59 5 is_stmt 0 view .LVU26
 192 0012 1F48     		ldr	r0, .L16
 193              	.LVL13:
 194              		.loc 1 59 5 view .LVU27
 195 0014 FFF7FEFF 		bl	HAL_GPIO_WritePin
 196              	.LVL14:
  60:libs/camera/camera.c ****     HAL_SPI_Transmit(&hspi1, &burst_cmd, 1, HAL_MAX_DELAY);
 197              		.loc 1 60 5 is_stmt 1 view .LVU28
 198 0018 1E4F     		ldr	r7, .L16+4
 199 001a 4FF0FF33 		mov	r3, #-1
 200 001e 0122     		movs	r2, #1
 201 0020 0DF10F01 		add	r1, sp, #15
 202 0024 3846     		mov	r0, r7
 203 0026 FFF7FEFF 		bl	HAL_SPI_Transmit
 204              	.LVL15:
  61:libs/camera/camera.c **** 
  62:libs/camera/camera.c ****     uint8_t dummy = 0x00;
 205              		.loc 1 62 5 view .LVU29
 206              		.loc 1 62 13 is_stmt 0 view .LVU30
 207 002a 0024     		movs	r4, #0
 208 002c 8DF80E40 		strb	r4, [sp, #14]
  63:libs/camera/camera.c ****     HAL_SPI_Transmit(&hspi1, &dummy, 1, HAL_MAX_DELAY);
 209              		.loc 1 63 5 is_stmt 1 view .LVU31
 210 0030 4FF0FF33 		mov	r3, #-1
 211 0034 0122     		movs	r2, #1
 212 0036 0DF10E01 		add	r1, sp, #14
 213 003a 3846     		mov	r0, r7
 214 003c FFF7FEFF 		bl	HAL_SPI_Transmit
 215              	.LVL16:
  64:libs/camera/camera.c **** 
  65:libs/camera/camera.c ****     for (uint32_t i = 0; i < max_len; i++) {
 216              		.loc 1 65 5 view .LVU32
 217              	.LBB2:
 218              		.loc 1 65 10 view .LVU33
 219              		.loc 1 65 5 is_stmt 0 view .LVU34
 220 0040 03E0     		b	.L10
 221              	.LVL17:
 222              	.L11:
 223              	.LBB3:
  66:libs/camera/camera.c ****         uint8_t tx = 0x00;
  67:libs/camera/camera.c ****         uint8_t rx = 0x00;
ARM GAS  /tmp/ccUoHWVf.s 			page 6


  68:libs/camera/camera.c ****         if (HAL_SPI_TransmitReceive(&hspi1, &tx, &rx, 1, HAL_MAX_DELAY) != HAL_OK) {
  69:libs/camera/camera.c ****             CS_HIGH();
  70:libs/camera/camera.c ****             return i;
  71:libs/camera/camera.c ****         }
  72:libs/camera/camera.c ****         buf[i] = rx;
 224              		.loc 1 72 9 is_stmt 1 view .LVU35
 225              		.loc 1 72 16 is_stmt 0 view .LVU36
 226 0042 9DF80D30 		ldrb	r3, [sp, #13]	@ zero_extendqisi2
 227 0046 3355     		strb	r3, [r6, r4]
 228              	.LBE3:
  65:libs/camera/camera.c ****         uint8_t tx = 0x00;
 229              		.loc 1 65 39 is_stmt 1 view .LVU37
  65:libs/camera/camera.c ****         uint8_t tx = 0x00;
 230              		.loc 1 65 40 is_stmt 0 view .LVU38
 231 0048 0134     		adds	r4, r4, #1
 232              	.LVL18:
 233              	.L10:
  65:libs/camera/camera.c ****         uint8_t tx = 0x00;
 234              		.loc 1 65 26 is_stmt 1 discriminator 1 view .LVU39
  65:libs/camera/camera.c ****         uint8_t tx = 0x00;
 235              		.loc 1 65 5 is_stmt 0 discriminator 1 view .LVU40
 236 004a AC42     		cmp	r4, r5
 237 004c 16D2     		bcs	.L15
 238              	.LBB4:
  66:libs/camera/camera.c ****         uint8_t tx = 0x00;
 239              		.loc 1 66 9 is_stmt 1 view .LVU41
  66:libs/camera/camera.c ****         uint8_t tx = 0x00;
 240              		.loc 1 66 17 is_stmt 0 view .LVU42
 241 004e 0023     		movs	r3, #0
 242 0050 8DF80C30 		strb	r3, [sp, #12]
  67:libs/camera/camera.c ****         if (HAL_SPI_TransmitReceive(&hspi1, &tx, &rx, 1, HAL_MAX_DELAY) != HAL_OK) {
 243              		.loc 1 67 9 is_stmt 1 view .LVU43
  67:libs/camera/camera.c ****         if (HAL_SPI_TransmitReceive(&hspi1, &tx, &rx, 1, HAL_MAX_DELAY) != HAL_OK) {
 244              		.loc 1 67 17 is_stmt 0 view .LVU44
 245 0054 8DF80D30 		strb	r3, [sp, #13]
  68:libs/camera/camera.c ****             CS_HIGH();
 246              		.loc 1 68 9 is_stmt 1 view .LVU45
  68:libs/camera/camera.c ****             CS_HIGH();
 247              		.loc 1 68 13 is_stmt 0 view .LVU46
 248 0058 4FF0FF33 		mov	r3, #-1
 249 005c 0093     		str	r3, [sp]
 250 005e 0123     		movs	r3, #1
 251 0060 0DF10D02 		add	r2, sp, #13
 252 0064 03A9     		add	r1, sp, #12
 253 0066 0B48     		ldr	r0, .L16+4
 254 0068 FFF7FEFF 		bl	HAL_SPI_TransmitReceive
 255              	.LVL19:
  68:libs/camera/camera.c ****             CS_HIGH();
 256              		.loc 1 68 12 view .LVU47
 257 006c 0028     		cmp	r0, #0
 258 006e E8D0     		beq	.L11
  69:libs/camera/camera.c ****             return i;
 259              		.loc 1 69 13 is_stmt 1 view .LVU48
 260 0070 0122     		movs	r2, #1
 261 0072 1021     		movs	r1, #16
 262 0074 0648     		ldr	r0, .L16
 263 0076 FFF7FEFF 		bl	HAL_GPIO_WritePin
ARM GAS  /tmp/ccUoHWVf.s 			page 7


 264              	.LVL20:
  70:libs/camera/camera.c ****         }
 265              		.loc 1 70 13 view .LVU49
 266 007a 05E0     		b	.L9
 267              	.L15:
 268              	.LBE4:
 269              	.LBE2:
  73:libs/camera/camera.c ****     }
  74:libs/camera/camera.c ****     CS_HIGH();
 270              		.loc 1 74 5 view .LVU50
 271 007c 0122     		movs	r2, #1
 272 007e 1021     		movs	r1, #16
 273 0080 0348     		ldr	r0, .L16
 274 0082 FFF7FEFF 		bl	HAL_GPIO_WritePin
 275              	.LVL21:
  75:libs/camera/camera.c ****     return max_len;
 276              		.loc 1 75 5 view .LVU51
 277              		.loc 1 75 12 is_stmt 0 view .LVU52
 278 0086 2C46     		mov	r4, r5
 279              	.LVL22:
 280              	.L9:
  76:libs/camera/camera.c **** }
 281              		.loc 1 76 1 view .LVU53
 282 0088 2046     		mov	r0, r4
 283 008a 05B0     		add	sp, sp, #20
 284              	.LCFI8:
 285              		.cfi_def_cfa_offset 20
 286              		@ sp needed
 287 008c F0BD     		pop	{r4, r5, r6, r7, pc}
 288              	.LVL23:
 289              	.L17:
 290              		.loc 1 76 1 view .LVU54
 291 008e 00BF     		.align	2
 292              	.L16:
 293 0090 00080140 		.word	1073809408
 294 0094 00000000 		.word	hspi1
 295              		.cfi_endproc
 296              	.LFE70:
 298              		.section	.text.camersSetBrightness,"ax",%progbits
 299              		.align	1
 300              		.global	camersSetBrightness
 301              		.syntax unified
 302              		.thumb
 303              		.thumb_func
 304              		.fpu softvfp
 306              	camersSetBrightness:
 307              	.LVL24:
 308              	.LFB71:
  77:libs/camera/camera.c **** 
  78:libs/camera/camera.c **** void camersSetBrightness(CAM_BRIGHTNESS_LEVEL level )
  79:libs/camera/camera.c **** {
 309              		.loc 1 79 1 is_stmt 1 view -0
 310              		.cfi_startproc
 311              		@ args = 0, pretend = 0, frame = 0
 312              		@ frame_needed = 0, uses_anonymous_args = 0
 313              		.loc 1 79 1 is_stmt 0 view .LVU56
 314 0000 08B5     		push	{r3, lr}
ARM GAS  /tmp/ccUoHWVf.s 			page 8


 315              	.LCFI9:
 316              		.cfi_def_cfa_offset 8
 317              		.cfi_offset 3, -8
 318              		.cfi_offset 14, -4
 319 0002 0146     		mov	r1, r0
  80:libs/camera/camera.c ****   arducam_write_register(0x22,level);
 320              		.loc 1 80 3 is_stmt 1 view .LVU57
 321 0004 2220     		movs	r0, #34
 322              	.LVL25:
 323              		.loc 1 80 3 is_stmt 0 view .LVU58
 324 0006 FFF7FEFF 		bl	arducam_write_register
 325              	.LVL26:
  81:libs/camera/camera.c **** }
 326              		.loc 1 81 1 view .LVU59
 327 000a 08BD     		pop	{r3, pc}
 328              		.cfi_endproc
 329              	.LFE71:
 331              		.section	.text.cameraSetSharpness,"ax",%progbits
 332              		.align	1
 333              		.global	cameraSetSharpness
 334              		.syntax unified
 335              		.thumb
 336              		.thumb_func
 337              		.fpu softvfp
 339              	cameraSetSharpness:
 340              	.LVL27:
 341              	.LFB72:
  82:libs/camera/camera.c **** 
  83:libs/camera/camera.c **** void cameraSetSharpness(CAM_SHARPNESS_LEVEL level)
  84:libs/camera/camera.c **** {
 342              		.loc 1 84 1 is_stmt 1 view -0
 343              		.cfi_startproc
 344              		@ args = 0, pretend = 0, frame = 0
 345              		@ frame_needed = 0, uses_anonymous_args = 0
 346              		.loc 1 84 1 is_stmt 0 view .LVU61
 347 0000 08B5     		push	{r3, lr}
 348              	.LCFI10:
 349              		.cfi_def_cfa_offset 8
 350              		.cfi_offset 3, -8
 351              		.cfi_offset 14, -4
 352 0002 0146     		mov	r1, r0
  85:libs/camera/camera.c ****   arducam_write_register(0x28,level);
 353              		.loc 1 85 3 is_stmt 1 view .LVU62
 354 0004 2820     		movs	r0, #40
 355              	.LVL28:
 356              		.loc 1 85 3 is_stmt 0 view .LVU63
 357 0006 FFF7FEFF 		bl	arducam_write_register
 358              	.LVL29:
  86:libs/camera/camera.c **** 
  87:libs/camera/camera.c **** }
 359              		.loc 1 87 1 view .LVU64
 360 000a 08BD     		pop	{r3, pc}
 361              		.cfi_endproc
 362              	.LFE72:
 364              		.section	.text.cameraSetContrast,"ax",%progbits
 365              		.align	1
 366              		.global	cameraSetContrast
ARM GAS  /tmp/ccUoHWVf.s 			page 9


 367              		.syntax unified
 368              		.thumb
 369              		.thumb_func
 370              		.fpu softvfp
 372              	cameraSetContrast:
 373              	.LVL30:
 374              	.LFB73:
  88:libs/camera/camera.c **** 
  89:libs/camera/camera.c **** void cameraSetContrast (CAM_CONTRAST_LEVEL level)
  90:libs/camera/camera.c **** {
 375              		.loc 1 90 1 is_stmt 1 view -0
 376              		.cfi_startproc
 377              		@ args = 0, pretend = 0, frame = 0
 378              		@ frame_needed = 0, uses_anonymous_args = 0
 379              		.loc 1 90 1 is_stmt 0 view .LVU66
 380 0000 08B5     		push	{r3, lr}
 381              	.LCFI11:
 382              		.cfi_def_cfa_offset 8
 383              		.cfi_offset 3, -8
 384              		.cfi_offset 14, -4
 385 0002 0146     		mov	r1, r0
  91:libs/camera/camera.c ****   arducam_write_register(0x23,level);
 386              		.loc 1 91 3 is_stmt 1 view .LVU67
 387 0004 2320     		movs	r0, #35
 388              	.LVL31:
 389              		.loc 1 91 3 is_stmt 0 view .LVU68
 390 0006 FFF7FEFF 		bl	arducam_write_register
 391              	.LVL32:
  92:libs/camera/camera.c **** }
 392              		.loc 1 92 1 view .LVU69
 393 000a 08BD     		pop	{r3, pc}
 394              		.cfi_endproc
 395              	.LFE73:
 397              		.section	.text.cameraSetEV,"ax",%progbits
 398              		.align	1
 399              		.global	cameraSetEV
 400              		.syntax unified
 401              		.thumb
 402              		.thumb_func
 403              		.fpu softvfp
 405              	cameraSetEV:
 406              	.LVL33:
 407              	.LFB74:
  93:libs/camera/camera.c **** 
  94:libs/camera/camera.c **** void cameraSetEV (CAM_EV_LEVEL level)
  95:libs/camera/camera.c **** {
 408              		.loc 1 95 1 is_stmt 1 view -0
 409              		.cfi_startproc
 410              		@ args = 0, pretend = 0, frame = 0
 411              		@ frame_needed = 0, uses_anonymous_args = 0
 412              		.loc 1 95 1 is_stmt 0 view .LVU71
 413 0000 08B5     		push	{r3, lr}
 414              	.LCFI12:
 415              		.cfi_def_cfa_offset 8
 416              		.cfi_offset 3, -8
 417              		.cfi_offset 14, -4
 418 0002 0146     		mov	r1, r0
ARM GAS  /tmp/ccUoHWVf.s 			page 10


  96:libs/camera/camera.c ****   arducam_write_register(0x25,level);
 419              		.loc 1 96 3 is_stmt 1 view .LVU72
 420 0004 2520     		movs	r0, #37
 421              	.LVL34:
 422              		.loc 1 96 3 is_stmt 0 view .LVU73
 423 0006 FFF7FEFF 		bl	arducam_write_register
 424              	.LVL35:
  97:libs/camera/camera.c **** 
  98:libs/camera/camera.c **** }
 425              		.loc 1 98 1 view .LVU74
 426 000a 08BD     		pop	{r3, pc}
 427              		.cfi_endproc
 428              	.LFE74:
 430              		.section	.text.cameraSetSaturation,"ax",%progbits
 431              		.align	1
 432              		.global	cameraSetSaturation
 433              		.syntax unified
 434              		.thumb
 435              		.thumb_func
 436              		.fpu softvfp
 438              	cameraSetSaturation:
 439              	.LVL36:
 440              	.LFB75:
  99:libs/camera/camera.c **** 
 100:libs/camera/camera.c **** void cameraSetSaturation (CAM_STAURATION_LEVEL level)
 101:libs/camera/camera.c **** {
 441              		.loc 1 101 1 is_stmt 1 view -0
 442              		.cfi_startproc
 443              		@ args = 0, pretend = 0, frame = 0
 444              		@ frame_needed = 0, uses_anonymous_args = 0
 445              		.loc 1 101 1 is_stmt 0 view .LVU76
 446 0000 08B5     		push	{r3, lr}
 447              	.LCFI13:
 448              		.cfi_def_cfa_offset 8
 449              		.cfi_offset 3, -8
 450              		.cfi_offset 14, -4
 451 0002 0146     		mov	r1, r0
 102:libs/camera/camera.c ****   arducam_write_register(0x24,level);
 452              		.loc 1 102 3 is_stmt 1 view .LVU77
 453 0004 2420     		movs	r0, #36
 454              	.LVL37:
 455              		.loc 1 102 3 is_stmt 0 view .LVU78
 456 0006 FFF7FEFF 		bl	arducam_write_register
 457              	.LVL38:
 103:libs/camera/camera.c **** 
 104:libs/camera/camera.c **** }
 458              		.loc 1 104 1 view .LVU79
 459 000a 08BD     		pop	{r3, pc}
 460              		.cfi_endproc
 461              	.LFE75:
 463              		.section	.text.cameraSetColorEffect,"ax",%progbits
 464              		.align	1
 465              		.global	cameraSetColorEffect
 466              		.syntax unified
 467              		.thumb
 468              		.thumb_func
 469              		.fpu softvfp
ARM GAS  /tmp/ccUoHWVf.s 			page 11


 471              	cameraSetColorEffect:
 472              	.LVL39:
 473              	.LFB76:
 105:libs/camera/camera.c **** 
 106:libs/camera/camera.c **** void cameraSetColorEffect (CAM_COLOR_FX effect)
 107:libs/camera/camera.c **** {
 474              		.loc 1 107 1 is_stmt 1 view -0
 475              		.cfi_startproc
 476              		@ args = 0, pretend = 0, frame = 0
 477              		@ frame_needed = 0, uses_anonymous_args = 0
 478              		.loc 1 107 1 is_stmt 0 view .LVU81
 479 0000 08B5     		push	{r3, lr}
 480              	.LCFI14:
 481              		.cfi_def_cfa_offset 8
 482              		.cfi_offset 3, -8
 483              		.cfi_offset 14, -4
 484 0002 0146     		mov	r1, r0
 108:libs/camera/camera.c ****   arducam_write_register(0x27,effect);
 485              		.loc 1 108 3 is_stmt 1 view .LVU82
 486 0004 2720     		movs	r0, #39
 487              	.LVL40:
 488              		.loc 1 108 3 is_stmt 0 view .LVU83
 489 0006 FFF7FEFF 		bl	arducam_write_register
 490              	.LVL41:
 109:libs/camera/camera.c **** 
 110:libs/camera/camera.c **** }
 491              		.loc 1 110 1 view .LVU84
 492 000a 08BD     		pop	{r3, pc}
 493              		.cfi_endproc
 494              	.LFE76:
 496              		.section	.rodata.arducam_set_jpeg_mode.str1.4,"aMS",%progbits,1
 497              		.align	2
 498              	.LC0:
 499 0000 62726967 		.ascii	"brighness level:%i \012\000"
 499      686E6573 
 499      73206C65 
 499      76656C3A 
 499      2569200A 
 500 0015 000000   		.align	2
 501              	.LC1:
 502 0018 73617475 		.ascii	"saturation level:%i \012\000"
 502      72617469 
 502      6F6E206C 
 502      6576656C 
 502      3A256920 
 503 002e 0000     		.align	2
 504              	.LC2:
 505 0030 6578706F 		.ascii	"exposure level:%i \012\000"
 505      73757265 
 505      206C6576 
 505      656C3A25 
 505      69200A00 
 506              		.align	2
 507              	.LC3:
 508 0044 636F6E74 		.ascii	"contrast level:%i \012\000"
 508      72617374 
 508      206C6576 
ARM GAS  /tmp/ccUoHWVf.s 			page 12


 508      656C3A25 
 508      69200A00 
 509              		.align	2
 510              	.LC4:
 511 0058 73686172 		.ascii	"sharpness level:%i \012\000"
 511      706E6573 
 511      73206C65 
 511      76656C3A 
 511      2569200A 
 512 006d 000000   		.align	2
 513              	.LC5:
 514 0070 65666665 		.ascii	"effect:%i \012\000"
 514      63743A25 
 514      69200A00 
 515              		.section	.text.arducam_set_jpeg_mode,"ax",%progbits
 516              		.align	1
 517              		.global	arducam_set_jpeg_mode
 518              		.syntax unified
 519              		.thumb
 520              		.thumb_func
 521              		.fpu softvfp
 523              	arducam_set_jpeg_mode:
 524              	.LFB77:
 111:libs/camera/camera.c **** 
 112:libs/camera/camera.c **** void arducam_set_jpeg_mode() {
 525              		.loc 1 112 30 is_stmt 1 view -0
 526              		.cfi_startproc
 527              		@ args = 0, pretend = 0, frame = 0
 528              		@ frame_needed = 0, uses_anonymous_args = 0
 529 0000 10B5     		push	{r4, lr}
 530              	.LCFI15:
 531              		.cfi_def_cfa_offset 8
 532              		.cfi_offset 4, -8
 533              		.cfi_offset 14, -4
 113:libs/camera/camera.c ****     // Write JPEG basic configuration to register 0x20
 114:libs/camera/camera.c ****     arducam_write_register(0x20, 0x01);  // JPEG mode
 534              		.loc 1 114 5 view .LVU86
 535 0002 0121     		movs	r1, #1
 536 0004 2020     		movs	r0, #32
 537 0006 FFF7FEFF 		bl	arducam_write_register
 538              	.LVL42:
 115:libs/camera/camera.c ****     HAL_Delay(10);  // Small delay for settings to apply
 539              		.loc 1 115 5 view .LVU87
 540 000a 0A20     		movs	r0, #10
 541 000c FFF7FEFF 		bl	HAL_Delay
 542              	.LVL43:
 116:libs/camera/camera.c **** 
 117:libs/camera/camera.c ****      // 2. Set resolution to 320x240
 118:libs/camera/camera.c ****     arducam_write_register(0x21, 0x01);  // Resolution = 320x240
 543              		.loc 1 118 5 view .LVU88
 544 0010 0121     		movs	r1, #1
 545 0012 2120     		movs	r0, #33
 546 0014 FFF7FEFF 		bl	arducam_write_register
 547              	.LVL44:
 119:libs/camera/camera.c ****     HAL_Delay(10);
 548              		.loc 1 119 5 view .LVU89
 549 0018 0A20     		movs	r0, #10
ARM GAS  /tmp/ccUoHWVf.s 			page 13


 550 001a FFF7FEFF 		bl	HAL_Delay
 551              	.LVL45:
 120:libs/camera/camera.c **** 
 121:libs/camera/camera.c ****     camersSetBrightness(lvl);
 552              		.loc 1 121 5 view .LVU90
 553 001e 214C     		ldr	r4, .L32
 554 0020 2078     		ldrb	r0, [r4]	@ zero_extendqisi2
 555 0022 FFF7FEFF 		bl	camersSetBrightness
 556              	.LVL46:
 122:libs/camera/camera.c ****     printf("brighness level:%i \n" ,lvl);
 557              		.loc 1 122 5 view .LVU91
 558 0026 2178     		ldrb	r1, [r4]	@ zero_extendqisi2
 559 0028 1F48     		ldr	r0, .L32+4
 560 002a FFF7FEFF 		bl	printf
 561              	.LVL47:
 123:libs/camera/camera.c ****     HAL_Delay(10);
 562              		.loc 1 123 5 view .LVU92
 563 002e 0A20     		movs	r0, #10
 564 0030 FFF7FEFF 		bl	HAL_Delay
 565              	.LVL48:
 124:libs/camera/camera.c **** 
 125:libs/camera/camera.c ****     cameraSetSaturation(saturation_lvl);
 566              		.loc 1 125 5 view .LVU93
 567 0034 1D4C     		ldr	r4, .L32+8
 568 0036 2078     		ldrb	r0, [r4]	@ zero_extendqisi2
 569 0038 FFF7FEFF 		bl	cameraSetSaturation
 570              	.LVL49:
 126:libs/camera/camera.c ****     printf("saturation level:%i \n" ,saturation_lvl);
 571              		.loc 1 126 5 view .LVU94
 572 003c 2178     		ldrb	r1, [r4]	@ zero_extendqisi2
 573 003e 1C48     		ldr	r0, .L32+12
 574 0040 FFF7FEFF 		bl	printf
 575              	.LVL50:
 127:libs/camera/camera.c **** 
 128:libs/camera/camera.c ****     HAL_Delay(10);
 576              		.loc 1 128 5 view .LVU95
 577 0044 0A20     		movs	r0, #10
 578 0046 FFF7FEFF 		bl	HAL_Delay
 579              	.LVL51:
 129:libs/camera/camera.c **** 
 130:libs/camera/camera.c ****     cameraSetEV(exposure_lvl);
 580              		.loc 1 130 5 view .LVU96
 581 004a 1A4C     		ldr	r4, .L32+16
 582 004c 2078     		ldrb	r0, [r4]	@ zero_extendqisi2
 583 004e FFF7FEFF 		bl	cameraSetEV
 584              	.LVL52:
 131:libs/camera/camera.c ****     printf("exposure level:%i \n" ,exposure_lvl);
 585              		.loc 1 131 5 view .LVU97
 586 0052 2178     		ldrb	r1, [r4]	@ zero_extendqisi2
 587 0054 1848     		ldr	r0, .L32+20
 588 0056 FFF7FEFF 		bl	printf
 589              	.LVL53:
 132:libs/camera/camera.c **** 
 133:libs/camera/camera.c ****     HAL_Delay(10);
 590              		.loc 1 133 5 view .LVU98
 591 005a 0A20     		movs	r0, #10
 592 005c FFF7FEFF 		bl	HAL_Delay
ARM GAS  /tmp/ccUoHWVf.s 			page 14


 593              	.LVL54:
 134:libs/camera/camera.c **** 
 135:libs/camera/camera.c ****     cameraSetContrast(contra_lvl);
 594              		.loc 1 135 5 view .LVU99
 595 0060 164C     		ldr	r4, .L32+24
 596 0062 2078     		ldrb	r0, [r4]	@ zero_extendqisi2
 597 0064 FFF7FEFF 		bl	cameraSetContrast
 598              	.LVL55:
 136:libs/camera/camera.c ****     printf("contrast level:%i \n" ,contra_lvl);
 599              		.loc 1 136 5 view .LVU100
 600 0068 2178     		ldrb	r1, [r4]	@ zero_extendqisi2
 601 006a 1548     		ldr	r0, .L32+28
 602 006c FFF7FEFF 		bl	printf
 603              	.LVL56:
 137:libs/camera/camera.c **** 
 138:libs/camera/camera.c ****     HAL_Delay(10);
 604              		.loc 1 138 5 view .LVU101
 605 0070 0A20     		movs	r0, #10
 606 0072 FFF7FEFF 		bl	HAL_Delay
 607              	.LVL57:
 139:libs/camera/camera.c **** 
 140:libs/camera/camera.c ****     cameraSetSharpness(shrp_lvl);
 608              		.loc 1 140 5 view .LVU102
 609 0076 134C     		ldr	r4, .L32+32
 610 0078 2078     		ldrb	r0, [r4]	@ zero_extendqisi2
 611 007a FFF7FEFF 		bl	cameraSetSharpness
 612              	.LVL58:
 141:libs/camera/camera.c ****     printf("sharpness level:%i \n" ,shrp_lvl);
 613              		.loc 1 141 5 view .LVU103
 614 007e 2178     		ldrb	r1, [r4]	@ zero_extendqisi2
 615 0080 1148     		ldr	r0, .L32+36
 616 0082 FFF7FEFF 		bl	printf
 617              	.LVL59:
 142:libs/camera/camera.c **** 
 143:libs/camera/camera.c ****     HAL_Delay(10);
 618              		.loc 1 143 5 view .LVU104
 619 0086 0A20     		movs	r0, #10
 620 0088 FFF7FEFF 		bl	HAL_Delay
 621              	.LVL60:
 144:libs/camera/camera.c **** 
 145:libs/camera/camera.c ****     cameraSetColorEffect(effect);
 622              		.loc 1 145 5 view .LVU105
 623 008c 0F4C     		ldr	r4, .L32+40
 624 008e 2078     		ldrb	r0, [r4]	@ zero_extendqisi2
 625 0090 FFF7FEFF 		bl	cameraSetColorEffect
 626              	.LVL61:
 146:libs/camera/camera.c ****     printf("effect:%i \n" ,effect);
 627              		.loc 1 146 5 view .LVU106
 628 0094 2178     		ldrb	r1, [r4]	@ zero_extendqisi2
 629 0096 0E48     		ldr	r0, .L32+44
 630 0098 FFF7FEFF 		bl	printf
 631              	.LVL62:
 147:libs/camera/camera.c ****     HAL_Delay(10);
 632              		.loc 1 147 5 view .LVU107
 633 009c 0A20     		movs	r0, #10
 634 009e FFF7FEFF 		bl	HAL_Delay
 635              	.LVL63:
ARM GAS  /tmp/ccUoHWVf.s 			page 15


 148:libs/camera/camera.c **** 
 149:libs/camera/camera.c **** }
 636              		.loc 1 149 1 is_stmt 0 view .LVU108
 637 00a2 10BD     		pop	{r4, pc}
 638              	.L33:
 639              		.align	2
 640              	.L32:
 641 00a4 00000000 		.word	lvl
 642 00a8 00000000 		.word	.LC0
 643 00ac 00000000 		.word	saturation_lvl
 644 00b0 18000000 		.word	.LC1
 645 00b4 00000000 		.word	exposure_lvl
 646 00b8 30000000 		.word	.LC2
 647 00bc 00000000 		.word	contra_lvl
 648 00c0 44000000 		.word	.LC3
 649 00c4 00000000 		.word	shrp_lvl
 650 00c8 58000000 		.word	.LC4
 651 00cc 00000000 		.word	effect
 652 00d0 70000000 		.word	.LC5
 653              		.cfi_endproc
 654              	.LFE77:
 656              		.section	.text.arducam_capture_image,"ax",%progbits
 657              		.align	1
 658              		.global	arducam_capture_image
 659              		.syntax unified
 660              		.thumb
 661              		.thumb_func
 662              		.fpu softvfp
 664              	arducam_capture_image:
 665              	.LFB78:
 150:libs/camera/camera.c **** 
 151:libs/camera/camera.c **** 
 152:libs/camera/camera.c **** // Capture image
 153:libs/camera/camera.c **** void arducam_capture_image() {
 666              		.loc 1 153 30 is_stmt 1 view -0
 667              		.cfi_startproc
 668              		@ args = 0, pretend = 0, frame = 0
 669              		@ frame_needed = 0, uses_anonymous_args = 0
 670 0000 08B5     		push	{r3, lr}
 671              	.LCFI16:
 672              		.cfi_def_cfa_offset 8
 673              		.cfi_offset 3, -8
 674              		.cfi_offset 14, -4
 154:libs/camera/camera.c ****     // 1. Clear FIFO write done flag
 155:libs/camera/camera.c ****     arducam_write_register(0x04, 0x01);
 675              		.loc 1 155 5 view .LVU110
 676 0002 0121     		movs	r1, #1
 677 0004 0420     		movs	r0, #4
 678 0006 FFF7FEFF 		bl	arducam_write_register
 679              	.LVL64:
 156:libs/camera/camera.c ****     HAL_Delay(10);
 680              		.loc 1 156 5 view .LVU111
 681 000a 0A20     		movs	r0, #10
 682 000c FFF7FEFF 		bl	HAL_Delay
 683              	.LVL65:
 157:libs/camera/camera.c **** 
 158:libs/camera/camera.c ****     // 2. Start image capture
ARM GAS  /tmp/ccUoHWVf.s 			page 16


 159:libs/camera/camera.c ****     arducam_write_register(0x04, 0x02);
 684              		.loc 1 159 5 view .LVU112
 685 0010 0221     		movs	r1, #2
 686 0012 0420     		movs	r0, #4
 687 0014 FFF7FEFF 		bl	arducam_write_register
 688              	.LVL66:
 160:libs/camera/camera.c ****     HAL_Delay(200);  // Adjust delay as needed
 689              		.loc 1 160 5 view .LVU113
 690 0018 C820     		movs	r0, #200
 691 001a FFF7FEFF 		bl	HAL_Delay
 692              	.LVL67:
 161:libs/camera/camera.c **** 
 162:libs/camera/camera.c ****     // Optional: Wait until FIFO done (polling or timeout)
 163:libs/camera/camera.c ****     // If camera sets flag in 0x01 (frames written), you could poll here
 164:libs/camera/camera.c **** }
 693              		.loc 1 164 1 is_stmt 0 view .LVU114
 694 001e 08BD     		pop	{r3, pc}
 695              		.cfi_endproc
 696              	.LFE78:
 698              		.section	.rodata.find_jpeg.str1.4,"aMS",%progbits,1
 699              		.align	2
 700              	.LC6:
 701 0000 4A504547 		.ascii	"JPEG found: start=%d, end=%d\012\000"
 701      20666F75 
 701      6E643A20 
 701      73746172 
 701      743D2564 
 702              		.section	.text.find_jpeg,"ax",%progbits
 703              		.align	1
 704              		.global	find_jpeg
 705              		.syntax unified
 706              		.thumb
 707              		.thumb_func
 708              		.fpu softvfp
 710              	find_jpeg:
 711              	.LVL68:
 712              	.LFB79:
 165:libs/camera/camera.c **** 
 166:libs/camera/camera.c **** 
 167:libs/camera/camera.c **** uint32_t find_jpeg( uint32_t bytes_read,  uint8_t image_buffer[MAX_IMAGE_SIZE])    
 168:libs/camera/camera.c **** {
 713              		.loc 1 168 1 is_stmt 1 view -0
 714              		.cfi_startproc
 715              		@ args = 0, pretend = 0, frame = 0
 716              		@ frame_needed = 0, uses_anonymous_args = 0
 717              		.loc 1 168 1 is_stmt 0 view .LVU116
 718 0000 38B5     		push	{r3, r4, r5, lr}
 719              	.LCFI17:
 720              		.cfi_def_cfa_offset 16
 721              		.cfi_offset 3, -16
 722              		.cfi_offset 4, -12
 723              		.cfi_offset 5, -8
 724              		.cfi_offset 14, -4
 169:libs/camera/camera.c ****     // Find JPEG start (0xFFD8) and end (0xFFD9)
 170:libs/camera/camera.c ****     uint32_t jpeg_length=0;
 725              		.loc 1 170 5 is_stmt 1 view .LVU117
 726              	.LVL69:
ARM GAS  /tmp/ccUoHWVf.s 			page 17


 171:libs/camera/camera.c ****     int start_index = -1, end_index = -1;
 727              		.loc 1 171 5 view .LVU118
 172:libs/camera/camera.c ****     for (uint32_t i = 0; i < bytes_read - 1; i++) {
 728              		.loc 1 172 5 view .LVU119
 729              	.LBB5:
 730              		.loc 1 172 10 view .LVU120
 731              		.loc 1 172 19 is_stmt 0 view .LVU121
 732 0002 0023     		movs	r3, #0
 733              	.LBE5:
 171:libs/camera/camera.c ****     int start_index = -1, end_index = -1;
 734              		.loc 1 171 9 view .LVU122
 735 0004 4FF0FF35 		mov	r5, #-1
 736              	.LBB6:
 737              		.loc 1 172 5 view .LVU123
 738 0008 02E0     		b	.L37
 739              	.LVL70:
 740              	.L38:
 173:libs/camera/camera.c ****         if (image_buffer[i] == 0xFF && image_buffer[i + 1] == 0xD8 && start_index == -1) {
 174:libs/camera/camera.c ****             start_index = i;
 175:libs/camera/camera.c ****         }
 176:libs/camera/camera.c ****         if (image_buffer[i] == 0xFF && image_buffer[i + 1] == 0xD9) {
 741              		.loc 1 176 9 is_stmt 1 view .LVU124
 742              		.loc 1 176 12 is_stmt 0 view .LVU125
 743 000a FF2A     		cmp	r2, #255
 744 000c 0FD0     		beq	.L47
 745              	.L39:
 172:libs/camera/camera.c ****     for (uint32_t i = 0; i < bytes_read - 1; i++) {
 746              		.loc 1 172 46 is_stmt 1 discriminator 2 view .LVU126
 172:libs/camera/camera.c ****     for (uint32_t i = 0; i < bytes_read - 1; i++) {
 747              		.loc 1 172 47 is_stmt 0 discriminator 2 view .LVU127
 748 000e 0133     		adds	r3, r3, #1
 749              	.LVL71:
 750              	.L37:
 172:libs/camera/camera.c ****     for (uint32_t i = 0; i < bytes_read - 1; i++) {
 751              		.loc 1 172 26 is_stmt 1 discriminator 1 view .LVU128
 172:libs/camera/camera.c ****     for (uint32_t i = 0; i < bytes_read - 1; i++) {
 752              		.loc 1 172 41 is_stmt 0 discriminator 1 view .LVU129
 753 0010 421E     		subs	r2, r0, #1
 172:libs/camera/camera.c ****     for (uint32_t i = 0; i < bytes_read - 1; i++) {
 754              		.loc 1 172 5 discriminator 1 view .LVU130
 755 0012 9A42     		cmp	r2, r3
 756 0014 11D9     		bls	.L48
 173:libs/camera/camera.c ****         if (image_buffer[i] == 0xFF && image_buffer[i + 1] == 0xD8 && start_index == -1) {
 757              		.loc 1 173 9 is_stmt 1 view .LVU131
 173:libs/camera/camera.c ****         if (image_buffer[i] == 0xFF && image_buffer[i + 1] == 0xD8 && start_index == -1) {
 758              		.loc 1 173 25 is_stmt 0 view .LVU132
 759 0016 CA5C     		ldrb	r2, [r1, r3]	@ zero_extendqisi2
 173:libs/camera/camera.c ****         if (image_buffer[i] == 0xFF && image_buffer[i + 1] == 0xD8 && start_index == -1) {
 760              		.loc 1 173 12 view .LVU133
 761 0018 FF2A     		cmp	r2, #255
 762 001a F6D1     		bne	.L38
 173:libs/camera/camera.c ****         if (image_buffer[i] == 0xFF && image_buffer[i + 1] == 0xD8 && start_index == -1) {
 763              		.loc 1 173 52 discriminator 1 view .LVU134
 764 001c CC18     		adds	r4, r1, r3
 765 001e 6478     		ldrb	r4, [r4, #1]	@ zero_extendqisi2
 173:libs/camera/camera.c ****         if (image_buffer[i] == 0xFF && image_buffer[i + 1] == 0xD8 && start_index == -1) {
 766              		.loc 1 173 37 discriminator 1 view .LVU135
ARM GAS  /tmp/ccUoHWVf.s 			page 18


 767 0020 D82C     		cmp	r4, #216
 768 0022 F2D1     		bne	.L38
 173:libs/camera/camera.c ****         if (image_buffer[i] == 0xFF && image_buffer[i + 1] == 0xD8 && start_index == -1) {
 769              		.loc 1 173 68 discriminator 2 view .LVU136
 770 0024 B5F1FF3F 		cmp	r5, #-1
 771 0028 EFD1     		bne	.L38
 174:libs/camera/camera.c ****         }
 772              		.loc 1 174 13 is_stmt 1 view .LVU137
 174:libs/camera/camera.c ****         }
 773              		.loc 1 174 25 is_stmt 0 view .LVU138
 774 002a 1D46     		mov	r5, r3
 775              	.LVL72:
 174:libs/camera/camera.c ****         }
 776              		.loc 1 174 25 view .LVU139
 777 002c EDE7     		b	.L38
 778              	.LVL73:
 779              	.L47:
 780              		.loc 1 176 52 discriminator 1 view .LVU140
 781 002e 5A1C     		adds	r2, r3, #1
 782 0030 8C5C     		ldrb	r4, [r1, r2]	@ zero_extendqisi2
 783              		.loc 1 176 37 discriminator 1 view .LVU141
 784 0032 D92C     		cmp	r4, #217
 785 0034 EBD1     		bne	.L39
 177:libs/camera/camera.c ****             end_index = i + 1;
 786              		.loc 1 177 13 is_stmt 1 view .LVU142
 787              		.loc 1 177 23 is_stmt 0 view .LVU143
 788 0036 1446     		mov	r4, r2
 789              	.LVL74:
 178:libs/camera/camera.c ****             break;
 790              		.loc 1 178 13 is_stmt 1 view .LVU144
 791 0038 01E0     		b	.L40
 792              	.LVL75:
 793              	.L48:
 794              		.loc 1 178 13 is_stmt 0 view .LVU145
 795              	.LBE6:
 171:libs/camera/camera.c ****     for (uint32_t i = 0; i < bytes_read - 1; i++) {
 796              		.loc 1 171 27 view .LVU146
 797 003a 4FF0FF34 		mov	r4, #-1
 798              	.LVL76:
 799              	.L40:
 179:libs/camera/camera.c ****         }
 180:libs/camera/camera.c ****     }
 181:libs/camera/camera.c **** 
 182:libs/camera/camera.c ****     if (start_index != -1 && end_index != -1 && end_index > start_index) 
 800              		.loc 1 182 5 is_stmt 1 view .LVU147
 801              		.loc 1 182 8 is_stmt 0 view .LVU148
 802 003e B5F1FF3F 		cmp	r5, #-1
 803 0042 0ED0     		beq	.L43
 804              		.loc 1 182 27 discriminator 1 view .LVU149
 805 0044 B4F1FF3F 		cmp	r4, #-1
 806 0048 0DD0     		beq	.L44
 807              		.loc 1 182 46 discriminator 2 view .LVU150
 808 004a A542     		cmp	r5, r4
 809 004c 01DB     		blt	.L49
 170:libs/camera/camera.c ****     int start_index = -1, end_index = -1;
 810              		.loc 1 170 14 view .LVU151
 811 004e 0020     		movs	r0, #0
ARM GAS  /tmp/ccUoHWVf.s 			page 19


 812              	.LVL77:
 183:libs/camera/camera.c ****     {
 184:libs/camera/camera.c ****         printf("JPEG found: start=%d, end=%d\n", start_index, end_index);
 185:libs/camera/camera.c ****         // for (int i = start_index; i <= end_index; i++) {
 186:libs/camera/camera.c ****         //     printf("%02X ", image_buffer[i]);
 187:libs/camera/camera.c ****         // }
 188:libs/camera/camera.c ****         // printf("\nJPEG extraction complete (%d bytes).\n", end_index - start_index + 1);
 189:libs/camera/camera.c ****         jpeg_length=end_index - start_index + 1;
 190:libs/camera/camera.c ****     } 
 191:libs/camera/camera.c ****     // uint32_t jpeg_length=end_index - start_index + 1;
 192:libs/camera/camera.c ****     return jpeg_length;
 813              		.loc 1 192 5 is_stmt 1 view .LVU152
 814              		.loc 1 192 12 is_stmt 0 view .LVU153
 815 0050 08E0     		b	.L36
 816              	.LVL78:
 817              	.L49:
 184:libs/camera/camera.c ****         // for (int i = start_index; i <= end_index; i++) {
 818              		.loc 1 184 9 is_stmt 1 view .LVU154
 819 0052 2246     		mov	r2, r4
 820 0054 2946     		mov	r1, r5
 821              	.LVL79:
 184:libs/camera/camera.c ****         // for (int i = start_index; i <= end_index; i++) {
 822              		.loc 1 184 9 is_stmt 0 view .LVU155
 823 0056 0548     		ldr	r0, .L50
 824              	.LVL80:
 184:libs/camera/camera.c ****         // for (int i = start_index; i <= end_index; i++) {
 825              		.loc 1 184 9 view .LVU156
 826 0058 FFF7FEFF 		bl	printf
 827              	.LVL81:
 189:libs/camera/camera.c ****     } 
 828              		.loc 1 189 9 is_stmt 1 view .LVU157
 189:libs/camera/camera.c ****     } 
 829              		.loc 1 189 31 is_stmt 0 view .LVU158
 830 005c 621B     		subs	r2, r4, r5
 189:libs/camera/camera.c ****     } 
 831              		.loc 1 189 45 view .LVU159
 832 005e 501C     		adds	r0, r2, #1
 833              	.LVL82:
 189:libs/camera/camera.c ****     } 
 834              		.loc 1 189 45 view .LVU160
 835 0060 00E0     		b	.L36
 836              	.LVL83:
 837              	.L43:
 170:libs/camera/camera.c ****     int start_index = -1, end_index = -1;
 838              		.loc 1 170 14 view .LVU161
 839 0062 0020     		movs	r0, #0
 840              	.LVL84:
 841              	.L36:
 193:libs/camera/camera.c **** 
 194:libs/camera/camera.c **** 
 195:libs/camera/camera.c ****     // else {
 196:libs/camera/camera.c ****         // printf("JPEG not found in the image buffer.\n");
 197:libs/camera/camera.c ****         // return false;
 198:libs/camera/camera.c **** 
 199:libs/camera/camera.c ****     // }
 200:libs/camera/camera.c **** }
 842              		.loc 1 200 1 view .LVU162
ARM GAS  /tmp/ccUoHWVf.s 			page 20


 843 0064 38BD     		pop	{r3, r4, r5, pc}
 844              	.LVL85:
 845              	.L44:
 170:libs/camera/camera.c ****     int start_index = -1, end_index = -1;
 846              		.loc 1 170 14 view .LVU163
 847 0066 0020     		movs	r0, #0
 848              	.LVL86:
 170:libs/camera/camera.c ****     int start_index = -1, end_index = -1;
 849              		.loc 1 170 14 view .LVU164
 850 0068 FCE7     		b	.L36
 851              	.L51:
 852 006a 00BF     		.align	2
 853              	.L50:
 854 006c 00000000 		.word	.LC6
 855              		.cfi_endproc
 856              	.LFE79:
 858              		.section	.rodata.process_image_capture.str1.4,"aMS",%progbits,1
 859              		.align	2
 860              	.LC7:
 861 0000 53746172 		.ascii	"Starting image capture...\000"
 861      74696E67 
 861      20696D61 
 861      67652063 
 861      61707475 
 862 001a 0000     		.align	2
 863              	.LC8:
 864 001c 52656164 		.ascii	"Reading image from FIFO...\000"
 864      696E6720 
 864      696D6167 
 864      65206672 
 864      6F6D2046 
 865 0037 00       		.align	2
 866              	.LC9:
 867 0038 4A504547 		.ascii	"JPEG not found in buffer\000"
 867      206E6F74 
 867      20666F75 
 867      6E642069 
 867      6E206275 
 868 0051 000000   		.align	2
 869              	.LC10:
 870 0054 4A504547 		.ascii	"JPEG found: start=%d, end=%d, length=%lu\012\000"
 870      20666F75 
 870      6E643A20 
 870      73746172 
 870      743D2564 
 871 007e 0000     		.align	2
 872              	.LC11:
 873 0080 466C6173 		.ascii	"Flash not found or not matching (ID: 0x%lX)\015\012"
 873      68206E6F 
 873      7420666F 
 873      756E6420 
 873      6F72206E 
 874 00ad 00       		.ascii	"\000"
 875 00ae 0000     		.align	2
 876              	.LC12:
 877 00b0 466C6173 		.ascii	"Flash found (ID: 0x%lX)\015\012\000"
 877      6820666F 
ARM GAS  /tmp/ccUoHWVf.s 			page 21


 877      756E6420 
 877      2849443A 
 877      20307825 
 878 00ca 0000     		.align	2
 879              	.LC13:
 880 00cc 454F4920 		.ascii	"EOI Packet.\000"
 880      5061636B 
 880      65742E00 
 881              		.align	2
 882              	.LC14:
 883 00d8 57726974 		.ascii	"Writing SSDV packet to flash...\000"
 883      696E6720 
 883      53534456 
 883      20706163 
 883      6B657420 
 884              		.align	2
 885              	.LC15:
 886 00f8 7C205353 		.ascii	"| SSDV packet %02lu stored at address 0x%06lX |\012"
 886      44562070 
 886      61636B65 
 886      74202530 
 886      326C7520 
 887 0128 00       		.ascii	"\000"
 888 0129 000000   		.align	2
 889              	.LC16:
 890 012c 5B535344 		.ascii	"[SSDV] Error or unexpected result.\000"
 890      565D2045 
 890      72726F72 
 890      206F7220 
 890      756E6578 
 891 014f 00       		.align	2
 892              	.LC17:
 893 0150 0A5B5245 		.ascii	"\012[READING BACK %lu SSDV PACKETS FROM FLASH]\012\000"
 893      4144494E 
 893      47204241 
 893      434B2025 
 893      6C752053 
 894 017d 000000   		.align	2
 895              	.LC18:
 896 0180 5061636B 		.ascii	"Packet %02lu: \000"
 896      65742025 
 896      30326C75 
 896      3A2000
 897 018f 00       		.align	2
 898              	.LC19:
 899 0190 30782530 		.ascii	"0x%02X, \000"
 899      32582C20 
 899      00
 900 0199 000000   		.align	2
 901              	.LC20:
 902 019c 0A2D2D2D 		.ascii	"\012-----------------------------\000"
 902      2D2D2D2D 
 902      2D2D2D2D 
 902      2D2D2D2D 
 902      2D2D2D2D 
 903 01bb 00       		.align	2
 904              	.LC21:
ARM GAS  /tmp/ccUoHWVf.s 			page 22


 905 01bc 5B464C41 		.ascii	"[FLASH READ COMPLETE]\015\000"
 905      53482052 
 905      45414420 
 905      434F4D50 
 905      4C455445 
 906              		.section	.text.process_image_capture,"ax",%progbits
 907              		.align	1
 908              		.global	process_image_capture
 909              		.syntax unified
 910              		.thumb
 911              		.thumb_func
 912              		.fpu softvfp
 914              	process_image_capture:
 915              	.LFB80:
 201:libs/camera/camera.c **** 
 202:libs/camera/camera.c **** 
 203:libs/camera/camera.c **** // //5th iteration
 204:libs/camera/camera.c **** void process_image_capture()
 205:libs/camera/camera.c **** {
 916              		.loc 1 205 1 is_stmt 1 view -0
 917              		.cfi_startproc
 918              		@ args = 0, pretend = 0, frame = 1744
 919              		@ frame_needed = 0, uses_anonymous_args = 0
 920 0000 F0B5     		push	{r4, r5, r6, r7, lr}
 921              	.LCFI18:
 922              		.cfi_def_cfa_offset 20
 923              		.cfi_offset 4, -20
 924              		.cfi_offset 5, -16
 925              		.cfi_offset 6, -12
 926              		.cfi_offset 7, -8
 927              		.cfi_offset 14, -4
 928 0002 ADF2DC6D 		subw	sp, sp, #1756
 929              	.LCFI19:
 930              		.cfi_def_cfa_offset 1776
 206:libs/camera/camera.c ****     current_packet_index = 0;
 931              		.loc 1 206 5 view .LVU166
 932              		.loc 1 206 26 is_stmt 0 view .LVU167
 933 0006 0024     		movs	r4, #0
 934 0008 764B     		ldr	r3, .L83
 935 000a 1C80     		strh	r4, [r3]	@ movhi
 207:libs/camera/camera.c **** 
 208:libs/camera/camera.c ****     // printf("setttinggggg.....camera\r\n");
 209:libs/camera/camera.c ****     arducam_set_jpeg_mode();
 936              		.loc 1 209 5 is_stmt 1 view .LVU168
 937 000c FFF7FEFF 		bl	arducam_set_jpeg_mode
 938              	.LVL87:
 210:libs/camera/camera.c ****     HAL_Delay(10);   
 939              		.loc 1 210 5 view .LVU169
 940 0010 0A20     		movs	r0, #10
 941 0012 FFF7FEFF 		bl	HAL_Delay
 942              	.LVL88:
 211:libs/camera/camera.c ****     printf("Starting image capture...\n");
 943              		.loc 1 211 5 view .LVU170
 944 0016 7448     		ldr	r0, .L83+4
 945 0018 FFF7FEFF 		bl	puts
 946              	.LVL89:
 212:libs/camera/camera.c ****     arducam_capture_image();
ARM GAS  /tmp/ccUoHWVf.s 			page 23


 947              		.loc 1 212 5 view .LVU171
 948 001c FFF7FEFF 		bl	arducam_capture_image
 949              	.LVL90:
 213:libs/camera/camera.c **** 
 214:libs/camera/camera.c ****     printf("Reading image from FIFO...\n");
 950              		.loc 1 214 5 view .LVU172
 951 0020 7248     		ldr	r0, .L83+8
 952 0022 FFF7FEFF 		bl	puts
 953              	.LVL91:
 215:libs/camera/camera.c ****     uint32_t bytes_read = arducam_burst_read(image_buffer, MAX_IMAGE_SIZE);
 954              		.loc 1 215 5 view .LVU173
 955              		.loc 1 215 27 is_stmt 0 view .LVU174
 956 0026 43F69821 		movw	r1, #15000
 957 002a 7148     		ldr	r0, .L83+12
 958 002c FFF7FEFF 		bl	arducam_burst_read
 959              	.LVL92:
 216:libs/camera/camera.c ****     uint32_t jpeg_length = 0;
 960              		.loc 1 216 5 is_stmt 1 view .LVU175
 217:libs/camera/camera.c ****     int start_index = -1, end_index = -1;
 961              		.loc 1 217 5 view .LVU176
 218:libs/camera/camera.c **** 
 219:libs/camera/camera.c ****     // Find JPEG SOI and EOI markers
 220:libs/camera/camera.c ****     for (uint32_t i = 0; i < bytes_read - 1; i++) {
 962              		.loc 1 220 5 view .LVU177
 963              	.LBB7:
 964              		.loc 1 220 10 view .LVU178
 965              		.loc 1 220 19 is_stmt 0 view .LVU179
 966 0030 2346     		mov	r3, r4
 967              	.LBE7:
 217:libs/camera/camera.c ****     int start_index = -1, end_index = -1;
 968              		.loc 1 217 9 view .LVU180
 969 0032 4FF0FF34 		mov	r4, #-1
 970              	.LBB8:
 971              		.loc 1 220 5 view .LVU181
 972 0036 0AE0     		b	.L53
 973              	.LVL93:
 974              	.L79:
 221:libs/camera/camera.c ****         if (image_buffer[i] == 0xFF && image_buffer[i + 1] == 0xD8 && start_index == -1) {
 975              		.loc 1 221 55 discriminator 1 view .LVU182
 976 0038 591C     		adds	r1, r3, #1
 977              		.loc 1 221 52 discriminator 1 view .LVU183
 978 003a 6D4D     		ldr	r5, .L83+12
 979 003c 695C     		ldrb	r1, [r5, r1]	@ zero_extendqisi2
 980              		.loc 1 221 37 discriminator 1 view .LVU184
 981 003e D829     		cmp	r1, #216
 982 0040 0CD1     		bne	.L54
 983              		.loc 1 221 68 discriminator 2 view .LVU185
 984 0042 B4F1FF3F 		cmp	r4, #-1
 985 0046 09D1     		bne	.L54
 222:libs/camera/camera.c ****             start_index = i;
 986              		.loc 1 222 13 is_stmt 1 view .LVU186
 987              		.loc 1 222 25 is_stmt 0 view .LVU187
 988 0048 1C46     		mov	r4, r3
 989              	.LVL94:
 990              		.loc 1 222 25 view .LVU188
 991 004a 07E0     		b	.L54
 992              	.LVL95:
ARM GAS  /tmp/ccUoHWVf.s 			page 24


 993              	.L55:
 220:libs/camera/camera.c ****         if (image_buffer[i] == 0xFF && image_buffer[i + 1] == 0xD8 && start_index == -1) {
 994              		.loc 1 220 46 is_stmt 1 discriminator 2 view .LVU189
 220:libs/camera/camera.c ****         if (image_buffer[i] == 0xFF && image_buffer[i + 1] == 0xD8 && start_index == -1) {
 995              		.loc 1 220 47 is_stmt 0 discriminator 2 view .LVU190
 996 004c 0133     		adds	r3, r3, #1
 997              	.LVL96:
 998              	.L53:
 220:libs/camera/camera.c ****         if (image_buffer[i] == 0xFF && image_buffer[i + 1] == 0xD8 && start_index == -1) {
 999              		.loc 1 220 26 is_stmt 1 discriminator 1 view .LVU191
 220:libs/camera/camera.c ****         if (image_buffer[i] == 0xFF && image_buffer[i + 1] == 0xD8 && start_index == -1) {
 1000              		.loc 1 220 41 is_stmt 0 discriminator 1 view .LVU192
 1001 004e 421E     		subs	r2, r0, #1
 220:libs/camera/camera.c ****         if (image_buffer[i] == 0xFF && image_buffer[i + 1] == 0xD8 && start_index == -1) {
 1002              		.loc 1 220 5 discriminator 1 view .LVU193
 1003 0050 9A42     		cmp	r2, r3
 1004 0052 0BD9     		bls	.L78
 221:libs/camera/camera.c ****         if (image_buffer[i] == 0xFF && image_buffer[i + 1] == 0xD8 && start_index == -1) {
 1005              		.loc 1 221 9 is_stmt 1 view .LVU194
 221:libs/camera/camera.c ****         if (image_buffer[i] == 0xFF && image_buffer[i + 1] == 0xD8 && start_index == -1) {
 1006              		.loc 1 221 25 is_stmt 0 view .LVU195
 1007 0054 664A     		ldr	r2, .L83+12
 1008 0056 D25C     		ldrb	r2, [r2, r3]	@ zero_extendqisi2
 221:libs/camera/camera.c ****         if (image_buffer[i] == 0xFF && image_buffer[i + 1] == 0xD8 && start_index == -1) {
 1009              		.loc 1 221 12 view .LVU196
 1010 0058 FF2A     		cmp	r2, #255
 1011 005a EDD0     		beq	.L79
 1012              	.L54:
 223:libs/camera/camera.c ****         }
 224:libs/camera/camera.c ****         if (image_buffer[i] == 0xFF && image_buffer[i + 1] == 0xD9) {
 1013              		.loc 1 224 9 is_stmt 1 view .LVU197
 1014              		.loc 1 224 12 is_stmt 0 view .LVU198
 1015 005c FF2A     		cmp	r2, #255
 1016 005e F5D1     		bne	.L55
 1017              		.loc 1 224 55 discriminator 1 view .LVU199
 1018 0060 5A1C     		adds	r2, r3, #1
 1019              		.loc 1 224 52 discriminator 1 view .LVU200
 1020 0062 6349     		ldr	r1, .L83+12
 1021 0064 895C     		ldrb	r1, [r1, r2]	@ zero_extendqisi2
 1022              		.loc 1 224 37 discriminator 1 view .LVU201
 1023 0066 D929     		cmp	r1, #217
 1024 0068 F0D1     		bne	.L55
 1025 006a 01E0     		b	.L56
 1026              	.L78:
 1027              		.loc 1 224 37 discriminator 1 view .LVU202
 1028              	.LBE8:
 217:libs/camera/camera.c **** 
 1029              		.loc 1 217 27 view .LVU203
 1030 006c 4FF0FF32 		mov	r2, #-1
 1031              	.L56:
 1032              	.LVL97:
 225:libs/camera/camera.c ****             end_index = i + 1;
 226:libs/camera/camera.c ****             break;
 227:libs/camera/camera.c ****         }
 228:libs/camera/camera.c ****     }
 229:libs/camera/camera.c **** 
 230:libs/camera/camera.c ****     if (start_index == -1 || end_index == -1 || end_index <= start_index) {
ARM GAS  /tmp/ccUoHWVf.s 			page 25


 1033              		.loc 1 230 5 is_stmt 1 view .LVU204
 1034              		.loc 1 230 8 is_stmt 0 view .LVU205
 1035 0070 B4F1FF3F 		cmp	r4, #-1
 1036 0074 04D0     		beq	.L58
 1037              		.loc 1 230 27 discriminator 1 view .LVU206
 1038 0076 B2F1FF3F 		cmp	r2, #-1
 1039 007a 01D0     		beq	.L58
 1040              		.loc 1 230 46 discriminator 2 view .LVU207
 1041 007c 9442     		cmp	r4, r2
 1042 007e 05DB     		blt	.L59
 1043              	.L58:
 231:libs/camera/camera.c ****         printf("JPEG not found in buffer\n");
 1044              		.loc 1 231 9 is_stmt 1 view .LVU208
 1045 0080 5C48     		ldr	r0, .L83+16
 1046              	.LVL98:
 1047              		.loc 1 231 9 is_stmt 0 view .LVU209
 1048 0082 FFF7FEFF 		bl	puts
 1049              	.LVL99:
 232:libs/camera/camera.c ****         return;
 1050              		.loc 1 232 9 is_stmt 1 view .LVU210
 1051              	.L52:
 233:libs/camera/camera.c ****     }
 234:libs/camera/camera.c **** 
 235:libs/camera/camera.c ****     jpeg_length = end_index - start_index + 1;
 236:libs/camera/camera.c ****     printf("JPEG found: start=%d, end=%d, length=%lu\n", start_index, end_index, jpeg_length);
 237:libs/camera/camera.c **** 
 238:libs/camera/camera.c ****     /*------ SSDV ENCODING --------*/
 239:libs/camera/camera.c ****     ssdv_t ssdv;
 240:libs/camera/camera.c ****     uint8_t ssdv_pkt[SSDV_PKT_SIZE];
 241:libs/camera/camera.c **** 
 242:libs/camera/camera.c ****     ssdv_enc_init(&ssdv, ssdv_type, ssdv_call_sign, ssdv_image_id++, ssdv_quality);
 243:libs/camera/camera.c ****     ssdv_enc_set_buffer(&ssdv, ssdv_pkt);
 244:libs/camera/camera.c **** 
 245:libs/camera/camera.c ****     // size_t ssdv_packets_in_image = 0;
 246:libs/camera/camera.c **** 
 247:libs/camera/camera.c ****     // Flash initialization
 248:libs/camera/camera.c ****     flash_init();
 249:libs/camera/camera.c **** 
 250:libs/camera/camera.c ****     uint32_t flash_id = flash_read_id();
 251:libs/camera/camera.c ****     if (flash_id != FLASH_ID_512) {
 252:libs/camera/camera.c ****         printf("Flash not found or not matching (ID: 0x%lX)\r\n", flash_id);
 253:libs/camera/camera.c ****         while (1);
 254:libs/camera/camera.c ****     } else {
 255:libs/camera/camera.c ****         printf("Flash found (ID: 0x%lX)\r\n", flash_id);
 256:libs/camera/camera.c ****     }
 257:libs/camera/camera.c **** 
 258:libs/camera/camera.c ****     // Address for current image
 259:libs/camera/camera.c ****     uint32_t image_index = 0;  // Replace with a persistent value for multi-image storage
 260:libs/camera/camera.c ****     uint32_t ssdv_start_addr = image_index * (SSDV_PKT_SIZE * MAX_SSDV_PACKETS);
 261:libs/camera/camera.c **** 
 262:libs/camera/camera.c ****     // Erase necessary sectors
 263:libs/camera/camera.c ****     for (uint32_t addr = ssdv_start_addr; addr < (ssdv_start_addr + (SSDV_PKT_SIZE * MAX_SSDV_PACKE
 264:libs/camera/camera.c ****         flash_erase_sector(addr);
 265:libs/camera/camera.c ****     }
 266:libs/camera/camera.c **** 
 267:libs/camera/camera.c ****     // SSDV encoding and flash writing
 268:libs/camera/camera.c ****     uint32_t bi = 0;
ARM GAS  /tmp/ccUoHWVf.s 			page 26


 269:libs/camera/camera.c ****     int c;
 270:libs/camera/camera.c ****     while (1) {
 271:libs/camera/camera.c ****         while ((c = ssdv_enc_get_packet(&ssdv)) == SSDV_FEED_ME) {
 272:libs/camera/camera.c ****             uint32_t chunk_size = ((jpeg_length - bi) >= 128) ? 128 : (jpeg_length - bi);
 273:libs/camera/camera.c ****             if (chunk_size == 0) break;
 274:libs/camera/camera.c ****             ssdv_enc_feed(&ssdv, &image_buffer[start_index + bi], chunk_size);
 275:libs/camera/camera.c ****             bi += chunk_size;
 276:libs/camera/camera.c ****         }
 277:libs/camera/camera.c **** 
 278:libs/camera/camera.c ****         if (c == SSDV_EOI) {
 279:libs/camera/camera.c ****             printf("EOI Packet.\n");
 280:libs/camera/camera.c ****             break;
 281:libs/camera/camera.c ****         } else if (c == SSDV_OK) {
 282:libs/camera/camera.c ****             printf("Writing SSDV packet to flash...\n");
 283:libs/camera/camera.c ****             flash_write_buffer(ssdv_pkt, ssdv_start_addr + ssdv_packets_in_image * SSDV_PKT_SIZE, S
 284:libs/camera/camera.c ****             printf("| SSDV packet %02lu stored at address 0x%06lX |\n", ssdv_packets_in_image + 1,
 285:libs/camera/camera.c ****                    (unsigned long)(ssdv_start_addr + ssdv_packets_in_image * SSDV_PKT_SIZE));
 286:libs/camera/camera.c ****             ssdv_packets_in_image++;
 287:libs/camera/camera.c ****         } else {
 288:libs/camera/camera.c ****             printf("[SSDV] Error or unexpected result.\n");
 289:libs/camera/camera.c ****             break;
 290:libs/camera/camera.c ****         }
 291:libs/camera/camera.c ****     }
 292:libs/camera/camera.c **** 
 293:libs/camera/camera.c ****     /*------ READ BACK SSDV PACKETS --------*/
 294:libs/camera/camera.c ****     printf("\n[READING BACK %lu SSDV PACKETS FROM FLASH]\n", ssdv_packets_in_image);
 295:libs/camera/camera.c ****     for (uint32_t i = 0; i < ssdv_packets_in_image; i++) {
 296:libs/camera/camera.c ****         uint8_t buffer[SSDV_PKT_SIZE] = {0};
 297:libs/camera/camera.c ****         flash_read_buffer(buffer, ssdv_start_addr + i * SSDV_PKT_SIZE, SSDV_PKT_SIZE);
 298:libs/camera/camera.c ****         HAL_Delay(10);
 299:libs/camera/camera.c **** 
 300:libs/camera/camera.c ****         printf("Packet %02lu: ", i + 1);
 301:libs/camera/camera.c ****         for (uint16_t j = 0; j < SSDV_PKT_SIZE; j++) {
 302:libs/camera/camera.c ****             printf("0x%02X, ", buffer[j]);
 303:libs/camera/camera.c ****             if ((j + 1) % 16 == 0) printf("\n");
 304:libs/camera/camera.c ****         }
 305:libs/camera/camera.c ****         printf("\n-----------------------------\n");
 306:libs/camera/camera.c ****     }
 307:libs/camera/camera.c **** 
 308:libs/camera/camera.c ****     printf("[FLASH READ COMPLETE]\r\n");
 309:libs/camera/camera.c **** 
 310:libs/camera/camera.c ****     current_packet_index = 0;
 311:libs/camera/camera.c ****     send_all_packets = 0;
 312:libs/camera/camera.c ****     prestore_image_requested = 0;
 313:libs/camera/camera.c **** }
 1052              		.loc 1 313 1 is_stmt 0 view .LVU211
 1053 0086 0DF2DC6D 		addw	sp, sp, #1756
 1054              	.LCFI20:
 1055              		.cfi_remember_state
 1056              		.cfi_def_cfa_offset 20
 1057              		@ sp needed
 1058 008a F0BD     		pop	{r4, r5, r6, r7, pc}
 1059              	.LVL100:
 1060              	.L59:
 1061              	.LCFI21:
 1062              		.cfi_restore_state
 235:libs/camera/camera.c ****     printf("JPEG found: start=%d, end=%d, length=%lu\n", start_index, end_index, jpeg_length);
ARM GAS  /tmp/ccUoHWVf.s 			page 27


 1063              		.loc 1 235 5 is_stmt 1 view .LVU212
 235:libs/camera/camera.c ****     printf("JPEG found: start=%d, end=%d, length=%lu\n", start_index, end_index, jpeg_length);
 1064              		.loc 1 235 29 is_stmt 0 view .LVU213
 1065 008c 161B     		subs	r6, r2, r4
 235:libs/camera/camera.c ****     printf("JPEG found: start=%d, end=%d, length=%lu\n", start_index, end_index, jpeg_length);
 1066              		.loc 1 235 43 view .LVU214
 1067 008e 0136     		adds	r6, r6, #1
 1068              	.LVL101:
 236:libs/camera/camera.c **** 
 1069              		.loc 1 236 5 is_stmt 1 view .LVU215
 1070 0090 3346     		mov	r3, r6
 1071              	.LVL102:
 236:libs/camera/camera.c **** 
 1072              		.loc 1 236 5 is_stmt 0 view .LVU216
 1073 0092 2146     		mov	r1, r4
 1074 0094 5848     		ldr	r0, .L83+20
 1075              	.LVL103:
 236:libs/camera/camera.c **** 
 1076              		.loc 1 236 5 view .LVU217
 1077 0096 FFF7FEFF 		bl	printf
 1078              	.LVL104:
 239:libs/camera/camera.c ****     uint8_t ssdv_pkt[SSDV_PKT_SIZE];
 1079              		.loc 1 239 5 is_stmt 1 view .LVU218
 240:libs/camera/camera.c **** 
 1080              		.loc 1 240 5 view .LVU219
 242:libs/camera/camera.c ****     ssdv_enc_set_buffer(&ssdv, ssdv_pkt);
 1081              		.loc 1 242 5 view .LVU220
 1082 009a 584A     		ldr	r2, .L83+24
 1083 009c 1378     		ldrb	r3, [r2]	@ zero_extendqisi2
 1084 009e 591C     		adds	r1, r3, #1
 1085 00a0 1170     		strb	r1, [r2]
 1086 00a2 574A     		ldr	r2, .L83+28
 1087 00a4 92F90020 		ldrsb	r2, [r2]
 1088 00a8 0092     		str	r2, [sp]
 1089 00aa 564A     		ldr	r2, .L83+32
 1090 00ac 5649     		ldr	r1, .L83+36
 1091 00ae 0978     		ldrb	r1, [r1]	@ zero_extendqisi2
 1092 00b0 72A8     		add	r0, sp, #456
 1093 00b2 FFF7FEFF 		bl	ssdv_enc_init
 1094              	.LVL105:
 243:libs/camera/camera.c **** 
 1095              		.loc 1 243 5 view .LVU221
 1096 00b6 3AA9     		add	r1, sp, #232
 1097 00b8 72A8     		add	r0, sp, #456
 1098 00ba FFF7FEFF 		bl	ssdv_enc_set_buffer
 1099              	.LVL106:
 248:libs/camera/camera.c **** 
 1100              		.loc 1 248 5 view .LVU222
 1101 00be FFF7FEFF 		bl	flash_init
 1102              	.LVL107:
 250:libs/camera/camera.c ****     if (flash_id != FLASH_ID_512) {
 1103              		.loc 1 250 5 view .LVU223
 250:libs/camera/camera.c ****     if (flash_id != FLASH_ID_512) {
 1104              		.loc 1 250 25 is_stmt 0 view .LVU224
 1105 00c2 FFF7FEFF 		bl	flash_read_id
 1106              	.LVL108:
 1107 00c6 0146     		mov	r1, r0
ARM GAS  /tmp/ccUoHWVf.s 			page 28


 1108              	.LVL109:
 251:libs/camera/camera.c ****         printf("Flash not found or not matching (ID: 0x%lX)\r\n", flash_id);
 1109              		.loc 1 251 5 is_stmt 1 view .LVU225
 251:libs/camera/camera.c ****         printf("Flash not found or not matching (ID: 0x%lX)\r\n", flash_id);
 1110              		.loc 1 251 8 is_stmt 0 view .LVU226
 1111 00c8 504B     		ldr	r3, .L83+40
 1112 00ca 9842     		cmp	r0, r3
 1113 00cc 03D0     		beq	.L61
 252:libs/camera/camera.c ****         while (1);
 1114              		.loc 1 252 9 is_stmt 1 view .LVU227
 1115 00ce 5048     		ldr	r0, .L83+44
 1116              	.LVL110:
 252:libs/camera/camera.c ****         while (1);
 1117              		.loc 1 252 9 is_stmt 0 view .LVU228
 1118 00d0 FFF7FEFF 		bl	printf
 1119              	.LVL111:
 1120              	.L62:
 253:libs/camera/camera.c ****     } else {
 1121              		.loc 1 253 9 is_stmt 1 discriminator 1 view .LVU229
 253:libs/camera/camera.c ****     } else {
 1122              		.loc 1 253 18 discriminator 1 view .LVU230
 253:libs/camera/camera.c ****     } else {
 1123              		.loc 1 253 15 discriminator 1 view .LVU231
 1124 00d4 FEE7     		b	.L62
 1125              	.LVL112:
 1126              	.L61:
 255:libs/camera/camera.c ****     }
 1127              		.loc 1 255 9 view .LVU232
 1128 00d6 4F48     		ldr	r0, .L83+48
 1129              	.LVL113:
 255:libs/camera/camera.c ****     }
 1130              		.loc 1 255 9 is_stmt 0 view .LVU233
 1131 00d8 FFF7FEFF 		bl	printf
 1132              	.LVL114:
 259:libs/camera/camera.c ****     uint32_t ssdv_start_addr = image_index * (SSDV_PKT_SIZE * MAX_SSDV_PACKETS);
 1133              		.loc 1 259 5 is_stmt 1 view .LVU234
 260:libs/camera/camera.c **** 
 1134              		.loc 1 260 5 view .LVU235
 263:libs/camera/camera.c ****         flash_erase_sector(addr);
 1135              		.loc 1 263 5 view .LVU236
 1136              	.LBB9:
 263:libs/camera/camera.c ****         flash_erase_sector(addr);
 1137              		.loc 1 263 10 view .LVU237
 263:libs/camera/camera.c ****         flash_erase_sector(addr);
 1138              		.loc 1 263 19 is_stmt 0 view .LVU238
 1139 00dc 0025     		movs	r5, #0
 263:libs/camera/camera.c ****         flash_erase_sector(addr);
 1140              		.loc 1 263 5 view .LVU239
 1141 00de 04E0     		b	.L63
 1142              	.LVL115:
 1143              	.L64:
 264:libs/camera/camera.c ****     }
 1144              		.loc 1 264 9 is_stmt 1 discriminator 3 view .LVU240
 1145 00e0 2846     		mov	r0, r5
 1146 00e2 FFF7FEFF 		bl	flash_erase_sector
 1147              	.LVL116:
 263:libs/camera/camera.c ****         flash_erase_sector(addr);
ARM GAS  /tmp/ccUoHWVf.s 			page 29


 1148              		.loc 1 263 106 discriminator 3 view .LVU241
 263:libs/camera/camera.c ****         flash_erase_sector(addr);
 1149              		.loc 1 263 111 is_stmt 0 discriminator 3 view .LVU242
 1150 00e6 05F58055 		add	r5, r5, #4096
 1151              	.LVL117:
 1152              	.L63:
 263:libs/camera/camera.c ****         flash_erase_sector(addr);
 1153              		.loc 1 263 43 is_stmt 1 discriminator 1 view .LVU243
 263:libs/camera/camera.c ****         flash_erase_sector(addr);
 1154              		.loc 1 263 5 is_stmt 0 discriminator 1 view .LVU244
 1155 00ea 42F25F73 		movw	r3, #10079
 1156 00ee 9D42     		cmp	r5, r3
 1157 00f0 F6D9     		bls	.L64
 1158              	.LBE9:
 268:libs/camera/camera.c ****     int c;
 1159              		.loc 1 268 14 view .LVU245
 1160 00f2 0027     		movs	r7, #0
 1161 00f4 1AE0     		b	.L65
 1162              	.LVL118:
 1163              	.L66:
 278:libs/camera/camera.c ****             printf("EOI Packet.\n");
 1164              		.loc 1 278 9 is_stmt 1 view .LVU246
 278:libs/camera/camera.c ****             printf("EOI Packet.\n");
 1165              		.loc 1 278 12 is_stmt 0 view .LVU247
 1166 00f6 0428     		cmp	r0, #4
 1167 00f8 2CD0     		beq	.L80
 281:libs/camera/camera.c ****             printf("Writing SSDV packet to flash...\n");
 1168              		.loc 1 281 16 is_stmt 1 view .LVU248
 281:libs/camera/camera.c ****             printf("Writing SSDV packet to flash...\n");
 1169              		.loc 1 281 19 is_stmt 0 view .LVU249
 1170 00fa 0028     		cmp	r0, #0
 1171 00fc 34D1     		bne	.L70
 282:libs/camera/camera.c ****             flash_write_buffer(ssdv_pkt, ssdv_start_addr + ssdv_packets_in_image * SSDV_PKT_SIZE, S
 1172              		.loc 1 282 13 is_stmt 1 view .LVU250
 1173 00fe 4648     		ldr	r0, .L83+52
 1174              	.LVL119:
 282:libs/camera/camera.c ****             flash_write_buffer(ssdv_pkt, ssdv_start_addr + ssdv_packets_in_image * SSDV_PKT_SIZE, S
 1175              		.loc 1 282 13 is_stmt 0 view .LVU251
 1176 0100 FFF7FEFF 		bl	puts
 1177              	.LVL120:
 283:libs/camera/camera.c ****             printf("| SSDV packet %02lu stored at address 0x%06lX |\n", ssdv_packets_in_image + 1,
 1178              		.loc 1 283 13 is_stmt 1 view .LVU252
 283:libs/camera/camera.c ****             printf("| SSDV packet %02lu stored at address 0x%06lX |\n", ssdv_packets_in_image + 1,
 1179              		.loc 1 283 82 is_stmt 0 view .LVU253
 1180 0104 454D     		ldr	r5, .L83+56
 1181 0106 2968     		ldr	r1, [r5]
 1182 0108 C1EBC101 		rsb	r1, r1, r1, lsl #3
 283:libs/camera/camera.c ****             printf("| SSDV packet %02lu stored at address 0x%06lX |\n", ssdv_packets_in_image + 1,
 1183              		.loc 1 283 13 view .LVU254
 1184 010c E022     		movs	r2, #224
 1185 010e 4901     		lsls	r1, r1, #5
 1186 0110 3AA8     		add	r0, sp, #232
 1187 0112 FFF7FEFF 		bl	flash_write_buffer
 1188              	.LVL121:
 284:libs/camera/camera.c ****                    (unsigned long)(ssdv_start_addr + ssdv_packets_in_image * SSDV_PKT_SIZE));
 1189              		.loc 1 284 13 is_stmt 1 view .LVU255
 1190 0116 2968     		ldr	r1, [r5]
ARM GAS  /tmp/ccUoHWVf.s 			page 30


 285:libs/camera/camera.c ****             ssdv_packets_in_image++;
 1191              		.loc 1 285 76 is_stmt 0 view .LVU256
 1192 0118 C1EBC102 		rsb	r2, r1, r1, lsl #3
 284:libs/camera/camera.c ****                    (unsigned long)(ssdv_start_addr + ssdv_packets_in_image * SSDV_PKT_SIZE));
 1193              		.loc 1 284 13 view .LVU257
 1194 011c 5201     		lsls	r2, r2, #5
 1195 011e 0131     		adds	r1, r1, #1
 1196 0120 3F48     		ldr	r0, .L83+60
 1197 0122 FFF7FEFF 		bl	printf
 1198              	.LVL122:
 286:libs/camera/camera.c ****         } else {
 1199              		.loc 1 286 13 is_stmt 1 view .LVU258
 286:libs/camera/camera.c ****         } else {
 1200              		.loc 1 286 34 is_stmt 0 view .LVU259
 1201 0126 2B68     		ldr	r3, [r5]
 1202 0128 0133     		adds	r3, r3, #1
 1203 012a 2B60     		str	r3, [r5]
 270:libs/camera/camera.c ****         while ((c = ssdv_enc_get_packet(&ssdv)) == SSDV_FEED_ME) {
 1204              		.loc 1 270 11 is_stmt 1 view .LVU260
 1205              	.LVL123:
 1206              	.L65:
 271:libs/camera/camera.c ****             uint32_t chunk_size = ((jpeg_length - bi) >= 128) ? 128 : (jpeg_length - bi);
 1207              		.loc 1 271 15 view .LVU261
 271:libs/camera/camera.c ****             uint32_t chunk_size = ((jpeg_length - bi) >= 128) ? 128 : (jpeg_length - bi);
 1208              		.loc 1 271 21 is_stmt 0 view .LVU262
 1209 012c 72A8     		add	r0, sp, #456
 1210 012e FFF7FEFF 		bl	ssdv_enc_get_packet
 1211              	.LVL124:
 271:libs/camera/camera.c ****             uint32_t chunk_size = ((jpeg_length - bi) >= 128) ? 128 : (jpeg_length - bi);
 1212              		.loc 1 271 15 view .LVU263
 1213 0132 0128     		cmp	r0, #1
 1214 0134 DFD1     		bne	.L66
 1215              	.LBB10:
 272:libs/camera/camera.c ****             if (chunk_size == 0) break;
 1216              		.loc 1 272 13 is_stmt 1 view .LVU264
 272:libs/camera/camera.c ****             if (chunk_size == 0) break;
 1217              		.loc 1 272 49 is_stmt 0 view .LVU265
 1218 0136 F51B     		subs	r5, r6, r7
 272:libs/camera/camera.c ****             if (chunk_size == 0) break;
 1219              		.loc 1 272 22 view .LVU266
 1220 0138 802D     		cmp	r5, #128
 1221 013a 28BF     		it	cs
 1222 013c 8025     		movcs	r5, #128
 1223              	.LVL125:
 273:libs/camera/camera.c ****             ssdv_enc_feed(&ssdv, &image_buffer[start_index + bi], chunk_size);
 1224              		.loc 1 273 13 is_stmt 1 view .LVU267
 273:libs/camera/camera.c ****             ssdv_enc_feed(&ssdv, &image_buffer[start_index + bi], chunk_size);
 1225              		.loc 1 273 16 is_stmt 0 view .LVU268
 1226 013e B742     		cmp	r7, r6
 1227 0140 D9D0     		beq	.L66
 274:libs/camera/camera.c ****             bi += chunk_size;
 1228              		.loc 1 274 13 is_stmt 1 view .LVU269
 274:libs/camera/camera.c ****             bi += chunk_size;
 1229              		.loc 1 274 60 is_stmt 0 view .LVU270
 1230 0142 E319     		adds	r3, r4, r7
 274:libs/camera/camera.c ****             bi += chunk_size;
 1231              		.loc 1 274 13 view .LVU271
ARM GAS  /tmp/ccUoHWVf.s 			page 31


 1232 0144 2A46     		mov	r2, r5
 1233 0146 2A49     		ldr	r1, .L83+12
 1234 0148 1944     		add	r1, r1, r3
 1235 014a 72A8     		add	r0, sp, #456
 1236              	.LVL126:
 274:libs/camera/camera.c ****             bi += chunk_size;
 1237              		.loc 1 274 13 view .LVU272
 1238 014c FFF7FEFF 		bl	ssdv_enc_feed
 1239              	.LVL127:
 275:libs/camera/camera.c ****         }
 1240              		.loc 1 275 13 is_stmt 1 view .LVU273
 275:libs/camera/camera.c ****         }
 1241              		.loc 1 275 16 is_stmt 0 view .LVU274
 1242 0150 2F44     		add	r7, r7, r5
 1243              	.LVL128:
 275:libs/camera/camera.c ****         }
 1244              		.loc 1 275 16 view .LVU275
 1245 0152 EBE7     		b	.L65
 1246              	.LVL129:
 1247              	.L80:
 275:libs/camera/camera.c ****         }
 1248              		.loc 1 275 16 view .LVU276
 1249              	.LBE10:
 279:libs/camera/camera.c ****             break;
 1250              		.loc 1 279 13 is_stmt 1 view .LVU277
 1251 0154 3348     		ldr	r0, .L83+64
 1252              	.LVL130:
 279:libs/camera/camera.c ****             break;
 1253              		.loc 1 279 13 is_stmt 0 view .LVU278
 1254 0156 FFF7FEFF 		bl	puts
 1255              	.LVL131:
 280:libs/camera/camera.c ****         } else if (c == SSDV_OK) {
 1256              		.loc 1 280 13 is_stmt 1 view .LVU279
 1257              	.L69:
 294:libs/camera/camera.c ****     for (uint32_t i = 0; i < ssdv_packets_in_image; i++) {
 1258              		.loc 1 294 5 view .LVU280
 1259 015a 304B     		ldr	r3, .L83+56
 1260 015c 1968     		ldr	r1, [r3]
 1261 015e 3248     		ldr	r0, .L83+68
 1262 0160 FFF7FEFF 		bl	printf
 1263              	.LVL132:
 295:libs/camera/camera.c ****         uint8_t buffer[SSDV_PKT_SIZE] = {0};
 1264              		.loc 1 295 5 view .LVU281
 1265              	.LBB11:
 295:libs/camera/camera.c ****         uint8_t buffer[SSDV_PKT_SIZE] = {0};
 1266              		.loc 1 295 10 view .LVU282
 295:libs/camera/camera.c ****         uint8_t buffer[SSDV_PKT_SIZE] = {0};
 1267              		.loc 1 295 19 is_stmt 0 view .LVU283
 1268 0164 0025     		movs	r5, #0
 295:libs/camera/camera.c ****         uint8_t buffer[SSDV_PKT_SIZE] = {0};
 1269              		.loc 1 295 5 view .LVU284
 1270 0166 17E0     		b	.L72
 1271              	.LVL133:
 1272              	.L70:
 295:libs/camera/camera.c ****         uint8_t buffer[SSDV_PKT_SIZE] = {0};
 1273              		.loc 1 295 5 view .LVU285
 1274              	.LBE11:
ARM GAS  /tmp/ccUoHWVf.s 			page 32


 288:libs/camera/camera.c ****             break;
 1275              		.loc 1 288 13 is_stmt 1 view .LVU286
 1276 0168 3048     		ldr	r0, .L83+72
 1277              	.LVL134:
 288:libs/camera/camera.c ****             break;
 1278              		.loc 1 288 13 is_stmt 0 view .LVU287
 1279 016a FFF7FEFF 		bl	puts
 1280              	.LVL135:
 289:libs/camera/camera.c ****         }
 1281              		.loc 1 289 13 is_stmt 1 view .LVU288
 1282 016e F4E7     		b	.L69
 1283              	.LVL136:
 1284              	.L74:
 1285              	.LBB16:
 1286              	.LBB12:
 1287              	.LBB13:
 301:libs/camera/camera.c ****             printf("0x%02X, ", buffer[j]);
 1288              		.loc 1 301 49 discriminator 2 view .LVU289
 301:libs/camera/camera.c ****             printf("0x%02X, ", buffer[j]);
 1289              		.loc 1 301 50 is_stmt 0 discriminator 2 view .LVU290
 1290 0170 0134     		adds	r4, r4, #1
 1291              	.LVL137:
 301:libs/camera/camera.c ****             printf("0x%02X, ", buffer[j]);
 1292              		.loc 1 301 50 discriminator 2 view .LVU291
 1293 0172 A4B2     		uxth	r4, r4
 1294              	.LVL138:
 1295              	.L73:
 301:libs/camera/camera.c ****             printf("0x%02X, ", buffer[j]);
 1296              		.loc 1 301 30 is_stmt 1 discriminator 1 view .LVU292
 301:libs/camera/camera.c ****             printf("0x%02X, ", buffer[j]);
 1297              		.loc 1 301 9 is_stmt 0 discriminator 1 view .LVU293
 1298 0174 DF2C     		cmp	r4, #223
 1299 0176 0CD8     		bhi	.L81
 302:libs/camera/camera.c ****             if ((j + 1) % 16 == 0) printf("\n");
 1300              		.loc 1 302 13 is_stmt 1 view .LVU294
 1301 0178 02AB     		add	r3, sp, #8
 1302 017a 195D     		ldrb	r1, [r3, r4]	@ zero_extendqisi2
 1303 017c 2C48     		ldr	r0, .L83+76
 1304 017e FFF7FEFF 		bl	printf
 1305              	.LVL139:
 303:libs/camera/camera.c ****         }
 1306              		.loc 1 303 13 view .LVU295
 303:libs/camera/camera.c ****         }
 1307              		.loc 1 303 20 is_stmt 0 view .LVU296
 1308 0182 631C     		adds	r3, r4, #1
 303:libs/camera/camera.c ****         }
 1309              		.loc 1 303 16 view .LVU297
 1310 0184 13F00F0F 		tst	r3, #15
 1311 0188 F2D1     		bne	.L74
 303:libs/camera/camera.c ****         }
 1312              		.loc 1 303 36 is_stmt 1 discriminator 1 view .LVU298
 1313 018a 0A20     		movs	r0, #10
 1314 018c FFF7FEFF 		bl	putchar
 1315              	.LVL140:
 1316 0190 EEE7     		b	.L74
 1317              	.L81:
 1318              	.LBE13:
ARM GAS  /tmp/ccUoHWVf.s 			page 33


 305:libs/camera/camera.c ****     }
 1319              		.loc 1 305 9 discriminator 2 view .LVU299
 1320 0192 2848     		ldr	r0, .L83+80
 1321 0194 FFF7FEFF 		bl	puts
 1322              	.LVL141:
 1323              	.LBE12:
 295:libs/camera/camera.c ****         uint8_t buffer[SSDV_PKT_SIZE] = {0};
 1324              		.loc 1 295 53 discriminator 2 view .LVU300
 1325              	.L72:
 295:libs/camera/camera.c ****         uint8_t buffer[SSDV_PKT_SIZE] = {0};
 1326              		.loc 1 295 26 discriminator 1 view .LVU301
 295:libs/camera/camera.c ****         uint8_t buffer[SSDV_PKT_SIZE] = {0};
 1327              		.loc 1 295 28 is_stmt 0 discriminator 1 view .LVU302
 1328 0198 204B     		ldr	r3, .L83+56
 1329 019a 1B68     		ldr	r3, [r3]
 295:libs/camera/camera.c ****         uint8_t buffer[SSDV_PKT_SIZE] = {0};
 1330              		.loc 1 295 5 discriminator 1 view .LVU303
 1331 019c AB42     		cmp	r3, r5
 1332 019e 16D9     		bls	.L82
 1333              	.LBB15:
 296:libs/camera/camera.c ****         flash_read_buffer(buffer, ssdv_start_addr + i * SSDV_PKT_SIZE, SSDV_PKT_SIZE);
 1334              		.loc 1 296 9 is_stmt 1 view .LVU304
 296:libs/camera/camera.c ****         flash_read_buffer(buffer, ssdv_start_addr + i * SSDV_PKT_SIZE, SSDV_PKT_SIZE);
 1335              		.loc 1 296 17 is_stmt 0 view .LVU305
 1336 01a0 0024     		movs	r4, #0
 1337 01a2 0294     		str	r4, [sp, #8]
 1338 01a4 DC22     		movs	r2, #220
 1339 01a6 2146     		mov	r1, r4
 1340 01a8 03A8     		add	r0, sp, #12
 1341 01aa FFF7FEFF 		bl	memset
 1342              	.LVL142:
 297:libs/camera/camera.c ****         HAL_Delay(10);
 1343              		.loc 1 297 9 is_stmt 1 view .LVU306
 297:libs/camera/camera.c ****         HAL_Delay(10);
 1344              		.loc 1 297 55 is_stmt 0 view .LVU307
 1345 01ae C5EBC501 		rsb	r1, r5, r5, lsl #3
 297:libs/camera/camera.c ****         HAL_Delay(10);
 1346              		.loc 1 297 9 view .LVU308
 1347 01b2 E022     		movs	r2, #224
 1348 01b4 4901     		lsls	r1, r1, #5
 1349 01b6 02A8     		add	r0, sp, #8
 1350 01b8 FFF7FEFF 		bl	flash_read_buffer
 1351              	.LVL143:
 298:libs/camera/camera.c **** 
 1352              		.loc 1 298 9 is_stmt 1 view .LVU309
 1353 01bc 0A20     		movs	r0, #10
 1354 01be FFF7FEFF 		bl	HAL_Delay
 1355              	.LVL144:
 300:libs/camera/camera.c ****         for (uint16_t j = 0; j < SSDV_PKT_SIZE; j++) {
 1356              		.loc 1 300 9 view .LVU310
 1357 01c2 0135     		adds	r5, r5, #1
 1358              	.LVL145:
 300:libs/camera/camera.c ****         for (uint16_t j = 0; j < SSDV_PKT_SIZE; j++) {
 1359              		.loc 1 300 9 is_stmt 0 view .LVU311
 1360 01c4 2946     		mov	r1, r5
 1361 01c6 1C48     		ldr	r0, .L83+84
 1362 01c8 FFF7FEFF 		bl	printf
ARM GAS  /tmp/ccUoHWVf.s 			page 34


 1363              	.LVL146:
 301:libs/camera/camera.c ****             printf("0x%02X, ", buffer[j]);
 1364              		.loc 1 301 9 is_stmt 1 view .LVU312
 1365              	.LBB14:
 301:libs/camera/camera.c ****             printf("0x%02X, ", buffer[j]);
 1366              		.loc 1 301 14 view .LVU313
 301:libs/camera/camera.c ****             printf("0x%02X, ", buffer[j]);
 1367              		.loc 1 301 9 is_stmt 0 view .LVU314
 1368 01cc D2E7     		b	.L73
 1369              	.LVL147:
 1370              	.L82:
 301:libs/camera/camera.c ****             printf("0x%02X, ", buffer[j]);
 1371              		.loc 1 301 9 view .LVU315
 1372              	.LBE14:
 1373              	.LBE15:
 1374              	.LBE16:
 308:libs/camera/camera.c **** 
 1375              		.loc 1 308 5 is_stmt 1 view .LVU316
 1376 01ce 1B48     		ldr	r0, .L83+88
 1377 01d0 FFF7FEFF 		bl	puts
 1378              	.LVL148:
 310:libs/camera/camera.c ****     send_all_packets = 0;
 1379              		.loc 1 310 5 view .LVU317
 310:libs/camera/camera.c ****     send_all_packets = 0;
 1380              		.loc 1 310 26 is_stmt 0 view .LVU318
 1381 01d4 0023     		movs	r3, #0
 1382 01d6 034A     		ldr	r2, .L83
 1383 01d8 1380     		strh	r3, [r2]	@ movhi
 311:libs/camera/camera.c ****     prestore_image_requested = 0;
 1384              		.loc 1 311 5 is_stmt 1 view .LVU319
 311:libs/camera/camera.c ****     prestore_image_requested = 0;
 1385              		.loc 1 311 22 is_stmt 0 view .LVU320
 1386 01da 194A     		ldr	r2, .L83+92
 1387 01dc 1370     		strb	r3, [r2]
 312:libs/camera/camera.c **** }
 1388              		.loc 1 312 5 is_stmt 1 view .LVU321
 312:libs/camera/camera.c **** }
 1389              		.loc 1 312 30 is_stmt 0 view .LVU322
 1390 01de 194A     		ldr	r2, .L83+96
 1391 01e0 1370     		strb	r3, [r2]
 1392 01e2 50E7     		b	.L52
 1393              	.L84:
 1394              		.align	2
 1395              	.L83:
 1396 01e4 00000000 		.word	current_packet_index
 1397 01e8 00000000 		.word	.LC7
 1398 01ec 1C000000 		.word	.LC8
 1399 01f0 00000000 		.word	image_buffer
 1400 01f4 38000000 		.word	.LC9
 1401 01f8 54000000 		.word	.LC10
 1402 01fc 00000000 		.word	.LANCHOR1
 1403 0200 00000000 		.word	.LANCHOR3
 1404 0204 00000000 		.word	.LANCHOR2
 1405 0208 00000000 		.word	.LANCHOR0
 1406 020c 2040EF00 		.word	15679520
 1407 0210 80000000 		.word	.LC11
 1408 0214 B0000000 		.word	.LC12
ARM GAS  /tmp/ccUoHWVf.s 			page 35


 1409 0218 D8000000 		.word	.LC14
 1410 021c 00000000 		.word	.LANCHOR4
 1411 0220 F8000000 		.word	.LC15
 1412 0224 CC000000 		.word	.LC13
 1413 0228 50010000 		.word	.LC17
 1414 022c 2C010000 		.word	.LC16
 1415 0230 90010000 		.word	.LC19
 1416 0234 9C010000 		.word	.LC20
 1417 0238 80010000 		.word	.LC18
 1418 023c BC010000 		.word	.LC21
 1419 0240 00000000 		.word	send_all_packets
 1420 0244 00000000 		.word	prestore_image_requested
 1421              		.cfi_endproc
 1422              	.LFE80:
 1424              		.global	ssdv_quality
 1425              		.global	ssdv_image_id
 1426              		.global	ssdv_call_sign
 1427              		.global	ssdv_type
 1428              		.global	ssdv_start_addr
 1429              		.global	ssdv_packets_in_image
 1430              		.global	jpeg_size
 1431              		.global	image_buffer
 1432              		.section	.bss.image_buffer,"aw",%nobits
 1433              		.align	2
 1436              	image_buffer:
 1437 0000 00000000 		.space	15000
 1437      00000000 
 1437      00000000 
 1437      00000000 
 1437      00000000 
 1438              		.section	.bss.jpeg_size,"aw",%nobits
 1439              		.align	2
 1442              	jpeg_size:
 1443 0000 00000000 		.space	4
 1444              		.section	.bss.ssdv_image_id,"aw",%nobits
 1445              		.set	.LANCHOR1,. + 0
 1448              	ssdv_image_id:
 1449 0000 00       		.space	1
 1450              		.section	.bss.ssdv_packets_in_image,"aw",%nobits
 1451              		.align	2
 1452              		.set	.LANCHOR4,. + 0
 1455              	ssdv_packets_in_image:
 1456 0000 00000000 		.space	4
 1457              		.section	.bss.ssdv_start_addr,"aw",%nobits
 1458              		.align	2
 1461              	ssdv_start_addr:
 1462 0000 00000000 		.space	4
 1463              		.section	.bss.ssdv_type,"aw",%nobits
 1464              		.set	.LANCHOR0,. + 0
 1467              	ssdv_type:
 1468 0000 00       		.space	1
 1469              		.section	.data.ssdv_call_sign,"aw"
 1470              		.align	2
 1471              		.set	.LANCHOR2,. + 0
 1474              	ssdv_call_sign:
 1475 0000 43414C53 		.ascii	"CALSIGN"
 1475      49474E
ARM GAS  /tmp/ccUoHWVf.s 			page 36


 1476              		.section	.data.ssdv_quality,"aw"
 1477              		.set	.LANCHOR3,. + 0
 1480              	ssdv_quality:
 1481 0000 04       		.byte	4
 1482              		.text
 1483              	.Letext0:
 1484              		.file 2 "/usr/lib/gcc/arm-none-eabi/10.3.1/include/stdint.h"
 1485              		.file 3 "Drivers/CMSIS/Device/ST/STM32F1xx/Include/stm32f103xb.h"
 1486              		.file 4 "/usr/lib/gcc/arm-none-eabi/10.3.1/include/stddef.h"
 1487              		.file 5 "Drivers/STM32F1xx_HAL_Driver/Inc/stm32f1xx_hal_def.h"
 1488              		.file 6 "Drivers/STM32F1xx_HAL_Driver/Inc/stm32f1xx_hal_gpio.h"
 1489              		.file 7 "Drivers/STM32F1xx_HAL_Driver/Inc/stm32f1xx_hal_dma.h"
 1490              		.file 8 "Drivers/STM32F1xx_HAL_Driver/Inc/stm32f1xx_hal_spi.h"
 1491              		.file 9 "libs/ssdv/ssdv.h"
 1492              		.file 10 "libs/camera/camera.h"
 1493              		.file 11 "Core/Inc/i2c_slave.h"
 1494              		.file 12 "libs/flash/flash.h"
 1495              		.file 13 "/usr/include/newlib/stdio.h"
 1496              		.file 14 "<built-in>"
 1497              		.file 15 "Drivers/STM32F1xx_HAL_Driver/Inc/stm32f1xx_hal.h"
ARM GAS  /tmp/ccUoHWVf.s 			page 37

