ARM GAS  /tmp/ccbvXVXe.s 			page 1


   1              		.cpu cortex-m3
   2              		.eabi_attribute 20, 1
   3              		.eabi_attribute 21, 1
   4              		.eabi_attribute 23, 3
   5              		.eabi_attribute 24, 1
   6              		.eabi_attribute 25, 1
   7              		.eabi_attribute 26, 1
   8              		.eabi_attribute 30, 1
   9              		.eabi_attribute 34, 1
  10              		.eabi_attribute 18, 4
  11              		.file	"i2c_slave.c"
  12              		.text
  13              	.Ltext0:
  14              		.cfi_sections	.debug_frame
  15              		.section	.text.HAL_I2C_ListenCpltCallback,"ax",%progbits
  16              		.align	1
  17              		.global	HAL_I2C_ListenCpltCallback
  18              		.arch armv7-m
  19              		.syntax unified
  20              		.thumb
  21              		.thumb_func
  22              		.fpu softvfp
  24              	HAL_I2C_ListenCpltCallback:
  25              	.LVL0:
  26              	.LFB68:
  27              		.file 1 "Core/Src/i2c_slave.c"
   1:Core/Src/i2c_slave.c **** #include "main.h"
   2:Core/Src/i2c_slave.c **** #include "i2c_slave.h"
   3:Core/Src/i2c_slave.c **** #include "camera.h"
   4:Core/Src/i2c_slave.c **** #include "test_card_ssdv.h"
   5:Core/Src/i2c_slave.c **** #include "watchdog.h"
   6:Core/Src/i2c_slave.c **** 
   7:Core/Src/i2c_slave.c **** #define CAM_BRIGHTNESS_LEVEL_CMD  0x30
   8:Core/Src/i2c_slave.c **** #define CAM_SHARPNESS_LEVEL_CMD   0x40
   9:Core/Src/i2c_slave.c **** #define CAM_CONTRAST_LEVEL_CMD    0x50
  10:Core/Src/i2c_slave.c **** #define CAM_EV_LEVEL_CMD          0x60
  11:Core/Src/i2c_slave.c **** #define CAM_STAURATION_LEVEL_CMD  0x70
  12:Core/Src/i2c_slave.c **** #define CAM_COLOR_FX_CMD          0x80
  13:Core/Src/i2c_slave.c **** #define CAM_SIZE_CMD              0x81
  14:Core/Src/i2c_slave.c **** 
  15:Core/Src/i2c_slave.c **** 
  16:Core/Src/i2c_slave.c **** 
  17:Core/Src/i2c_slave.c **** volatile CAM_BRIGHTNESS_LEVEL lvl = 0;
  18:Core/Src/i2c_slave.c **** volatile CAM_SHARPNESS_LEVEL shrp_lvl = 0;
  19:Core/Src/i2c_slave.c **** volatile CAM_CONTRAST_LEVEL contra_lvl = 0;
  20:Core/Src/i2c_slave.c **** volatile CAM_EV_LEVEL exposure_lvl = 0;
  21:Core/Src/i2c_slave.c **** volatile CAM_STAURATION_LEVEL saturation_lvl = 0;
  22:Core/Src/i2c_slave.c **** volatile CAM_COLOR_FX effect = 0;
  23:Core/Src/i2c_slave.c **** volatile CAM_IMAGE_MODE cam_size = CAM_IMAGE_MODE_128X128;
  24:Core/Src/i2c_slave.c **** 
  25:Core/Src/i2c_slave.c **** volatile uint8_t capture_requested = 0;
  26:Core/Src/i2c_slave.c **** volatile uint8_t prestore_image_requested = 0;
  27:Core/Src/i2c_slave.c **** 
  28:Core/Src/i2c_slave.c **** volatile uint8_t send_all_packets = 0;
  29:Core/Src/i2c_slave.c **** volatile uint16_t current_packet_index = 0;
  30:Core/Src/i2c_slave.c **** 
  31:Core/Src/i2c_slave.c **** extern uint32_t ssdv_start_addr;
ARM GAS  /tmp/ccbvXVXe.s 			page 2


  32:Core/Src/i2c_slave.c **** extern uint32_t ssdv_packets_in_image;
  33:Core/Src/i2c_slave.c **** 
  34:Core/Src/i2c_slave.c **** extern I2C_HandleTypeDef hi2c2;
  35:Core/Src/i2c_slave.c **** #define RxSize 2
  36:Core/Src/i2c_slave.c **** uint8_t RxData[RxSize];
  37:Core/Src/i2c_slave.c **** 
  38:Core/Src/i2c_slave.c **** uint32_t last_i2c_activity = 0; // ⬅️ Added for timeout tracking
  39:Core/Src/i2c_slave.c **** 
  40:Core/Src/i2c_slave.c **** 
  41:Core/Src/i2c_slave.c **** void HAL_I2C_ListenCpltCallback(I2C_HandleTypeDef *hi2c)
  42:Core/Src/i2c_slave.c **** {
  28              		.loc 1 42 1 view -0
  29              		.cfi_startproc
  30              		@ args = 0, pretend = 0, frame = 0
  31              		@ frame_needed = 0, uses_anonymous_args = 0
  32              		.loc 1 42 1 is_stmt 0 view .LVU1
  33 0000 08B5     		push	{r3, lr}
  34              	.LCFI0:
  35              		.cfi_def_cfa_offset 8
  36              		.cfi_offset 3, -8
  37              		.cfi_offset 14, -4
  43:Core/Src/i2c_slave.c ****     HAL_I2C_EnableListen_IT(hi2c);
  38              		.loc 1 43 5 is_stmt 1 view .LVU2
  39 0002 FFF7FEFF 		bl	HAL_I2C_EnableListen_IT
  40              	.LVL1:
  44:Core/Src/i2c_slave.c **** }
  41              		.loc 1 44 1 is_stmt 0 view .LVU3
  42 0006 08BD     		pop	{r3, pc}
  43              		.cfi_endproc
  44              	.LFE68:
  46              		.section	.text.HAL_I2C_ErrorCallback,"ax",%progbits
  47              		.align	1
  48              		.global	HAL_I2C_ErrorCallback
  49              		.syntax unified
  50              		.thumb
  51              		.thumb_func
  52              		.fpu softvfp
  54              	HAL_I2C_ErrorCallback:
  55              	.LVL2:
  56              	.LFB69:
  45:Core/Src/i2c_slave.c **** 
  46:Core/Src/i2c_slave.c **** 
  47:Core/Src/i2c_slave.c **** void HAL_I2C_ErrorCallback(I2C_HandleTypeDef *hi2c)
  48:Core/Src/i2c_slave.c **** {
  57              		.loc 1 48 1 is_stmt 1 view -0
  58              		.cfi_startproc
  59              		@ args = 0, pretend = 0, frame = 0
  60              		@ frame_needed = 0, uses_anonymous_args = 0
  61              		.loc 1 48 1 is_stmt 0 view .LVU5
  62 0000 08B5     		push	{r3, lr}
  63              	.LCFI1:
  64              		.cfi_def_cfa_offset 8
  65              		.cfi_offset 3, -8
  66              		.cfi_offset 14, -4
  49:Core/Src/i2c_slave.c ****     HAL_I2C_EnableListen_IT(hi2c);
  67              		.loc 1 49 5 is_stmt 1 view .LVU6
  68 0002 FFF7FEFF 		bl	HAL_I2C_EnableListen_IT
ARM GAS  /tmp/ccbvXVXe.s 			page 3


  69              	.LVL3:
  50:Core/Src/i2c_slave.c **** }
  70              		.loc 1 50 1 is_stmt 0 view .LVU7
  71 0006 08BD     		pop	{r3, pc}
  72              		.cfi_endproc
  73              	.LFE69:
  75              		.section	.rodata.HAL_I2C_AddrCallback.str1.4,"aMS",%progbits,1
  76              		.align	2
  77              	.LC0:
  78 0000 53656E74 		.ascii	"Sent test SSDV packet %d\012\000"
  78      20746573 
  78      74205353 
  78      44562070 
  78      61636B65 
  79 001a 0000     		.align	2
  80              	.LC1:
  81 001c 53656E74 		.ascii	"Sent flash SSDV packet %d\012\000"
  81      20666C61 
  81      73682053 
  81      53445620 
  81      7061636B 
  82              		.section	.text.HAL_I2C_AddrCallback,"ax",%progbits
  83              		.align	1
  84              		.global	HAL_I2C_AddrCallback
  85              		.syntax unified
  86              		.thumb
  87              		.thumb_func
  88              		.fpu softvfp
  90              	HAL_I2C_AddrCallback:
  91              	.LVL4:
  92              	.LFB70:
  51:Core/Src/i2c_slave.c **** 
  52:Core/Src/i2c_slave.c **** // void check_i2c_timeout()
  53:Core/Src/i2c_slave.c **** // {
  54:Core/Src/i2c_slave.c **** //     if (HAL_GetTick() - last_i2c_activity > 3000) // 3 seconds no I2C activity
  55:Core/Src/i2c_slave.c **** //     {
  56:Core/Src/i2c_slave.c **** //         if (__HAL_I2C_GET_FLAG(&hi2c2, I2C_FLAG_BUSY))
  57:Core/Src/i2c_slave.c **** //         {
  58:Core/Src/i2c_slave.c **** //             printf("I2C bus stuck, resetting...\r\n");
  59:Core/Src/i2c_slave.c **** //             __HAL_RCC_I2C2_FORCE_RESET();
  60:Core/Src/i2c_slave.c **** //             HAL_Delay(1);
  61:Core/Src/i2c_slave.c **** //             __HAL_RCC_I2C2_RELEASE_RESET();
  62:Core/Src/i2c_slave.c **** //             MX_I2C2_Init();  // Your re-init function
  63:Core/Src/i2c_slave.c **** //             HAL_I2C_EnableListen_IT(&hi2c2);
  64:Core/Src/i2c_slave.c **** 
  65:Core/Src/i2c_slave.c **** //             // Optional: clear flags
  66:Core/Src/i2c_slave.c **** //             capture_requested = 0;
  67:Core/Src/i2c_slave.c **** //             send_all_packets = 0;
  68:Core/Src/i2c_slave.c **** //             prestore_image_requested = 0;
  69:Core/Src/i2c_slave.c **** //             current_packet_index = 0;
  70:Core/Src/i2c_slave.c **** //         }
  71:Core/Src/i2c_slave.c **** //         last_i2c_activity = HAL_GetTick(); // Prevent repeated reset
  72:Core/Src/i2c_slave.c **** //     }
  73:Core/Src/i2c_slave.c **** // }
  74:Core/Src/i2c_slave.c **** 
  75:Core/Src/i2c_slave.c **** 
  76:Core/Src/i2c_slave.c **** void HAL_I2C_AddrCallback(I2C_HandleTypeDef *hi2c, uint8_t TransferDirection, uint16_t AddrMatchCod
ARM GAS  /tmp/ccbvXVXe.s 			page 4


  77:Core/Src/i2c_slave.c **** {
  93              		.loc 1 77 1 is_stmt 1 view -0
  94              		.cfi_startproc
  95              		@ args = 0, pretend = 0, frame = 224
  96              		@ frame_needed = 0, uses_anonymous_args = 0
  97              		.loc 1 77 1 is_stmt 0 view .LVU9
  98 0000 30B5     		push	{r4, r5, lr}
  99              	.LCFI2:
 100              		.cfi_def_cfa_offset 12
 101              		.cfi_offset 4, -12
 102              		.cfi_offset 5, -8
 103              		.cfi_offset 14, -4
 104 0002 B9B0     		sub	sp, sp, #228
 105              	.LCFI3:
 106              		.cfi_def_cfa_offset 240
 107 0004 0546     		mov	r5, r0
 108 0006 0C46     		mov	r4, r1
  78:Core/Src/i2c_slave.c ****     last_i2c_activity = HAL_GetTick(); // ⬅️ Activity timestamp
 109              		.loc 1 78 5 is_stmt 1 view .LVU10
 110              		.loc 1 78 25 is_stmt 0 view .LVU11
 111 0008 FFF7FEFF 		bl	HAL_GetTick
 112              	.LVL5:
 113              		.loc 1 78 23 view .LVU12
 114 000c 3F4B     		ldr	r3, .L16
 115 000e 1860     		str	r0, [r3]
  79:Core/Src/i2c_slave.c **** 
  80:Core/Src/i2c_slave.c ****     if (TransferDirection == I2C_DIRECTION_TRANSMIT)
 116              		.loc 1 80 5 is_stmt 1 view .LVU13
 117              		.loc 1 80 8 is_stmt 0 view .LVU14
 118 0010 012C     		cmp	r4, #1
 119 0012 21D0     		beq	.L14
  81:Core/Src/i2c_slave.c ****     {
  82:Core/Src/i2c_slave.c ****         HAL_I2C_Slave_Seq_Receive_IT(hi2c, RxData, RxSize, I2C_FIRST_AND_LAST_FRAME);
  83:Core/Src/i2c_slave.c ****     }
  84:Core/Src/i2c_slave.c ****     else if (TransferDirection == I2C_DIRECTION_RECEIVE)
 120              		.loc 1 84 10 is_stmt 1 view .LVU15
 121              		.loc 1 84 13 is_stmt 0 view .LVU16
 122 0014 34BB     		cbnz	r4, .L5
  85:Core/Src/i2c_slave.c ****     {
  86:Core/Src/i2c_slave.c ****         if (prestore_image_requested)
 123              		.loc 1 86 9 is_stmt 1 view .LVU17
 124              		.loc 1 86 13 is_stmt 0 view .LVU18
 125 0016 3E4B     		ldr	r3, .L16+4
 126 0018 1B78     		ldrb	r3, [r3]	@ zero_extendqisi2
 127              		.loc 1 86 12 view .LVU19
 128 001a 002B     		cmp	r3, #0
 129 001c 36D0     		beq	.L8
  87:Core/Src/i2c_slave.c ****         {
  88:Core/Src/i2c_slave.c ****             if (current_packet_index < 8)
 130              		.loc 1 88 13 is_stmt 1 view .LVU20
 131              		.loc 1 88 38 is_stmt 0 view .LVU21
 132 001e 3D4B     		ldr	r3, .L16+8
 133 0020 1B88     		ldrh	r3, [r3]
 134 0022 9BB2     		uxth	r3, r3
 135              		.loc 1 88 16 view .LVU22
 136 0024 072B     		cmp	r3, #7
 137 0026 1FD8     		bhi	.L9
ARM GAS  /tmp/ccbvXVXe.s 			page 5


  89:Core/Src/i2c_slave.c ****             {
  90:Core/Src/i2c_slave.c ****                 HAL_I2C_Slave_Seq_Transmit_IT(hi2c,
 138              		.loc 1 90 17 is_stmt 1 view .LVU23
  91:Core/Src/i2c_slave.c ****                     &test_card_ssdv_buffer[current_packet_index * SSDV_PKT_SIZE],
 139              		.loc 1 91 65 is_stmt 0 view .LVU24
 140 0028 3A4C     		ldr	r4, .L16+8
 141 002a 2188     		ldrh	r1, [r4]
 142 002c 89B2     		uxth	r1, r1
 143 002e C1EBC101 		rsb	r1, r1, r1, lsl #3
  90:Core/Src/i2c_slave.c ****                     &test_card_ssdv_buffer[current_packet_index * SSDV_PKT_SIZE],
 144              		.loc 1 90 17 view .LVU25
 145 0032 0823     		movs	r3, #8
 146 0034 E022     		movs	r2, #224
 147 0036 3848     		ldr	r0, .L16+12
 148 0038 00EB4111 		add	r1, r0, r1, lsl #5
 149 003c 2846     		mov	r0, r5
 150 003e FFF7FEFF 		bl	HAL_I2C_Slave_Seq_Transmit_IT
 151              	.LVL6:
  92:Core/Src/i2c_slave.c ****                     SSDV_PKT_SIZE,
  93:Core/Src/i2c_slave.c ****                     I2C_FIRST_AND_LAST_FRAME);
  94:Core/Src/i2c_slave.c ****                 printf("Sent test SSDV packet %d\n", current_packet_index);
 152              		.loc 1 94 17 is_stmt 1 view .LVU26
 153 0042 2188     		ldrh	r1, [r4]
 154 0044 89B2     		uxth	r1, r1
 155 0046 3548     		ldr	r0, .L16+16
 156 0048 FFF7FEFF 		bl	printf
 157              	.LVL7:
  95:Core/Src/i2c_slave.c ****                 current_packet_index++;
 158              		.loc 1 95 17 view .LVU27
 159              		.loc 1 95 37 is_stmt 0 view .LVU28
 160 004c 2388     		ldrh	r3, [r4]
 161 004e 9BB2     		uxth	r3, r3
 162 0050 0133     		adds	r3, r3, #1
 163 0052 9BB2     		uxth	r3, r3
 164 0054 2380     		strh	r3, [r4]	@ movhi
 165 0056 05E0     		b	.L5
 166              	.L14:
  82:Core/Src/i2c_slave.c ****     }
 167              		.loc 1 82 9 is_stmt 1 view .LVU29
 168 0058 0823     		movs	r3, #8
 169 005a 0222     		movs	r2, #2
 170 005c 3049     		ldr	r1, .L16+20
 171 005e 2846     		mov	r0, r5
 172 0060 FFF7FEFF 		bl	HAL_I2C_Slave_Seq_Receive_IT
 173              	.LVL8:
 174              	.L5:
  96:Core/Src/i2c_slave.c ****             }
  97:Core/Src/i2c_slave.c ****             else
  98:Core/Src/i2c_slave.c ****             {
  99:Core/Src/i2c_slave.c ****                 uint8_t dummy[1] = {0xFF};
 100:Core/Src/i2c_slave.c ****                 HAL_I2C_Slave_Seq_Transmit_IT(hi2c, dummy, 1, I2C_FIRST_AND_LAST_FRAME);
 101:Core/Src/i2c_slave.c ****                 prestore_image_requested = 0;
 102:Core/Src/i2c_slave.c ****                 current_packet_index = 0;
 103:Core/Src/i2c_slave.c ****                 watchdog_set_time_period(WD_DELAY_1_S);
 104:Core/Src/i2c_slave.c ****                 while (1); // 
 105:Core/Src/i2c_slave.c ****             }
 106:Core/Src/i2c_slave.c ****         }
ARM GAS  /tmp/ccbvXVXe.s 			page 6


 107:Core/Src/i2c_slave.c ****         else if (send_all_packets && current_packet_index < ssdv_packets_in_image)
 108:Core/Src/i2c_slave.c ****         {
 109:Core/Src/i2c_slave.c ****             uint8_t ssdv_pkt[SSDV_PKT_SIZE] = {0};
 110:Core/Src/i2c_slave.c ****             flash_read_buffer(ssdv_pkt,
 111:Core/Src/i2c_slave.c ****                 ssdv_start_addr + current_packet_index * SSDV_PKT_SIZE,
 112:Core/Src/i2c_slave.c ****                 SSDV_PKT_SIZE);
 113:Core/Src/i2c_slave.c **** 
 114:Core/Src/i2c_slave.c ****             HAL_I2C_Slave_Seq_Transmit_IT(hi2c, ssdv_pkt, SSDV_PKT_SIZE, I2C_FIRST_AND_LAST_FRAME);
 115:Core/Src/i2c_slave.c ****             printf("Sent flash SSDV packet %d\n", current_packet_index);
 116:Core/Src/i2c_slave.c ****             current_packet_index++;
 117:Core/Src/i2c_slave.c ****         }
 118:Core/Src/i2c_slave.c ****         else
 119:Core/Src/i2c_slave.c ****         {
 120:Core/Src/i2c_slave.c ****             uint8_t dummy[1] = {0xFF};
 121:Core/Src/i2c_slave.c ****             HAL_I2C_Slave_Seq_Transmit_IT(hi2c, dummy, 1, I2C_FIRST_AND_LAST_FRAME);
 122:Core/Src/i2c_slave.c ****             send_all_packets = 0;
 123:Core/Src/i2c_slave.c ****             current_packet_index = 0;
 124:Core/Src/i2c_slave.c ****             watchdog_set_time_period(WD_DELAY_1_S);
 125:Core/Src/i2c_slave.c ****             while (1); // 
 126:Core/Src/i2c_slave.c ****         }
 127:Core/Src/i2c_slave.c ****     }
 128:Core/Src/i2c_slave.c **** }
 175              		.loc 1 128 1 is_stmt 0 view .LVU30
 176 0064 39B0     		add	sp, sp, #228
 177              	.LCFI4:
 178              		.cfi_remember_state
 179              		.cfi_def_cfa_offset 12
 180              		@ sp needed
 181 0066 30BD     		pop	{r4, r5, pc}
 182              	.LVL9:
 183              	.L9:
 184              	.LCFI5:
 185              		.cfi_restore_state
 186              	.LBB2:
  99:Core/Src/i2c_slave.c ****                 HAL_I2C_Slave_Seq_Transmit_IT(hi2c, dummy, 1, I2C_FIRST_AND_LAST_FRAME);
 187              		.loc 1 99 17 is_stmt 1 view .LVU31
  99:Core/Src/i2c_slave.c ****                 HAL_I2C_Slave_Seq_Transmit_IT(hi2c, dummy, 1, I2C_FIRST_AND_LAST_FRAME);
 188              		.loc 1 99 25 is_stmt 0 view .LVU32
 189 0068 FF23     		movs	r3, #255
 190 006a 8DF80030 		strb	r3, [sp]
 100:Core/Src/i2c_slave.c ****                 prestore_image_requested = 0;
 191              		.loc 1 100 17 is_stmt 1 view .LVU33
 192 006e 0823     		movs	r3, #8
 193 0070 0122     		movs	r2, #1
 194 0072 6946     		mov	r1, sp
 195 0074 2846     		mov	r0, r5
 196 0076 FFF7FEFF 		bl	HAL_I2C_Slave_Seq_Transmit_IT
 197              	.LVL10:
 101:Core/Src/i2c_slave.c ****                 current_packet_index = 0;
 198              		.loc 1 101 17 view .LVU34
 101:Core/Src/i2c_slave.c ****                 current_packet_index = 0;
 199              		.loc 1 101 42 is_stmt 0 view .LVU35
 200 007a 0023     		movs	r3, #0
 201 007c 244A     		ldr	r2, .L16+4
 202 007e 1370     		strb	r3, [r2]
 102:Core/Src/i2c_slave.c ****                 watchdog_set_time_period(WD_DELAY_1_S);
 203              		.loc 1 102 17 is_stmt 1 view .LVU36
ARM GAS  /tmp/ccbvXVXe.s 			page 7


 102:Core/Src/i2c_slave.c ****                 watchdog_set_time_period(WD_DELAY_1_S);
 204              		.loc 1 102 38 is_stmt 0 view .LVU37
 205 0080 244A     		ldr	r2, .L16+8
 206 0082 1380     		strh	r3, [r2]	@ movhi
 103:Core/Src/i2c_slave.c ****                 while (1); // 
 207              		.loc 1 103 17 is_stmt 1 view .LVU38
 208 0084 0420     		movs	r0, #4
 209 0086 FFF7FEFF 		bl	watchdog_set_time_period
 210              	.LVL11:
 211              	.L10:
 104:Core/Src/i2c_slave.c ****             }
 212              		.loc 1 104 17 discriminator 1 view .LVU39
 104:Core/Src/i2c_slave.c ****             }
 213              		.loc 1 104 26 discriminator 1 view .LVU40
 104:Core/Src/i2c_slave.c ****             }
 214              		.loc 1 104 23 discriminator 1 view .LVU41
 215 008a FEE7     		b	.L10
 216              	.L8:
 104:Core/Src/i2c_slave.c ****             }
 217              		.loc 1 104 23 is_stmt 0 discriminator 1 view .LVU42
 218              	.LBE2:
 107:Core/Src/i2c_slave.c ****         {
 219              		.loc 1 107 14 is_stmt 1 view .LVU43
 107:Core/Src/i2c_slave.c ****         {
 220              		.loc 1 107 18 is_stmt 0 view .LVU44
 221 008c 254B     		ldr	r3, .L16+24
 222 008e 1B78     		ldrb	r3, [r3]	@ zero_extendqisi2
 107:Core/Src/i2c_slave.c ****         {
 223              		.loc 1 107 17 view .LVU45
 224 0090 33B1     		cbz	r3, .L11
 107:Core/Src/i2c_slave.c ****         {
 225              		.loc 1 107 59 discriminator 1 view .LVU46
 226 0092 204B     		ldr	r3, .L16+8
 227 0094 1B88     		ldrh	r3, [r3]
 228 0096 9BB2     		uxth	r3, r3
 229 0098 234A     		ldr	r2, .L16+28
 230 009a 1268     		ldr	r2, [r2]
 107:Core/Src/i2c_slave.c ****         {
 231              		.loc 1 107 35 discriminator 1 view .LVU47
 232 009c 9342     		cmp	r3, r2
 233 009e 11D3     		bcc	.L15
 234              	.L11:
 235              	.LBB3:
 120:Core/Src/i2c_slave.c ****             HAL_I2C_Slave_Seq_Transmit_IT(hi2c, dummy, 1, I2C_FIRST_AND_LAST_FRAME);
 236              		.loc 1 120 13 is_stmt 1 view .LVU48
 120:Core/Src/i2c_slave.c ****             HAL_I2C_Slave_Seq_Transmit_IT(hi2c, dummy, 1, I2C_FIRST_AND_LAST_FRAME);
 237              		.loc 1 120 21 is_stmt 0 view .LVU49
 238 00a0 FF23     		movs	r3, #255
 239 00a2 8DF80030 		strb	r3, [sp]
 121:Core/Src/i2c_slave.c ****             send_all_packets = 0;
 240              		.loc 1 121 13 is_stmt 1 view .LVU50
 241 00a6 0823     		movs	r3, #8
 242 00a8 0122     		movs	r2, #1
 243 00aa 6946     		mov	r1, sp
 244 00ac 2846     		mov	r0, r5
 245 00ae FFF7FEFF 		bl	HAL_I2C_Slave_Seq_Transmit_IT
 246              	.LVL12:
ARM GAS  /tmp/ccbvXVXe.s 			page 8


 122:Core/Src/i2c_slave.c ****             current_packet_index = 0;
 247              		.loc 1 122 13 view .LVU51
 122:Core/Src/i2c_slave.c ****             current_packet_index = 0;
 248              		.loc 1 122 30 is_stmt 0 view .LVU52
 249 00b2 0023     		movs	r3, #0
 250 00b4 1B4A     		ldr	r2, .L16+24
 251 00b6 1370     		strb	r3, [r2]
 123:Core/Src/i2c_slave.c ****             watchdog_set_time_period(WD_DELAY_1_S);
 252              		.loc 1 123 13 is_stmt 1 view .LVU53
 123:Core/Src/i2c_slave.c ****             watchdog_set_time_period(WD_DELAY_1_S);
 253              		.loc 1 123 34 is_stmt 0 view .LVU54
 254 00b8 164A     		ldr	r2, .L16+8
 255 00ba 1380     		strh	r3, [r2]	@ movhi
 124:Core/Src/i2c_slave.c ****             while (1); // 
 256              		.loc 1 124 13 is_stmt 1 view .LVU55
 257 00bc 0420     		movs	r0, #4
 258 00be FFF7FEFF 		bl	watchdog_set_time_period
 259              	.LVL13:
 260              	.L12:
 125:Core/Src/i2c_slave.c ****         }
 261              		.loc 1 125 13 discriminator 2 view .LVU56
 125:Core/Src/i2c_slave.c ****         }
 262              		.loc 1 125 22 discriminator 2 view .LVU57
 125:Core/Src/i2c_slave.c ****         }
 263              		.loc 1 125 19 discriminator 2 view .LVU58
 264 00c2 FEE7     		b	.L12
 265              	.L15:
 125:Core/Src/i2c_slave.c ****         }
 266              		.loc 1 125 19 is_stmt 0 discriminator 2 view .LVU59
 267              	.LBE3:
 268              	.LBB4:
 109:Core/Src/i2c_slave.c ****             flash_read_buffer(ssdv_pkt,
 269              		.loc 1 109 13 is_stmt 1 view .LVU60
 109:Core/Src/i2c_slave.c ****             flash_read_buffer(ssdv_pkt,
 270              		.loc 1 109 21 is_stmt 0 view .LVU61
 271 00c4 0021     		movs	r1, #0
 272 00c6 0091     		str	r1, [sp]
 273 00c8 DC22     		movs	r2, #220
 274 00ca 01A8     		add	r0, sp, #4
 275 00cc FFF7FEFF 		bl	memset
 276              	.LVL14:
 110:Core/Src/i2c_slave.c ****                 ssdv_start_addr + current_packet_index * SSDV_PKT_SIZE,
 277              		.loc 1 110 13 is_stmt 1 view .LVU62
 111:Core/Src/i2c_slave.c ****                 SSDV_PKT_SIZE);
 278              		.loc 1 111 56 is_stmt 0 view .LVU63
 279 00d0 104C     		ldr	r4, .L16+8
 280 00d2 2188     		ldrh	r1, [r4]
 281 00d4 89B2     		uxth	r1, r1
 282 00d6 C1EBC101 		rsb	r1, r1, r1, lsl #3
 110:Core/Src/i2c_slave.c ****                 ssdv_start_addr + current_packet_index * SSDV_PKT_SIZE,
 283              		.loc 1 110 13 view .LVU64
 284 00da 144B     		ldr	r3, .L16+32
 285 00dc 1B68     		ldr	r3, [r3]
 286 00de E022     		movs	r2, #224
 287 00e0 03EB4111 		add	r1, r3, r1, lsl #5
 288 00e4 6846     		mov	r0, sp
 289 00e6 FFF7FEFF 		bl	flash_read_buffer
ARM GAS  /tmp/ccbvXVXe.s 			page 9


 290              	.LVL15:
 114:Core/Src/i2c_slave.c ****             printf("Sent flash SSDV packet %d\n", current_packet_index);
 291              		.loc 1 114 13 is_stmt 1 view .LVU65
 292 00ea 0823     		movs	r3, #8
 293 00ec E022     		movs	r2, #224
 294 00ee 6946     		mov	r1, sp
 295 00f0 2846     		mov	r0, r5
 296 00f2 FFF7FEFF 		bl	HAL_I2C_Slave_Seq_Transmit_IT
 297              	.LVL16:
 115:Core/Src/i2c_slave.c ****             current_packet_index++;
 298              		.loc 1 115 13 view .LVU66
 299 00f6 2188     		ldrh	r1, [r4]
 300 00f8 89B2     		uxth	r1, r1
 301 00fa 0D48     		ldr	r0, .L16+36
 302 00fc FFF7FEFF 		bl	printf
 303              	.LVL17:
 116:Core/Src/i2c_slave.c ****         }
 304              		.loc 1 116 13 view .LVU67
 116:Core/Src/i2c_slave.c ****         }
 305              		.loc 1 116 33 is_stmt 0 view .LVU68
 306 0100 2388     		ldrh	r3, [r4]
 307 0102 9BB2     		uxth	r3, r3
 308 0104 0133     		adds	r3, r3, #1
 309 0106 9BB2     		uxth	r3, r3
 310 0108 2380     		strh	r3, [r4]	@ movhi
 311              	.LBE4:
 108:Core/Src/i2c_slave.c ****             uint8_t ssdv_pkt[SSDV_PKT_SIZE] = {0};
 312              		.loc 1 108 9 view .LVU69
 313 010a ABE7     		b	.L5
 314              	.L17:
 315              		.align	2
 316              	.L16:
 317 010c 00000000 		.word	.LANCHOR0
 318 0110 00000000 		.word	.LANCHOR2
 319 0114 00000000 		.word	.LANCHOR3
 320 0118 00000000 		.word	.LANCHOR4
 321 011c 00000000 		.word	.LC0
 322 0120 00000000 		.word	.LANCHOR1
 323 0124 00000000 		.word	.LANCHOR5
 324 0128 00000000 		.word	ssdv_packets_in_image
 325 012c 00000000 		.word	ssdv_start_addr
 326 0130 1C000000 		.word	.LC1
 327              		.cfi_endproc
 328              	.LFE70:
 330              		.section	.rodata.HAL_I2C_SlaveRxCpltCallback.str1.4,"aMS",%progbits,1
 331              		.align	2
 332              	.LC2:
 333 0000 43617074 		.ascii	"Capture command received\015\000"
 333      75726520 
 333      636F6D6D 
 333      616E6420 
 333      72656365 
 334 001a 0000     		.align	2
 335              	.LC3:
 336 001c 53534456 		.ascii	"SSDV stream requested\015\000"
 336      20737472 
 336      65616D20 
ARM GAS  /tmp/ccbvXVXe.s 			page 10


 336      72657175 
 336      65737465 
 337 0033 00       		.align	2
 338              	.LC4:
 339 0034 50726573 		.ascii	"Prestored command received\015\000"
 339      746F7265 
 339      6420636F 
 339      6D6D616E 
 339      64207265 
 340              		.align	2
 341              	.LC5:
 342 0050 42726967 		.ascii	"Brightness level: %i\012\000"
 342      68746E65 
 342      7373206C 
 342      6576656C 
 342      3A202569 
 343 0066 0000     		.align	2
 344              	.LC6:
 345 0068 53686172 		.ascii	"Sharpness level: %i\012\000"
 345      706E6573 
 345      73206C65 
 345      76656C3A 
 345      2025690A 
 346 007d 000000   		.align	2
 347              	.LC7:
 348 0080 436F6E74 		.ascii	"Contrast level: %i\012\000"
 348      72617374 
 348      206C6576 
 348      656C3A20 
 348      25690A00 
 349              		.align	2
 350              	.LC8:
 351 0094 4578706F 		.ascii	"Exposure level: %i\012\000"
 351      73757265 
 351      206C6576 
 351      656C3A20 
 351      25690A00 
 352              		.align	2
 353              	.LC9:
 354 00a8 53617475 		.ascii	"Saturation level: %i\012\000"
 354      72617469 
 354      6F6E206C 
 354      6576656C 
 354      3A202569 
 355 00be 0000     		.align	2
 356              	.LC10:
 357 00c0 45666665 		.ascii	"Effect: %i\012\000"
 357      63743A20 
 357      25690A00 
 358              		.align	2
 359              	.LC11:
 360 00cc 43616D20 		.ascii	"Cam Size: %i\012\000"
 360      53697A65 
 360      3A202569 
 360      0A00
 361              		.section	.text.HAL_I2C_SlaveRxCpltCallback,"ax",%progbits
 362              		.align	1
ARM GAS  /tmp/ccbvXVXe.s 			page 11


 363              		.global	HAL_I2C_SlaveRxCpltCallback
 364              		.syntax unified
 365              		.thumb
 366              		.thumb_func
 367              		.fpu softvfp
 369              	HAL_I2C_SlaveRxCpltCallback:
 370              	.LVL18:
 371              	.LFB71:
 129:Core/Src/i2c_slave.c **** 
 130:Core/Src/i2c_slave.c **** void HAL_I2C_SlaveRxCpltCallback(I2C_HandleTypeDef *hi2c)
 131:Core/Src/i2c_slave.c **** {
 372              		.loc 1 131 1 is_stmt 1 view -0
 373              		.cfi_startproc
 374              		@ args = 0, pretend = 0, frame = 0
 375              		@ frame_needed = 0, uses_anonymous_args = 0
 376              		.loc 1 131 1 is_stmt 0 view .LVU71
 377 0000 08B5     		push	{r3, lr}
 378              	.LCFI6:
 379              		.cfi_def_cfa_offset 8
 380              		.cfi_offset 3, -8
 381              		.cfi_offset 14, -4
 132:Core/Src/i2c_slave.c ****     last_i2c_activity = HAL_GetTick(); // ⬅️ Activity timestamp
 382              		.loc 1 132 5 is_stmt 1 view .LVU72
 383              		.loc 1 132 25 is_stmt 0 view .LVU73
 384 0002 FFF7FEFF 		bl	HAL_GetTick
 385              	.LVL19:
 386              		.loc 1 132 23 view .LVU74
 387 0006 3D4B     		ldr	r3, .L39
 388 0008 1860     		str	r0, [r3]
 133:Core/Src/i2c_slave.c **** 
 134:Core/Src/i2c_slave.c ****     uint8_t cmd = RxData[0];
 389              		.loc 1 134 5 is_stmt 1 view .LVU75
 390              		.loc 1 134 13 is_stmt 0 view .LVU76
 391 000a 3D4B     		ldr	r3, .L39+4
 392 000c 1B78     		ldrb	r3, [r3]	@ zero_extendqisi2
 393              	.LVL20:
 135:Core/Src/i2c_slave.c **** 
 136:Core/Src/i2c_slave.c ****     if (cmd == 0x10) // Capture
 394              		.loc 1 136 5 is_stmt 1 view .LVU77
 395              		.loc 1 136 8 is_stmt 0 view .LVU78
 396 000e 102B     		cmp	r3, #16
 397 0010 1AD0     		beq	.L30
 137:Core/Src/i2c_slave.c ****     {
 138:Core/Src/i2c_slave.c ****         printf("Capture command received\r\n");
 139:Core/Src/i2c_slave.c ****         capture_requested = 1;
 140:Core/Src/i2c_slave.c ****         send_all_packets = 0;
 141:Core/Src/i2c_slave.c ****         prestore_image_requested = 0;
 142:Core/Src/i2c_slave.c ****         current_packet_index = 0;
 143:Core/Src/i2c_slave.c ****     }
 144:Core/Src/i2c_slave.c ****     else if (cmd == 0x20) // Stream SSDV
 398              		.loc 1 144 10 is_stmt 1 view .LVU79
 399              		.loc 1 144 13 is_stmt 0 view .LVU80
 400 0012 202B     		cmp	r3, #32
 401 0014 26D0     		beq	.L31
 145:Core/Src/i2c_slave.c ****     {
 146:Core/Src/i2c_slave.c ****         printf("SSDV stream requested\r\n");
 147:Core/Src/i2c_slave.c ****         send_all_packets = 1;
ARM GAS  /tmp/ccbvXVXe.s 			page 12


 148:Core/Src/i2c_slave.c ****         current_packet_index = 0;
 149:Core/Src/i2c_slave.c ****     }
 150:Core/Src/i2c_slave.c ****     else if (cmd == 0x90) // Prestored
 402              		.loc 1 150 10 is_stmt 1 view .LVU81
 403              		.loc 1 150 13 is_stmt 0 view .LVU82
 404 0016 902B     		cmp	r3, #144
 405 0018 2ED0     		beq	.L32
 151:Core/Src/i2c_slave.c ****     {
 152:Core/Src/i2c_slave.c ****         printf("Prestored command received\r\n");
 153:Core/Src/i2c_slave.c ****         prestore_image_requested = 1;
 154:Core/Src/i2c_slave.c ****         send_all_packets = 1;
 155:Core/Src/i2c_slave.c ****         current_packet_index = 0;
 156:Core/Src/i2c_slave.c ****     }
 157:Core/Src/i2c_slave.c ****     else if (cmd == CAM_BRIGHTNESS_LEVEL_CMD)
 406              		.loc 1 157 10 is_stmt 1 view .LVU83
 407              		.loc 1 157 13 is_stmt 0 view .LVU84
 408 001a 302B     		cmp	r3, #48
 409 001c 38D0     		beq	.L33
 158:Core/Src/i2c_slave.c ****     {
 159:Core/Src/i2c_slave.c ****         lvl = RxData[1];
 160:Core/Src/i2c_slave.c ****         printf("Brightness level: %i\n", lvl);
 161:Core/Src/i2c_slave.c ****     }
 162:Core/Src/i2c_slave.c ****     else if (cmd == CAM_SHARPNESS_LEVEL_CMD)
 410              		.loc 1 162 10 is_stmt 1 view .LVU85
 411              		.loc 1 162 13 is_stmt 0 view .LVU86
 412 001e 402B     		cmp	r3, #64
 413 0020 3FD0     		beq	.L34
 163:Core/Src/i2c_slave.c ****     {
 164:Core/Src/i2c_slave.c ****         shrp_lvl = RxData[1];
 165:Core/Src/i2c_slave.c ****         printf("Sharpness level: %i\n", shrp_lvl);
 166:Core/Src/i2c_slave.c ****     }
 167:Core/Src/i2c_slave.c ****     else if (cmd == CAM_CONTRAST_LEVEL_CMD)
 414              		.loc 1 167 10 is_stmt 1 view .LVU87
 415              		.loc 1 167 13 is_stmt 0 view .LVU88
 416 0022 502B     		cmp	r3, #80
 417 0024 46D0     		beq	.L35
 168:Core/Src/i2c_slave.c ****     {
 169:Core/Src/i2c_slave.c ****         contra_lvl = RxData[1];
 170:Core/Src/i2c_slave.c ****         printf("Contrast level: %i\n", contra_lvl);
 171:Core/Src/i2c_slave.c ****     }
 172:Core/Src/i2c_slave.c ****     else if (cmd == CAM_EV_LEVEL_CMD)
 418              		.loc 1 172 10 is_stmt 1 view .LVU89
 419              		.loc 1 172 13 is_stmt 0 view .LVU90
 420 0026 602B     		cmp	r3, #96
 421 0028 4DD0     		beq	.L36
 173:Core/Src/i2c_slave.c ****     {
 174:Core/Src/i2c_slave.c ****         exposure_lvl = RxData[1];
 175:Core/Src/i2c_slave.c ****         printf("Exposure level: %i\n", exposure_lvl);
 176:Core/Src/i2c_slave.c ****     }
 177:Core/Src/i2c_slave.c ****     else if (cmd == CAM_STAURATION_LEVEL_CMD)
 422              		.loc 1 177 10 is_stmt 1 view .LVU91
 423              		.loc 1 177 13 is_stmt 0 view .LVU92
 424 002a 702B     		cmp	r3, #112
 425 002c 54D0     		beq	.L37
 178:Core/Src/i2c_slave.c ****     {
 179:Core/Src/i2c_slave.c ****         saturation_lvl = RxData[1];
 180:Core/Src/i2c_slave.c ****         printf("Saturation level: %i\n", saturation_lvl);
ARM GAS  /tmp/ccbvXVXe.s 			page 13


 181:Core/Src/i2c_slave.c ****     }
 182:Core/Src/i2c_slave.c ****     else if (cmd == CAM_COLOR_FX_CMD)
 426              		.loc 1 182 10 is_stmt 1 view .LVU93
 427              		.loc 1 182 13 is_stmt 0 view .LVU94
 428 002e 802B     		cmp	r3, #128
 429 0030 5BD0     		beq	.L38
 183:Core/Src/i2c_slave.c ****     {
 184:Core/Src/i2c_slave.c ****         effect = RxData[1];
 185:Core/Src/i2c_slave.c ****         printf("Effect: %i\n", effect);
 186:Core/Src/i2c_slave.c ****     }
 187:Core/Src/i2c_slave.c ****     else if (cmd == CAM_SIZE_CMD)
 430              		.loc 1 187 10 is_stmt 1 view .LVU95
 431              		.loc 1 187 13 is_stmt 0 view .LVU96
 432 0032 812B     		cmp	r3, #129
 433 0034 15D1     		bne	.L18
 188:Core/Src/i2c_slave.c ****     {
 189:Core/Src/i2c_slave.c ****         cam_size =  RxData[1];
 434              		.loc 1 189 9 is_stmt 1 view .LVU97
 435              		.loc 1 189 27 is_stmt 0 view .LVU98
 436 0036 324B     		ldr	r3, .L39+4
 437              	.LVL21:
 438              		.loc 1 189 27 view .LVU99
 439 0038 5A78     		ldrb	r2, [r3, #1]	@ zero_extendqisi2
 440              		.loc 1 189 18 view .LVU100
 441 003a 324B     		ldr	r3, .L39+8
 442 003c 1A70     		strb	r2, [r3]
 190:Core/Src/i2c_slave.c ****         printf("Cam Size: %i\n", cam_size);
 443              		.loc 1 190 9 is_stmt 1 view .LVU101
 444 003e 1978     		ldrb	r1, [r3]	@ zero_extendqisi2
 445 0040 3148     		ldr	r0, .L39+12
 446 0042 FFF7FEFF 		bl	printf
 447              	.LVL22:
 191:Core/Src/i2c_slave.c ****     }
 192:Core/Src/i2c_slave.c **** }
 448              		.loc 1 192 1 is_stmt 0 view .LVU102
 449 0046 0CE0     		b	.L18
 450              	.LVL23:
 451              	.L30:
 138:Core/Src/i2c_slave.c ****         capture_requested = 1;
 452              		.loc 1 138 9 is_stmt 1 view .LVU103
 453 0048 3048     		ldr	r0, .L39+16
 454 004a FFF7FEFF 		bl	puts
 455              	.LVL24:
 139:Core/Src/i2c_slave.c ****         send_all_packets = 0;
 456              		.loc 1 139 9 view .LVU104
 139:Core/Src/i2c_slave.c ****         send_all_packets = 0;
 457              		.loc 1 139 27 is_stmt 0 view .LVU105
 458 004e 304B     		ldr	r3, .L39+20
 459 0050 0122     		movs	r2, #1
 460 0052 1A70     		strb	r2, [r3]
 140:Core/Src/i2c_slave.c ****         prestore_image_requested = 0;
 461              		.loc 1 140 9 is_stmt 1 view .LVU106
 140:Core/Src/i2c_slave.c ****         prestore_image_requested = 0;
 462              		.loc 1 140 26 is_stmt 0 view .LVU107
 463 0054 0023     		movs	r3, #0
 464 0056 2F4A     		ldr	r2, .L39+24
 465 0058 1370     		strb	r3, [r2]
ARM GAS  /tmp/ccbvXVXe.s 			page 14


 141:Core/Src/i2c_slave.c ****         current_packet_index = 0;
 466              		.loc 1 141 9 is_stmt 1 view .LVU108
 141:Core/Src/i2c_slave.c ****         current_packet_index = 0;
 467              		.loc 1 141 34 is_stmt 0 view .LVU109
 468 005a 2F4A     		ldr	r2, .L39+28
 469 005c 1370     		strb	r3, [r2]
 142:Core/Src/i2c_slave.c ****     }
 470              		.loc 1 142 9 is_stmt 1 view .LVU110
 142:Core/Src/i2c_slave.c ****     }
 471              		.loc 1 142 30 is_stmt 0 view .LVU111
 472 005e 2F4A     		ldr	r2, .L39+32
 473 0060 1380     		strh	r3, [r2]	@ movhi
 474              	.L18:
 475              		.loc 1 192 1 view .LVU112
 476 0062 08BD     		pop	{r3, pc}
 477              	.LVL25:
 478              	.L31:
 146:Core/Src/i2c_slave.c ****         send_all_packets = 1;
 479              		.loc 1 146 9 is_stmt 1 view .LVU113
 480 0064 2E48     		ldr	r0, .L39+36
 481 0066 FFF7FEFF 		bl	puts
 482              	.LVL26:
 147:Core/Src/i2c_slave.c ****         current_packet_index = 0;
 483              		.loc 1 147 9 view .LVU114
 147:Core/Src/i2c_slave.c ****         current_packet_index = 0;
 484              		.loc 1 147 26 is_stmt 0 view .LVU115
 485 006a 2A4B     		ldr	r3, .L39+24
 486 006c 0122     		movs	r2, #1
 487 006e 1A70     		strb	r2, [r3]
 148:Core/Src/i2c_slave.c ****     }
 488              		.loc 1 148 9 is_stmt 1 view .LVU116
 148:Core/Src/i2c_slave.c ****     }
 489              		.loc 1 148 30 is_stmt 0 view .LVU117
 490 0070 2A4B     		ldr	r3, .L39+32
 491 0072 0022     		movs	r2, #0
 492 0074 1A80     		strh	r2, [r3]	@ movhi
 493 0076 F4E7     		b	.L18
 494              	.LVL27:
 495              	.L32:
 152:Core/Src/i2c_slave.c ****         prestore_image_requested = 1;
 496              		.loc 1 152 9 is_stmt 1 view .LVU118
 497 0078 2A48     		ldr	r0, .L39+40
 498 007a FFF7FEFF 		bl	puts
 499              	.LVL28:
 153:Core/Src/i2c_slave.c ****         send_all_packets = 1;
 500              		.loc 1 153 9 view .LVU119
 153:Core/Src/i2c_slave.c ****         send_all_packets = 1;
 501              		.loc 1 153 34 is_stmt 0 view .LVU120
 502 007e 0123     		movs	r3, #1
 503 0080 254A     		ldr	r2, .L39+28
 504 0082 1370     		strb	r3, [r2]
 154:Core/Src/i2c_slave.c ****         current_packet_index = 0;
 505              		.loc 1 154 9 is_stmt 1 view .LVU121
 154:Core/Src/i2c_slave.c ****         current_packet_index = 0;
 506              		.loc 1 154 26 is_stmt 0 view .LVU122
 507 0084 234A     		ldr	r2, .L39+24
 508 0086 1370     		strb	r3, [r2]
ARM GAS  /tmp/ccbvXVXe.s 			page 15


 155:Core/Src/i2c_slave.c ****     }
 509              		.loc 1 155 9 is_stmt 1 view .LVU123
 155:Core/Src/i2c_slave.c ****     }
 510              		.loc 1 155 30 is_stmt 0 view .LVU124
 511 0088 244B     		ldr	r3, .L39+32
 512 008a 0022     		movs	r2, #0
 513 008c 1A80     		strh	r2, [r3]	@ movhi
 514 008e E8E7     		b	.L18
 515              	.LVL29:
 516              	.L33:
 159:Core/Src/i2c_slave.c ****         printf("Brightness level: %i\n", lvl);
 517              		.loc 1 159 9 is_stmt 1 view .LVU125
 159:Core/Src/i2c_slave.c ****         printf("Brightness level: %i\n", lvl);
 518              		.loc 1 159 21 is_stmt 0 view .LVU126
 519 0090 1B4B     		ldr	r3, .L39+4
 520              	.LVL30:
 159:Core/Src/i2c_slave.c ****         printf("Brightness level: %i\n", lvl);
 521              		.loc 1 159 21 view .LVU127
 522 0092 5A78     		ldrb	r2, [r3, #1]	@ zero_extendqisi2
 159:Core/Src/i2c_slave.c ****         printf("Brightness level: %i\n", lvl);
 523              		.loc 1 159 13 view .LVU128
 524 0094 244B     		ldr	r3, .L39+44
 525 0096 1A70     		strb	r2, [r3]
 160:Core/Src/i2c_slave.c ****     }
 526              		.loc 1 160 9 is_stmt 1 view .LVU129
 527 0098 1978     		ldrb	r1, [r3]	@ zero_extendqisi2
 528 009a 2448     		ldr	r0, .L39+48
 529 009c FFF7FEFF 		bl	printf
 530              	.LVL31:
 160:Core/Src/i2c_slave.c ****     }
 531              		.loc 1 160 9 is_stmt 0 view .LVU130
 532 00a0 DFE7     		b	.L18
 533              	.LVL32:
 534              	.L34:
 164:Core/Src/i2c_slave.c ****         printf("Sharpness level: %i\n", shrp_lvl);
 535              		.loc 1 164 9 is_stmt 1 view .LVU131
 164:Core/Src/i2c_slave.c ****         printf("Sharpness level: %i\n", shrp_lvl);
 536              		.loc 1 164 26 is_stmt 0 view .LVU132
 537 00a2 174B     		ldr	r3, .L39+4
 538              	.LVL33:
 164:Core/Src/i2c_slave.c ****         printf("Sharpness level: %i\n", shrp_lvl);
 539              		.loc 1 164 26 view .LVU133
 540 00a4 5A78     		ldrb	r2, [r3, #1]	@ zero_extendqisi2
 164:Core/Src/i2c_slave.c ****         printf("Sharpness level: %i\n", shrp_lvl);
 541              		.loc 1 164 18 view .LVU134
 542 00a6 224B     		ldr	r3, .L39+52
 543 00a8 1A70     		strb	r2, [r3]
 165:Core/Src/i2c_slave.c ****     }
 544              		.loc 1 165 9 is_stmt 1 view .LVU135
 545 00aa 1978     		ldrb	r1, [r3]	@ zero_extendqisi2
 546 00ac 2148     		ldr	r0, .L39+56
 547 00ae FFF7FEFF 		bl	printf
 548              	.LVL34:
 165:Core/Src/i2c_slave.c ****     }
 549              		.loc 1 165 9 is_stmt 0 view .LVU136
 550 00b2 D6E7     		b	.L18
 551              	.LVL35:
ARM GAS  /tmp/ccbvXVXe.s 			page 16


 552              	.L35:
 169:Core/Src/i2c_slave.c ****         printf("Contrast level: %i\n", contra_lvl);
 553              		.loc 1 169 9 is_stmt 1 view .LVU137
 169:Core/Src/i2c_slave.c ****         printf("Contrast level: %i\n", contra_lvl);
 554              		.loc 1 169 28 is_stmt 0 view .LVU138
 555 00b4 124B     		ldr	r3, .L39+4
 556              	.LVL36:
 169:Core/Src/i2c_slave.c ****         printf("Contrast level: %i\n", contra_lvl);
 557              		.loc 1 169 28 view .LVU139
 558 00b6 5A78     		ldrb	r2, [r3, #1]	@ zero_extendqisi2
 169:Core/Src/i2c_slave.c ****         printf("Contrast level: %i\n", contra_lvl);
 559              		.loc 1 169 20 view .LVU140
 560 00b8 1F4B     		ldr	r3, .L39+60
 561 00ba 1A70     		strb	r2, [r3]
 170:Core/Src/i2c_slave.c ****     }
 562              		.loc 1 170 9 is_stmt 1 view .LVU141
 563 00bc 1978     		ldrb	r1, [r3]	@ zero_extendqisi2
 564 00be 1F48     		ldr	r0, .L39+64
 565 00c0 FFF7FEFF 		bl	printf
 566              	.LVL37:
 170:Core/Src/i2c_slave.c ****     }
 567              		.loc 1 170 9 is_stmt 0 view .LVU142
 568 00c4 CDE7     		b	.L18
 569              	.LVL38:
 570              	.L36:
 174:Core/Src/i2c_slave.c ****         printf("Exposure level: %i\n", exposure_lvl);
 571              		.loc 1 174 9 is_stmt 1 view .LVU143
 174:Core/Src/i2c_slave.c ****         printf("Exposure level: %i\n", exposure_lvl);
 572              		.loc 1 174 30 is_stmt 0 view .LVU144
 573 00c6 0E4B     		ldr	r3, .L39+4
 574              	.LVL39:
 174:Core/Src/i2c_slave.c ****         printf("Exposure level: %i\n", exposure_lvl);
 575              		.loc 1 174 30 view .LVU145
 576 00c8 5A78     		ldrb	r2, [r3, #1]	@ zero_extendqisi2
 174:Core/Src/i2c_slave.c ****         printf("Exposure level: %i\n", exposure_lvl);
 577              		.loc 1 174 22 view .LVU146
 578 00ca 1D4B     		ldr	r3, .L39+68
 579 00cc 1A70     		strb	r2, [r3]
 175:Core/Src/i2c_slave.c ****     }
 580              		.loc 1 175 9 is_stmt 1 view .LVU147
 581 00ce 1978     		ldrb	r1, [r3]	@ zero_extendqisi2
 582 00d0 1C48     		ldr	r0, .L39+72
 583 00d2 FFF7FEFF 		bl	printf
 584              	.LVL40:
 175:Core/Src/i2c_slave.c ****     }
 585              		.loc 1 175 9 is_stmt 0 view .LVU148
 586 00d6 C4E7     		b	.L18
 587              	.LVL41:
 588              	.L37:
 179:Core/Src/i2c_slave.c ****         printf("Saturation level: %i\n", saturation_lvl);
 589              		.loc 1 179 9 is_stmt 1 view .LVU149
 179:Core/Src/i2c_slave.c ****         printf("Saturation level: %i\n", saturation_lvl);
 590              		.loc 1 179 32 is_stmt 0 view .LVU150
 591 00d8 094B     		ldr	r3, .L39+4
 592              	.LVL42:
 179:Core/Src/i2c_slave.c ****         printf("Saturation level: %i\n", saturation_lvl);
 593              		.loc 1 179 32 view .LVU151
ARM GAS  /tmp/ccbvXVXe.s 			page 17


 594 00da 5A78     		ldrb	r2, [r3, #1]	@ zero_extendqisi2
 179:Core/Src/i2c_slave.c ****         printf("Saturation level: %i\n", saturation_lvl);
 595              		.loc 1 179 24 view .LVU152
 596 00dc 1A4B     		ldr	r3, .L39+76
 597 00de 1A70     		strb	r2, [r3]
 180:Core/Src/i2c_slave.c ****     }
 598              		.loc 1 180 9 is_stmt 1 view .LVU153
 599 00e0 1978     		ldrb	r1, [r3]	@ zero_extendqisi2
 600 00e2 1A48     		ldr	r0, .L39+80
 601 00e4 FFF7FEFF 		bl	printf
 602              	.LVL43:
 180:Core/Src/i2c_slave.c ****     }
 603              		.loc 1 180 9 is_stmt 0 view .LVU154
 604 00e8 BBE7     		b	.L18
 605              	.LVL44:
 606              	.L38:
 184:Core/Src/i2c_slave.c ****         printf("Effect: %i\n", effect);
 607              		.loc 1 184 9 is_stmt 1 view .LVU155
 184:Core/Src/i2c_slave.c ****         printf("Effect: %i\n", effect);
 608              		.loc 1 184 24 is_stmt 0 view .LVU156
 609 00ea 054B     		ldr	r3, .L39+4
 610              	.LVL45:
 184:Core/Src/i2c_slave.c ****         printf("Effect: %i\n", effect);
 611              		.loc 1 184 24 view .LVU157
 612 00ec 5A78     		ldrb	r2, [r3, #1]	@ zero_extendqisi2
 184:Core/Src/i2c_slave.c ****         printf("Effect: %i\n", effect);
 613              		.loc 1 184 16 view .LVU158
 614 00ee 184B     		ldr	r3, .L39+84
 615 00f0 1A70     		strb	r2, [r3]
 185:Core/Src/i2c_slave.c ****     }
 616              		.loc 1 185 9 is_stmt 1 view .LVU159
 617 00f2 1978     		ldrb	r1, [r3]	@ zero_extendqisi2
 618 00f4 1748     		ldr	r0, .L39+88
 619 00f6 FFF7FEFF 		bl	printf
 620              	.LVL46:
 185:Core/Src/i2c_slave.c ****     }
 621              		.loc 1 185 9 is_stmt 0 view .LVU160
 622 00fa B2E7     		b	.L18
 623              	.L40:
 624              		.align	2
 625              	.L39:
 626 00fc 00000000 		.word	.LANCHOR0
 627 0100 00000000 		.word	.LANCHOR1
 628 0104 00000000 		.word	.LANCHOR13
 629 0108 CC000000 		.word	.LC11
 630 010c 00000000 		.word	.LC2
 631 0110 00000000 		.word	.LANCHOR6
 632 0114 00000000 		.word	.LANCHOR5
 633 0118 00000000 		.word	.LANCHOR2
 634 011c 00000000 		.word	.LANCHOR3
 635 0120 1C000000 		.word	.LC3
 636 0124 34000000 		.word	.LC4
 637 0128 00000000 		.word	.LANCHOR7
 638 012c 50000000 		.word	.LC5
 639 0130 00000000 		.word	.LANCHOR8
 640 0134 68000000 		.word	.LC6
 641 0138 00000000 		.word	.LANCHOR9
ARM GAS  /tmp/ccbvXVXe.s 			page 18


 642 013c 80000000 		.word	.LC7
 643 0140 00000000 		.word	.LANCHOR10
 644 0144 94000000 		.word	.LC8
 645 0148 00000000 		.word	.LANCHOR11
 646 014c A8000000 		.word	.LC9
 647 0150 00000000 		.word	.LANCHOR12
 648 0154 C0000000 		.word	.LC10
 649              		.cfi_endproc
 650              	.LFE71:
 652              		.global	last_i2c_activity
 653              		.global	RxData
 654              		.global	current_packet_index
 655              		.global	send_all_packets
 656              		.global	prestore_image_requested
 657              		.global	capture_requested
 658              		.global	cam_size
 659              		.global	effect
 660              		.global	saturation_lvl
 661              		.global	exposure_lvl
 662              		.global	contra_lvl
 663              		.global	shrp_lvl
 664              		.global	lvl
 665              		.global	test_card_ssdv_buffer
 666              		.section	.bss.RxData,"aw",%nobits
 667              		.align	2
 668              		.set	.LANCHOR1,. + 0
 671              	RxData:
 672 0000 0000     		.space	2
 673              		.section	.bss.capture_requested,"aw",%nobits
 674              		.set	.LANCHOR6,. + 0
 677              	capture_requested:
 678 0000 00       		.space	1
 679              		.section	.bss.contra_lvl,"aw",%nobits
 680              		.set	.LANCHOR9,. + 0
 683              	contra_lvl:
 684 0000 00       		.space	1
 685              		.section	.bss.current_packet_index,"aw",%nobits
 686              		.align	1
 687              		.set	.LANCHOR3,. + 0
 690              	current_packet_index:
 691 0000 0000     		.space	2
 692              		.section	.bss.effect,"aw",%nobits
 693              		.set	.LANCHOR12,. + 0
 696              	effect:
 697 0000 00       		.space	1
 698              		.section	.bss.exposure_lvl,"aw",%nobits
 699              		.set	.LANCHOR10,. + 0
 702              	exposure_lvl:
 703 0000 00       		.space	1
 704              		.section	.bss.last_i2c_activity,"aw",%nobits
 705              		.align	2
 706              		.set	.LANCHOR0,. + 0
 709              	last_i2c_activity:
 710 0000 00000000 		.space	4
 711              		.section	.bss.lvl,"aw",%nobits
 712              		.set	.LANCHOR7,. + 0
 715              	lvl:
ARM GAS  /tmp/ccbvXVXe.s 			page 19


 716 0000 00       		.space	1
 717              		.section	.bss.prestore_image_requested,"aw",%nobits
 718              		.set	.LANCHOR2,. + 0
 721              	prestore_image_requested:
 722 0000 00       		.space	1
 723              		.section	.bss.saturation_lvl,"aw",%nobits
 724              		.set	.LANCHOR11,. + 0
 727              	saturation_lvl:
 728 0000 00       		.space	1
 729              		.section	.bss.send_all_packets,"aw",%nobits
 730              		.set	.LANCHOR5,. + 0
 733              	send_all_packets:
 734 0000 00       		.space	1
 735              		.section	.bss.shrp_lvl,"aw",%nobits
 736              		.set	.LANCHOR8,. + 0
 739              	shrp_lvl:
 740 0000 00       		.space	1
 741              		.section	.data.cam_size,"aw"
 742              		.set	.LANCHOR13,. + 0
 745              	cam_size:
 746 0000 0B       		.byte	11
 747              		.section	.data.test_card_ssdv_buffer,"aw"
 748              		.align	2
 749              		.set	.LANCHOR4,. + 0
 752              	test_card_ssdv_buffer:
 753 0000 55660093 		.ascii	"Uf\000\2235\202\000\000\000\005\005\000\000\000\000"
 753      35820000 
 753      00050500 
 753      000000
 754 000f E5AC6CED 		.ascii	"\345\254l\355\245\265\215\312\011di1 2\354\362\327\326"
 754      A5B58DCA 
 754      09646931 
 754      2032ECF2 
 754      D7D6
 755 0021 A64B2D34 		.ascii	"\246K-4,y\221\033|\314\201\232B2\240\361\323\372\325"
 755      2C79911B 
 755      7CCC819A 
 755      4232A0F1 
 755      D3FAD5
 756 0034 0B7D3A59 		.ascii	"\013}:YJ3\256\"a\235\312\312p:g\255!\323nC\272\252\243"
 756      4A33AE22 
 756      619DCACA 
 756      703A67AD 
 756      21D36E43 
 757 004b 6C241224 		.ascii	"l$\022$^\337\215\000_]>\303ta\233\000\313\"\234\310"
 757      5EDF8D00 
 757      5F5D3EC3 
 757      74619B00 
 757      CB229CC8 
 758 005f 0671F747 		.ascii	"\006q\367G\267\326\225,,\214\221y\250\"b\256^!6q\216"
 758      B7D6952C 
 758      2C8C9179 
 758      A82262AE 
 758      5E213671 
 759 0074 8735422D 		.ascii	"\2075B-2\342F\\\252\204'\005\303\251\300\357\336\242"
 759      32E2465C 
 759      AA842705 
ARM GAS  /tmp/ccbvXVXe.s 			page 20


 759      C3A9C0EF 
 759      DEA2
 760 0086 96D596F1 		.ascii	"\226\325\226\361\340\217\031S\201\271\200\376\270\240"
 760      E08F1953 
 760      81B980FE 
 760      B8A0
 761 0094 0B573696 		.ascii	"\013W6\226\261\351\336|N\031\236_\227\346\344.:\021"
 761      B1E9DE7C 
 761      4E199E5F 
 761      97E6E42E 
 761      3A11
 762 00a6 EA0D5C97 		.ascii	"\352\015\\\227O\260\020\306\311\205\313\240\313K\313"
 762      4FB010C6 
 762      C985CBA0 
 762      CB4BCB
 763 00b5 03D7DAA9 		.ascii	"\003\327\332\251\256\226\026cp\360\367\303W\246\232"
 763      AE961663 
 763      70F0F7C3 
 763      57A69A
 764 00c4 25FB26A1 		.ascii	"%\373&\241\343W\302\016\007x\251\3545\264~\353\243\216"
 764      E357C20E 
 764      0778A9EC 
 764      35B47EEB 
 764      A38E
 765 00d6 BB08355C 		.ascii	"\273\0105\\&7&\272\304\011Uf\000\2235\202\000\000\001"
 765      263726BA 
 765      C4095566 
 765      00933582 
 765      000001
 766 00e9 0505001C 		.ascii	"\005\005\000\034\000\003%3\271\215\331\231O+\205\307"
 766      00032533 
 766      B98DD999 
 766      4F2B85C7 
 767 00f9 AF350369 		.ascii	"\2575\003i\267*\356\273P\354\344\221\"\364\365\353@"
 767      B72AEEBB 
 767      50ECE491 
 767      22F4F5EB 
 767      40
 768 010a 1FE5AEED 		.ascii	"\037\345\256\355\354\001\226\030\010\363\374\315\261"
 768      EC019618 
 768      08F3FCCD 
 768      B1
 769 0117 8562475E 		.ascii	"\205bG^\344\361Ks\247\332\013r!\235\014\261c\314!\363"
 769      E4F14B73 
 769      A7DA0B72 
 769      219D0CB1 
 769      63CC21F3 
 770 012b B877207B 		.ascii	"\270w {VsZ\314\267\006\002\240H:\202\300\177Z\224\351"
 770      56735ACC 
 770      B70602A0 
 770      483A82C0 
 770      7F5A94E9 
 771 013f B7601263 		.ascii	"\267`\022c\\\014\347\367\213\306:\367\240\013\3276V"
 771      5C0CE7F7 
 771      8BC63AF7 
 771      A00BD736 
 771      56
ARM GAS  /tmp/ccbvXVXe.s 			page 21


 772 0150 D186F2E2 		.ascii	"\321\206\362\342S\030+\266o\264\003\277\327\212n\251"
 772      53182BB6 
 772      6FB403BF 
 772      D78A6EA9 
 773 0160 676F6F1B 		.ascii	"goo\033\233x\306\320\300o\337\236?:\254\232l\236L\257"
 773      9B78C6D0 
 773      C06FDF9E 
 773      3F3AAC9A 
 773      6C9E4CAF 
 774 0174 282A5541 		.ascii	"(*UAQ\221\316N99\250\244\260\270\2157\262 ^\307z\363"
 774      5191CE4E 
 774      3939A8A4 
 774      B0B88D37 
 774      B2205EC7 
 775 018a FAD00392 		.ascii	"\372\320\003\222\371\326 \214\201\202\240E\307\030\001"
 775      F9D6208C 
 775      8182A045 
 775      C71801
 776 0199 B754CB33 		.ascii	"\267T\3133\207%\\4>\357`\340\265\240\360\014\006\362"
 776      87255C34 
 776      3EEF60E0 
 776      B5A0F00C 
 776      06F2
 777 01ab 51E0C721 		.ascii	"Q\340\307!8/u\373\247\024Z^\203\343_\035O,\371\363\226"
 777      382F75FB 
 777      A7145A5E 
 777      83E35F1D 
 777      4F2CF9F3 
 778 01c0 55660093 		.ascii	"Uf\000\2235\202\000\000\002\005\005\000/\000\006\252"
 778      35820000 
 778      02050500 
 778      2F0006AA 
 779 01d0 C8A65C44 		.ascii	"\310\246\\D\243qr\244\034\025-\374\351\332u\364v\361"
 779      A37172A4 
 779      1C152DFC 
 779      E9DA75F4 
 779      76F1
 780 01e2 14959C7D 		.ascii	"\024\225\234}\355\270\310\307\025au(\241\273pdv\205"
 780      EDB8C8C7 
 780      15617528 
 780      A1BB7064 
 780      7685
 781 01f4 F6152ADB 		.ascii	"\366\025*\333\266\343\250\346\200?\343N\243!/\373\270"
 781      B6E3A8E6 
 781      803FE34E 
 781      A3212FFB 
 781      B8
 782 0205 C2BB16C0 		.ascii	"\302\273\026\300\037w8\310\037\\\012-\345\226MI\256"
 782      1F7738C8 
 782      1F5C0A2D 
 782      E5964D49 
 782      AE
 783 0216 22540DB9 		.ascii	"\"T\015\271\244!\317\000w\315Z\203S\211e\"m\314\004"
 783      A421CF00 
 783      77CD5A83 
 783      53896522 
 783      6DCC04
ARM GAS  /tmp/ccbvXVXe.s 			page 22


 784 0229 FBD1C718 		.ascii	"\373\321\307\030\031>\325V\326\353\312\271\236C!R\350"
 784      193ED556 
 784      D6EBCAB9 
 784      9E432152 
 784      E8
 785 023a E01F527A 		.ascii	"\340\037RzP\004\322\315<Qo\211P\250g%\303\0111\273\035"
 785      5004D2CD 
 785      3C516F89 
 785      50A86725 
 785      C30931BB 
 786 024f 78EBC75A 		.ascii	"x\353\307ZW\277\235#\222m\250c\237\003\202\016\326P"
 786      57BF9D23 
 786      926DA863 
 786      9F03820E 
 786      D650
 787 0261 073C7E95 		.ascii	"\007<~\225)\324\342\026\362\252I wF\301l\222:`u\372"
 787      29D4E216 
 787      F2AA4920 
 787      7746C16C 
 787      923A6075 
 788 0276 F3449A94 		.ascii	"\363D\232\224B006\324X\245;I\261\020\307{2\327\036\032"
 788      42303036 
 788      D458A53B 
 788      49B110C7 
 788      7B32D71E 
 789 028b 4C40A767 		.ascii	"L@\247g'.\343%\263\244d\2435v\354\376m\0242\027\337"
 789      272EE325 
 789      B3A464A3 
 789      3576ECFE 
 789      6D143217 
 790 02a0 55660093 		.ascii	"Uf\000\2235\202\000\000\003\005\005\000\017\000\010"
 790      35820000 
 790      03050500 
 790      0F0008
 791 02af 11E56512 		.ascii	"\021\345e\022+\020\034\206+\216y\355\315\000\177\342"
 791      2B101C86 
 791      2B8E79ED 
 791      CD007FE2 
 792 02bf 5AF1FFB4 		.ascii	"Z\361\377\264\015\332(\015\277pS\310\253iy-\354\236"
 792      0DDA280D 
 792      BF7053C8 
 792      AB69792D 
 792      EC9E
 793 02d1 5A440B6D 		.ascii	"ZD\013m\223\031`>\360\003\323\237\353P_]\013\203nT\237"
 793      9319603E 
 793      F003D39F 
 793      EB505F5D 
 793      0B836E54 
 794 02e6 91390493 		.ascii	"\2219\004\223\203\223\337\362\253\347U\204\201\265\344"
 794      8393DFF2 
 794      ABE75584 
 794      81B5E4
 795 02f5 43B53AB1 		.ascii	"C\265:\2618\303|\337\247\177J\000\240u\011\015\271\205"
 795      38C37CDF 
 795      A77F4A00 
 795      A075090D 
 795      B985
ARM GAS  /tmp/ccbvXVXe.s 			page 23


 796 0307 E242C115 		.ascii	"\342B\301\025\003c\220\003\003\375)\363j\2174-\033D"
 796      03639003 
 796      03FD29F3 
 796      6A8F342D 
 796      1B44
 797 0319 A376EDDC 		.ascii	"\243v\355\334\347\223\216y\372T\223j9\201\304r7\231"
 797      E7938E79 
 797      FA54936A 
 797      3981C472 
 797      3799
 798 032b E76EF9B9 		.ascii	"\347n\371\271\014\271\310\307\245%\345\3747\026\256"
 798      0CB9C8C7 
 798      A525E5FC 
 798      3716AE
 799 033a B1874669 		.ascii	"\261\207Fi\025\212\223\234\374\270'\363\240\014\366"
 799      158A939C 
 799      FCB827F3 
 799      A00CF6
 800 0349 8CAE0807 		.ascii	"\214\256\010\007\007\245^\323ma\271V\017\031v\016\243"
 800      07A55ED3 
 800      6D61B956 
 800      0F19760E 
 800      A3
 801 035a 3BF68620 		.ascii	";\366\206 \324tK\345\335`u\212Yj+\362dO\213\276\256"
 801      D4744BE5 
 801      DD60758A 
 801      596A2BF2 
 801      644F8BBE 
 802 036f F86EB736 		.ascii	"\370n\2676~\231\3441\267\200\375\341\371\205\036>\260"
 802      7E99E431 
 802      B780FDE1 
 802      F9851E3E 
 802      B0
 803 0380 55660093 		.ascii	"Uf\000\2235\202\000\000\004\005\005\000\026\000\013"
 803      35820000 
 803      04050500 
 803      16000B
 804 038f E14F069D 		.ascii	"\341O\006\235\012\206\267P\303\"\241\226\325\227&2q"
 804      0A86B750 
 804      C322A196 
 804      D5972632 
 804      71
 805 03a0 9CE075A0 		.ascii	"\234\340u\240\017\346`\261\264\221T\224l\231\212\020"
 805      0FE660B1 
 805      B4915494 
 805      6C998A10 
 806 03b0 24CE3AF5 		.ascii	"$\316:\365\364\351Q\230,\306\322Q\0231+\341\345#9\364"
 806      F4E95198 
 806      2CC6D251 
 806      13312BE1 
 806      E52339F4 
 807 03c4 E2B332CA 		.ascii	"\342\2632\312z\220s\324\032\261ijn\367\346R\201\027"
 807      7A9073D4 
 807      1AB1696A 
 807      6EF7E652 
 807      8117
 808 03d6 24952401 		.ascii	"$\225$\001\375(\002\305\375\254\020[\202\210D\202R\214"
ARM GAS  /tmp/ccbvXVXe.s 			page 24


 808      FD2802C5 
 808      FDAC105B 
 808      82884482 
 808      528C
 809 03e8 43120606 		.ascii	"C\022\006\006{\377:\233Ma\3665^T\264\304\026\017\214"
 809      7BFF3A9B 
 809      4D61F635 
 809      5E54B4C4 
 809      160F8C
 810 03fb FCB9C7BD 		.ascii	"\374\271\307\275$\032r4\3069%\022)\0123\264\214\026"
 810      241A7234 
 810      C6392512 
 810      290A33B4 
 810      8C16
 811 040d 1C63DEA0 		.ascii	"\034c\336\240\032k\023$bll]\3042\021\353\375\005\000"
 811      1A6B1324 
 811      626C6C5D 
 811      C43211EB 
 811      FD0500
 812 0420 5B96D2D5 		.ascii	"[\226\322\325\356&\314~Y\021\007\302\277|d\340R\033"
 812      EE26CC7E 
 812      591107C2 
 812      BF7C64E0 
 812      521B
 813 0432 2B52CAAB 		.ascii	"+R\312\253\011\004\270Nd?\030\033A\353\215QRd%c\335"
 813      0904B84E 
 813      643F181B 
 813      41EB8D51 
 813      52642563 
 814 0447 257DA997 		.ascii	"%}\251\227\020\331\305\376\204\230\217\267\011\322\343"
 814      10D9C5FE 
 814      84988FB7 
 814      09D2E3
 815 0456 A92A7B46 		.ascii	"\251*{F\277\016\316\"\260\377Uf\000\2235\202\000\000"
 815      BF0ECE22 
 815      B0FF5566 
 815      00933582 
 815      0000
 816 0468 05050500 		.ascii	"\005\005\005\000\031\000\016\334\335\351Y\227P\233k"
 816      19000EDC 
 816      DDE95997 
 816      509B6B
 817 0477 831F99BC 		.ascii	"\203\037\231\274\250\034\200Gj\207s\037\342n\276\264"
 817      A81C8047 
 817      6A87731F 
 817      E26EBEB4 
 818 0487 01E3EFE0 		.ascii	"\001\343\357\340\267\212\336'\204r\354\300\220I\034"
 818      B78ADE27 
 818      8472ECC0 
 818      90491C
 819 0496 638E7EB5 		.ascii	"c\216~\265\237Nm\330\033\263\216\2434\332\000\277\272"
 819      9F4E6DD8 
 819      1BB38EA3 
 819      34DA00BF 
 819      BA
 820 04a7 44B50506 		.ascii	"D\265\005\006z\364\355\315\026\2573p\300\355\317\336"
 820      7AF4EDCD 
ARM GAS  /tmp/ccbvXVXe.s 			page 25


 820      16AF3370 
 820      C0EDCFDE 
 821 04b7 352C2C16 		.ascii	"5,,\026\335I8\031\353L\220\011\306\350\233,\007L\365"
 821      DD493819 
 821      EB4C9009 
 821      C6E89B2C 
 821      074CF5
 822 04ca A007CB6E 		.ascii	"\240\007\313n\262\202q\206\365\365\252\243\316\265v"
 822      B2827186 
 822      F5F5AAA3 
 822      CEB576
 823 04d9 DBD19482 		.ascii	"\333\321\224\202\010\310a\375j\026wS\202O\347Hdc\301"
 823      08C861FD 
 823      6A167753 
 823      824FE748 
 823      6463C1
 824 04ec E6802C26 		.ascii	"\346\200,&\243s\034\276b\311\203\362\344c\203\201\201"
 824      A3731CBE 
 824      62C983F2 
 824      E4638381 
 824      81
 825 04fd 4C17B38C 		.ascii	"L\027\263\214\2170\355d\330W\261^\225\0036\343\223\212"
 825      8F30ED64 
 825      D857B15E 
 825      950336E3 
 825      938A
 826 050f 4A009DDD 		.ascii	"J\000\235\335\356diX\215\307\251\351\355\253\027\276"
 826      EE646958 
 826      8DC7A9E9 
 826      EDAB17BE 
 827 051f A9064F4E 		.ascii	"\251\006ON\260;\374\355\245Yk\317\327J:\214\314\263"
 827      B03BFCED 
 827      A5596BCF 
 827      D74A3A8C 
 827      CCB3
 828 0531 F13D83C2 		.ascii	"\361=\203\302qv\255\332\367\332\207\310\376\034[Uf\000"
 828      7176ADDA 
 828      F7DA87C8 
 828      FE1C5B55 
 828      6600
 829 0543 93358200 		.ascii	"\2235\202\000\000\006\005\005\000\016\000\023L\330}"
 829      00060505 
 829      000E0013 
 829      4CD87D
 830 0552 6A4B5FE2 		.ascii	"jK_\342\372U\220\240z\320#\341\014lW\327\332\242\255"
 830      FA5590A0 
 830      7AD023E1 
 830      0C6C57D7 
 830      DAA2AD
 831 0565 02808350 		.ascii	"\002\200\203P\311\032\354b\000\004\017J\005qeVkT d\002"
 831      C91AEC62 
 831      00040F4A 
 831      05716556 
 831      6B542064 
 832 057a 73C5259A 		.ascii	"s\305%\2327\233\234\034c\322\246\212\3424\214+\036A"
 832      379B9C1C 
 832      63D2A68A 
ARM GAS  /tmp/ccbvXVXe.s 			page 26


 832      E2348C2B 
 832      1E41
 833 058c F4A78B98 		.ascii	"\364\247\213\230@\340\221\370P1\2676\341\301u\034\367"
 833      40E091F8 
 833      5031B736 
 833      E1C1751C 
 833      F7
 834 059d 1EB59E46 		.ascii	"\036\265\236F\016+K\355Qz\237\312\253O\345Hr\204\203"
 834      0E2B4BED 
 834      517A9FCA 
 834      AB4FE548 
 834      728483
 835 05b0 9E462802 		.ascii	"\236F(\002\255\024\021\203\212\267oo\034\261\356l\347"
 835      AD141183 
 835      8AB76F6F 
 835      1CB1EE6C 
 835      E7
 836 05c1 3D8D0047 		.ascii	"=\215\000Go\237\233\037\215L\3620\340g>\2652\333\307"
 836      6F9F9B1F 
 836      8D4CF230 
 836      E0673EB5 
 836      32DBC7
 837 05d4 183B41E7 		.ascii	"\030;A\347\2574\2061\301Prx\"\201\020&\342y$\217\255"
 837      AF348631 
 837      C1507278 
 837      22811026 
 837      E279248F 
 838 05e9 39CEC0DB 		.ascii	"9\316\300\333\224\034\016\2252\306\243\034\023\236\364"
 838      941C0E95 
 838      32C6A31C 
 838      139EF4
 839 05f8 AD1A3921 		.ascii	"\255\0329!l\314H\361\220\001pH\246\0156\324\266/P5\004"
 839      6CCC48F1 
 839      90017048 
 839      A60D36D4 
 839      B62F5035 
 840 060d FDAEFB3F 		.ascii	"\375\256\373?:\376\237\035\315#\272:N\350e\343\325 "
 840      3AFE9F1D 
 840      CD23BA3A 
 840      4EE865E3 
 840      D520
 841 061f 88556600 		.ascii	"\210Uf\000\2235\202\000\000\007\005\005\004\377\377"
 841      93358200 
 841      00070505 
 841      04FFFF
 842 062e FF978C75 		.ascii	"\377\227\214u\240,\177->\203\214)j\237Xe\326\373d\341"
 842      A02C7F2D 
 842      3E838C29 
 842      6A9F5865 
 842      D6FB64E1 
 843 0642 8297B09D 		.ascii	"\202\227\260\235ns<\231\232\217\010\325\006\353\024"
 843      6E733C99 
 843      9A8F08D5 
 843      06EB14
 844 0651 51B28760 		.ascii	"Q\262\207`\015\236c\354\011\312\177\270E6\333\304\301"
 844      0D9E63EC 
 844      09CA7FB8 
ARM GAS  /tmp/ccbvXVXe.s 			page 27


 844      4536DBC4 
 844      C1
 845 0662 E277107D 		.ascii	"\342w\020}\316S\234y\372oh\265f\313t1\022g\300\355\376"
 845      CE539C79 
 845      FA6F68B5 
 845      66CB7431 
 845      1267C0ED 
 846 0677 434CE92A 		.ascii	"CL\351*_\030%\226\273$\241BWp].3\374YZO\310\225\306"
 846      5F182596 
 846      BB24A142 
 846      57705D2E 
 846      33FC595A 
 847 068f ABD41172 		.ascii	"\253\324\021rG \315^#\254\311\212?x\005\366\233\204"
 847      4720CD5E 
 847      23ACC98A 
 847      3F7805F6 
 847      9B84
 848 06a1 81A237D0 		.ascii	"\201\2427\320=\216\023\\9\272/(u&\2134\361\322'\200"
 848      3D8E135C 
 848      39BA2F28 
 848      75268B34 
 848      F1D22780 
 849 06b5 ADBE030C 		.ascii	"\255\276\003\014\251\352\037\330\345V{\344a\002\027"
 849      A9EA1FD8 
 849      E5567BE4 
 849      610217
 850 06c4 301DEEF3 		.ascii	"0\035\356\363\274\031\032\017\210U\206k\224\3212\007"
 850      BC191A0F 
 850      8855866B 
 850      94D13207 
 851 06d4 E08D1EE3 		.ascii	"\340\215\036\343l\211J\377\232\000\001\233\337'4?\246"
 851      6C894AFF 
 851      9A00019B 
 851      DF27343F 
 851      A6
 852 06e5 71B40C0A 		.ascii	"q\264\014\0121\342\352\016\214@\255\275\221\244l\300"
 852      31E2EA0E 
 852      8C40ADBD 
 852      91A46CC0 
 853 06f5 54A9B7FE 		.ascii	"T\251\267\376\235\330\271'\252\272J"
 853      9DD8B927 
 853      AABA4A
 854              		.text
 855              	.Letext0:
 856              		.file 2 "/usr/lib/gcc/arm-none-eabi/10.3.1/include/stdint.h"
 857              		.file 3 "Drivers/CMSIS/Device/ST/STM32F1xx/Include/stm32f103xb.h"
 858              		.file 4 "Drivers/STM32F1xx_HAL_Driver/Inc/stm32f1xx_hal_def.h"
 859              		.file 5 "Drivers/STM32F1xx_HAL_Driver/Inc/stm32f1xx_hal_dma.h"
 860              		.file 6 "Drivers/STM32F1xx_HAL_Driver/Inc/stm32f1xx_hal_i2c.h"
 861              		.file 7 "libs/camera/camera.h"
 862              		.file 8 "Core/Inc/i2c_slave.h"
 863              		.file 9 "libs/ssdv/test_card_ssdv.h"
 864              		.file 10 "libs/watchdog/watchdog.h"
 865              		.file 11 "Drivers/STM32F1xx_HAL_Driver/Inc/stm32f1xx_hal.h"
 866              		.file 12 "/usr/include/newlib/stdio.h"
 867              		.file 13 "<built-in>"
 868              		.file 14 "libs/flash/flash.h"
ARM GAS  /tmp/ccbvXVXe.s 			page 28


ARM GAS  /tmp/ccbvXVXe.s 			page 29


DEFINED SYMBOLS
                            *ABS*:0000000000000000 i2c_slave.c
     /tmp/ccbvXVXe.s:16     .text.HAL_I2C_ListenCpltCallback:0000000000000000 $t
     /tmp/ccbvXVXe.s:24     .text.HAL_I2C_ListenCpltCallback:0000000000000000 HAL_I2C_ListenCpltCallback
     /tmp/ccbvXVXe.s:47     .text.HAL_I2C_ErrorCallback:0000000000000000 $t
     /tmp/ccbvXVXe.s:54     .text.HAL_I2C_ErrorCallback:0000000000000000 HAL_I2C_ErrorCallback
     /tmp/ccbvXVXe.s:76     .rodata.HAL_I2C_AddrCallback.str1.4:0000000000000000 $d
     /tmp/ccbvXVXe.s:83     .text.HAL_I2C_AddrCallback:0000000000000000 $t
     /tmp/ccbvXVXe.s:90     .text.HAL_I2C_AddrCallback:0000000000000000 HAL_I2C_AddrCallback
     /tmp/ccbvXVXe.s:317    .text.HAL_I2C_AddrCallback:000000000000010c $d
     /tmp/ccbvXVXe.s:331    .rodata.HAL_I2C_SlaveRxCpltCallback.str1.4:0000000000000000 $d
     /tmp/ccbvXVXe.s:362    .text.HAL_I2C_SlaveRxCpltCallback:0000000000000000 $t
     /tmp/ccbvXVXe.s:369    .text.HAL_I2C_SlaveRxCpltCallback:0000000000000000 HAL_I2C_SlaveRxCpltCallback
     /tmp/ccbvXVXe.s:626    .text.HAL_I2C_SlaveRxCpltCallback:00000000000000fc $d
     /tmp/ccbvXVXe.s:709    .bss.last_i2c_activity:0000000000000000 last_i2c_activity
     /tmp/ccbvXVXe.s:671    .bss.RxData:0000000000000000 RxData
     /tmp/ccbvXVXe.s:690    .bss.current_packet_index:0000000000000000 current_packet_index
     /tmp/ccbvXVXe.s:733    .bss.send_all_packets:0000000000000000 send_all_packets
     /tmp/ccbvXVXe.s:721    .bss.prestore_image_requested:0000000000000000 prestore_image_requested
     /tmp/ccbvXVXe.s:677    .bss.capture_requested:0000000000000000 capture_requested
     /tmp/ccbvXVXe.s:745    .data.cam_size:0000000000000000 cam_size
     /tmp/ccbvXVXe.s:696    .bss.effect:0000000000000000 effect
     /tmp/ccbvXVXe.s:727    .bss.saturation_lvl:0000000000000000 saturation_lvl
     /tmp/ccbvXVXe.s:702    .bss.exposure_lvl:0000000000000000 exposure_lvl
     /tmp/ccbvXVXe.s:683    .bss.contra_lvl:0000000000000000 contra_lvl
     /tmp/ccbvXVXe.s:739    .bss.shrp_lvl:0000000000000000 shrp_lvl
     /tmp/ccbvXVXe.s:715    .bss.lvl:0000000000000000 lvl
     /tmp/ccbvXVXe.s:752    .data.test_card_ssdv_buffer:0000000000000000 test_card_ssdv_buffer
     /tmp/ccbvXVXe.s:667    .bss.RxData:0000000000000000 $d
     /tmp/ccbvXVXe.s:678    .bss.capture_requested:0000000000000000 $d
     /tmp/ccbvXVXe.s:684    .bss.contra_lvl:0000000000000000 $d
     /tmp/ccbvXVXe.s:686    .bss.current_packet_index:0000000000000000 $d
     /tmp/ccbvXVXe.s:697    .bss.effect:0000000000000000 $d
     /tmp/ccbvXVXe.s:703    .bss.exposure_lvl:0000000000000000 $d
     /tmp/ccbvXVXe.s:705    .bss.last_i2c_activity:0000000000000000 $d
     /tmp/ccbvXVXe.s:716    .bss.lvl:0000000000000000 $d
     /tmp/ccbvXVXe.s:722    .bss.prestore_image_requested:0000000000000000 $d
     /tmp/ccbvXVXe.s:728    .bss.saturation_lvl:0000000000000000 $d
     /tmp/ccbvXVXe.s:734    .bss.send_all_packets:0000000000000000 $d
     /tmp/ccbvXVXe.s:740    .bss.shrp_lvl:0000000000000000 $d
     /tmp/ccbvXVXe.s:748    .data.test_card_ssdv_buffer:0000000000000000 $d

UNDEFINED SYMBOLS
HAL_I2C_EnableListen_IT
HAL_GetTick
HAL_I2C_Slave_Seq_Transmit_IT
printf
HAL_I2C_Slave_Seq_Receive_IT
watchdog_set_time_period
memset
flash_read_buffer
ssdv_packets_in_image
ssdv_start_addr
puts
