ARM GAS  /tmp/ccY8pCwV.s 			page 1


   1              		.cpu cortex-m3
   2              		.eabi_attribute 20, 1
   3              		.eabi_attribute 21, 1
   4              		.eabi_attribute 23, 3
   5              		.eabi_attribute 24, 1
   6              		.eabi_attribute 25, 1
   7              		.eabi_attribute 26, 1
   8              		.eabi_attribute 30, 1
   9              		.eabi_attribute 34, 1
  10              		.eabi_attribute 18, 4
  11              		.file	"i2c_slave.c"
  12              		.text
  13              	.Ltext0:
  14              		.cfi_sections	.debug_frame
  15              		.section	.text.HAL_I2C_ListenCpltCallback,"ax",%progbits
  16              		.align	1
  17              		.global	HAL_I2C_ListenCpltCallback
  18              		.arch armv7-m
  19              		.syntax unified
  20              		.thumb
  21              		.thumb_func
  22              		.fpu softvfp
  24              	HAL_I2C_ListenCpltCallback:
  25              	.LVL0:
  26              	.LFB68:
  27              		.file 1 "Core/Src/i2c_slave.c"
   1:Core/Src/i2c_slave.c **** #include "main.h"
   2:Core/Src/i2c_slave.c **** #include "i2c_slave.h"
   3:Core/Src/i2c_slave.c **** #include "camera.h"
   4:Core/Src/i2c_slave.c **** #include "test_card_ssdv.h"
   5:Core/Src/i2c_slave.c **** #include "watchdog.h"
   6:Core/Src/i2c_slave.c **** 
   7:Core/Src/i2c_slave.c **** #define CAM_BRIGHTNESS_LEVEL_CMD  0x30
   8:Core/Src/i2c_slave.c **** #define CAM_SHARPNESS_LEVEL_CMD   0x40
   9:Core/Src/i2c_slave.c **** #define CAM_CONTRAST_LEVEL_CMD    0x50
  10:Core/Src/i2c_slave.c **** #define CAM_EV_LEVEL_CMD          0x60
  11:Core/Src/i2c_slave.c **** #define CAM_STAURATION_LEVEL_CMD  0x70
  12:Core/Src/i2c_slave.c **** #define CAM_COLOR_FX_CMD          0x80
  13:Core/Src/i2c_slave.c **** 
  14:Core/Src/i2c_slave.c **** volatile CAM_BRIGHTNESS_LEVEL lvl = 0;
  15:Core/Src/i2c_slave.c **** volatile CAM_SHARPNESS_LEVEL shrp_lvl = 0;
  16:Core/Src/i2c_slave.c **** volatile CAM_CONTRAST_LEVEL contra_lvl = 0;
  17:Core/Src/i2c_slave.c **** volatile CAM_EV_LEVEL exposure_lvl = 0;
  18:Core/Src/i2c_slave.c **** volatile CAM_STAURATION_LEVEL saturation_lvl = 0;
  19:Core/Src/i2c_slave.c **** volatile CAM_COLOR_FX effect = 0;
  20:Core/Src/i2c_slave.c **** 
  21:Core/Src/i2c_slave.c **** volatile uint8_t capture_requested = 0;
  22:Core/Src/i2c_slave.c **** volatile uint8_t prestore_image_requested = 0;
  23:Core/Src/i2c_slave.c **** 
  24:Core/Src/i2c_slave.c **** volatile uint8_t send_all_packets = 0;
  25:Core/Src/i2c_slave.c **** volatile uint16_t current_packet_index = 0;
  26:Core/Src/i2c_slave.c **** 
  27:Core/Src/i2c_slave.c **** extern uint32_t ssdv_start_addr;
  28:Core/Src/i2c_slave.c **** extern uint32_t ssdv_packets_in_image;
  29:Core/Src/i2c_slave.c **** 
  30:Core/Src/i2c_slave.c **** extern I2C_HandleTypeDef hi2c2;
  31:Core/Src/i2c_slave.c **** #define RxSize 2
ARM GAS  /tmp/ccY8pCwV.s 			page 2


  32:Core/Src/i2c_slave.c **** uint8_t RxData[RxSize];
  33:Core/Src/i2c_slave.c **** 
  34:Core/Src/i2c_slave.c **** uint32_t last_i2c_activity = 0; // ⬅️ Added for timeout tracking
  35:Core/Src/i2c_slave.c **** 
  36:Core/Src/i2c_slave.c **** 
  37:Core/Src/i2c_slave.c **** void HAL_I2C_ListenCpltCallback(I2C_HandleTypeDef *hi2c)
  38:Core/Src/i2c_slave.c **** {
  28              		.loc 1 38 1 view -0
  29              		.cfi_startproc
  30              		@ args = 0, pretend = 0, frame = 0
  31              		@ frame_needed = 0, uses_anonymous_args = 0
  32              		.loc 1 38 1 is_stmt 0 view .LVU1
  33 0000 08B5     		push	{r3, lr}
  34              	.LCFI0:
  35              		.cfi_def_cfa_offset 8
  36              		.cfi_offset 3, -8
  37              		.cfi_offset 14, -4
  39:Core/Src/i2c_slave.c ****     HAL_I2C_EnableListen_IT(hi2c);
  38              		.loc 1 39 5 is_stmt 1 view .LVU2
  39 0002 FFF7FEFF 		bl	HAL_I2C_EnableListen_IT
  40              	.LVL1:
  40:Core/Src/i2c_slave.c **** }
  41              		.loc 1 40 1 is_stmt 0 view .LVU3
  42 0006 08BD     		pop	{r3, pc}
  43              		.cfi_endproc
  44              	.LFE68:
  46              		.section	.text.HAL_I2C_ErrorCallback,"ax",%progbits
  47              		.align	1
  48              		.global	HAL_I2C_ErrorCallback
  49              		.syntax unified
  50              		.thumb
  51              		.thumb_func
  52              		.fpu softvfp
  54              	HAL_I2C_ErrorCallback:
  55              	.LVL2:
  56              	.LFB69:
  41:Core/Src/i2c_slave.c **** 
  42:Core/Src/i2c_slave.c **** 
  43:Core/Src/i2c_slave.c **** void HAL_I2C_ErrorCallback(I2C_HandleTypeDef *hi2c)
  44:Core/Src/i2c_slave.c **** {
  57              		.loc 1 44 1 is_stmt 1 view -0
  58              		.cfi_startproc
  59              		@ args = 0, pretend = 0, frame = 0
  60              		@ frame_needed = 0, uses_anonymous_args = 0
  61              		.loc 1 44 1 is_stmt 0 view .LVU5
  62 0000 08B5     		push	{r3, lr}
  63              	.LCFI1:
  64              		.cfi_def_cfa_offset 8
  65              		.cfi_offset 3, -8
  66              		.cfi_offset 14, -4
  45:Core/Src/i2c_slave.c ****     HAL_I2C_EnableListen_IT(hi2c);
  67              		.loc 1 45 5 is_stmt 1 view .LVU6
  68 0002 FFF7FEFF 		bl	HAL_I2C_EnableListen_IT
  69              	.LVL3:
  46:Core/Src/i2c_slave.c **** }
  70              		.loc 1 46 1 is_stmt 0 view .LVU7
  71 0006 08BD     		pop	{r3, pc}
ARM GAS  /tmp/ccY8pCwV.s 			page 3


  72              		.cfi_endproc
  73              	.LFE69:
  75              		.section	.rodata.HAL_I2C_AddrCallback.str1.4,"aMS",%progbits,1
  76              		.align	2
  77              	.LC0:
  78 0000 53656E74 		.ascii	"Sent test SSDV packet %d\012\000"
  78      20746573 
  78      74205353 
  78      44562070 
  78      61636B65 
  79 001a 0000     		.align	2
  80              	.LC1:
  81 001c 53656E74 		.ascii	"Sent flash SSDV packet %d\012\000"
  81      20666C61 
  81      73682053 
  81      53445620 
  81      7061636B 
  82              		.section	.text.HAL_I2C_AddrCallback,"ax",%progbits
  83              		.align	1
  84              		.global	HAL_I2C_AddrCallback
  85              		.syntax unified
  86              		.thumb
  87              		.thumb_func
  88              		.fpu softvfp
  90              	HAL_I2C_AddrCallback:
  91              	.LVL4:
  92              	.LFB70:
  47:Core/Src/i2c_slave.c **** 
  48:Core/Src/i2c_slave.c **** // void check_i2c_timeout()
  49:Core/Src/i2c_slave.c **** // {
  50:Core/Src/i2c_slave.c **** //     if (HAL_GetTick() - last_i2c_activity > 3000) // 3 seconds no I2C activity
  51:Core/Src/i2c_slave.c **** //     {
  52:Core/Src/i2c_slave.c **** //         if (__HAL_I2C_GET_FLAG(&hi2c2, I2C_FLAG_BUSY))
  53:Core/Src/i2c_slave.c **** //         {
  54:Core/Src/i2c_slave.c **** //             printf("I2C bus stuck, resetting...\r\n");
  55:Core/Src/i2c_slave.c **** //             __HAL_RCC_I2C2_FORCE_RESET();
  56:Core/Src/i2c_slave.c **** //             HAL_Delay(1);
  57:Core/Src/i2c_slave.c **** //             __HAL_RCC_I2C2_RELEASE_RESET();
  58:Core/Src/i2c_slave.c **** //             MX_I2C2_Init();  // Your re-init function
  59:Core/Src/i2c_slave.c **** //             HAL_I2C_EnableListen_IT(&hi2c2);
  60:Core/Src/i2c_slave.c **** 
  61:Core/Src/i2c_slave.c **** //             // Optional: clear flags
  62:Core/Src/i2c_slave.c **** //             capture_requested = 0;
  63:Core/Src/i2c_slave.c **** //             send_all_packets = 0;
  64:Core/Src/i2c_slave.c **** //             prestore_image_requested = 0;
  65:Core/Src/i2c_slave.c **** //             current_packet_index = 0;
  66:Core/Src/i2c_slave.c **** //         }
  67:Core/Src/i2c_slave.c **** //         last_i2c_activity = HAL_GetTick(); // Prevent repeated reset
  68:Core/Src/i2c_slave.c **** //     }
  69:Core/Src/i2c_slave.c **** // }
  70:Core/Src/i2c_slave.c **** 
  71:Core/Src/i2c_slave.c **** 
  72:Core/Src/i2c_slave.c **** void HAL_I2C_AddrCallback(I2C_HandleTypeDef *hi2c, uint8_t TransferDirection, uint16_t AddrMatchCod
  73:Core/Src/i2c_slave.c **** {
  93              		.loc 1 73 1 is_stmt 1 view -0
  94              		.cfi_startproc
  95              		@ args = 0, pretend = 0, frame = 224
ARM GAS  /tmp/ccY8pCwV.s 			page 4


  96              		@ frame_needed = 0, uses_anonymous_args = 0
  97              		.loc 1 73 1 is_stmt 0 view .LVU9
  98 0000 30B5     		push	{r4, r5, lr}
  99              	.LCFI2:
 100              		.cfi_def_cfa_offset 12
 101              		.cfi_offset 4, -12
 102              		.cfi_offset 5, -8
 103              		.cfi_offset 14, -4
 104 0002 B9B0     		sub	sp, sp, #228
 105              	.LCFI3:
 106              		.cfi_def_cfa_offset 240
 107 0004 0546     		mov	r5, r0
 108 0006 0C46     		mov	r4, r1
  74:Core/Src/i2c_slave.c ****     last_i2c_activity = HAL_GetTick(); // ⬅️ Activity timestamp
 109              		.loc 1 74 5 is_stmt 1 view .LVU10
 110              		.loc 1 74 25 is_stmt 0 view .LVU11
 111 0008 FFF7FEFF 		bl	HAL_GetTick
 112              	.LVL5:
 113              		.loc 1 74 23 view .LVU12
 114 000c 3F4B     		ldr	r3, .L16
 115 000e 1860     		str	r0, [r3]
  75:Core/Src/i2c_slave.c **** 
  76:Core/Src/i2c_slave.c ****     if (TransferDirection == I2C_DIRECTION_TRANSMIT)
 116              		.loc 1 76 5 is_stmt 1 view .LVU13
 117              		.loc 1 76 8 is_stmt 0 view .LVU14
 118 0010 012C     		cmp	r4, #1
 119 0012 21D0     		beq	.L14
  77:Core/Src/i2c_slave.c ****     {
  78:Core/Src/i2c_slave.c ****         HAL_I2C_Slave_Seq_Receive_IT(hi2c, RxData, RxSize, I2C_FIRST_AND_LAST_FRAME);
  79:Core/Src/i2c_slave.c ****     }
  80:Core/Src/i2c_slave.c ****     else if (TransferDirection == I2C_DIRECTION_RECEIVE)
 120              		.loc 1 80 10 is_stmt 1 view .LVU15
 121              		.loc 1 80 13 is_stmt 0 view .LVU16
 122 0014 34BB     		cbnz	r4, .L5
  81:Core/Src/i2c_slave.c ****     {
  82:Core/Src/i2c_slave.c ****         if (prestore_image_requested)
 123              		.loc 1 82 9 is_stmt 1 view .LVU17
 124              		.loc 1 82 13 is_stmt 0 view .LVU18
 125 0016 3E4B     		ldr	r3, .L16+4
 126 0018 1B78     		ldrb	r3, [r3]	@ zero_extendqisi2
 127              		.loc 1 82 12 view .LVU19
 128 001a 002B     		cmp	r3, #0
 129 001c 36D0     		beq	.L8
  83:Core/Src/i2c_slave.c ****         {
  84:Core/Src/i2c_slave.c ****             if (current_packet_index < 8)
 130              		.loc 1 84 13 is_stmt 1 view .LVU20
 131              		.loc 1 84 38 is_stmt 0 view .LVU21
 132 001e 3D4B     		ldr	r3, .L16+8
 133 0020 1B88     		ldrh	r3, [r3]
 134 0022 9BB2     		uxth	r3, r3
 135              		.loc 1 84 16 view .LVU22
 136 0024 072B     		cmp	r3, #7
 137 0026 1FD8     		bhi	.L9
  85:Core/Src/i2c_slave.c ****             {
  86:Core/Src/i2c_slave.c ****                 HAL_I2C_Slave_Seq_Transmit_IT(hi2c,
 138              		.loc 1 86 17 is_stmt 1 view .LVU23
  87:Core/Src/i2c_slave.c ****                     &test_card_ssdv_buffer[current_packet_index * SSDV_PKT_SIZE],
ARM GAS  /tmp/ccY8pCwV.s 			page 5


 139              		.loc 1 87 65 is_stmt 0 view .LVU24
 140 0028 3A4C     		ldr	r4, .L16+8
 141 002a 2188     		ldrh	r1, [r4]
 142 002c 89B2     		uxth	r1, r1
 143 002e C1EBC101 		rsb	r1, r1, r1, lsl #3
  86:Core/Src/i2c_slave.c ****                     &test_card_ssdv_buffer[current_packet_index * SSDV_PKT_SIZE],
 144              		.loc 1 86 17 view .LVU25
 145 0032 0823     		movs	r3, #8
 146 0034 E022     		movs	r2, #224
 147 0036 3848     		ldr	r0, .L16+12
 148 0038 00EB4111 		add	r1, r0, r1, lsl #5
 149 003c 2846     		mov	r0, r5
 150 003e FFF7FEFF 		bl	HAL_I2C_Slave_Seq_Transmit_IT
 151              	.LVL6:
  88:Core/Src/i2c_slave.c ****                     SSDV_PKT_SIZE,
  89:Core/Src/i2c_slave.c ****                     I2C_FIRST_AND_LAST_FRAME);
  90:Core/Src/i2c_slave.c ****                 printf("Sent test SSDV packet %d\n", current_packet_index);
 152              		.loc 1 90 17 is_stmt 1 view .LVU26
 153 0042 2188     		ldrh	r1, [r4]
 154 0044 89B2     		uxth	r1, r1
 155 0046 3548     		ldr	r0, .L16+16
 156 0048 FFF7FEFF 		bl	printf
 157              	.LVL7:
  91:Core/Src/i2c_slave.c ****                 current_packet_index++;
 158              		.loc 1 91 17 view .LVU27
 159              		.loc 1 91 37 is_stmt 0 view .LVU28
 160 004c 2388     		ldrh	r3, [r4]
 161 004e 9BB2     		uxth	r3, r3
 162 0050 0133     		adds	r3, r3, #1
 163 0052 9BB2     		uxth	r3, r3
 164 0054 2380     		strh	r3, [r4]	@ movhi
 165 0056 05E0     		b	.L5
 166              	.L14:
  78:Core/Src/i2c_slave.c ****     }
 167              		.loc 1 78 9 is_stmt 1 view .LVU29
 168 0058 0823     		movs	r3, #8
 169 005a 0222     		movs	r2, #2
 170 005c 3049     		ldr	r1, .L16+20
 171 005e 2846     		mov	r0, r5
 172 0060 FFF7FEFF 		bl	HAL_I2C_Slave_Seq_Receive_IT
 173              	.LVL8:
 174              	.L5:
  92:Core/Src/i2c_slave.c ****             }
  93:Core/Src/i2c_slave.c ****             else
  94:Core/Src/i2c_slave.c ****             {
  95:Core/Src/i2c_slave.c ****                 uint8_t dummy[1] = {0xFF};
  96:Core/Src/i2c_slave.c ****                 HAL_I2C_Slave_Seq_Transmit_IT(hi2c, dummy, 1, I2C_FIRST_AND_LAST_FRAME);
  97:Core/Src/i2c_slave.c ****                 prestore_image_requested = 0;
  98:Core/Src/i2c_slave.c ****                 current_packet_index = 0;
  99:Core/Src/i2c_slave.c ****                 watchdog_set_time_period(WD_DELAY_1_S);
 100:Core/Src/i2c_slave.c ****                 while (1); // 
 101:Core/Src/i2c_slave.c ****             }
 102:Core/Src/i2c_slave.c ****         }
 103:Core/Src/i2c_slave.c ****         else if (send_all_packets && current_packet_index < ssdv_packets_in_image)
 104:Core/Src/i2c_slave.c ****         {
 105:Core/Src/i2c_slave.c ****             uint8_t ssdv_pkt[SSDV_PKT_SIZE] = {0};
 106:Core/Src/i2c_slave.c ****             flash_read_buffer(ssdv_pkt,
ARM GAS  /tmp/ccY8pCwV.s 			page 6


 107:Core/Src/i2c_slave.c ****                 ssdv_start_addr + current_packet_index * SSDV_PKT_SIZE,
 108:Core/Src/i2c_slave.c ****                 SSDV_PKT_SIZE);
 109:Core/Src/i2c_slave.c **** 
 110:Core/Src/i2c_slave.c ****             HAL_I2C_Slave_Seq_Transmit_IT(hi2c, ssdv_pkt, SSDV_PKT_SIZE, I2C_FIRST_AND_LAST_FRAME);
 111:Core/Src/i2c_slave.c ****             printf("Sent flash SSDV packet %d\n", current_packet_index);
 112:Core/Src/i2c_slave.c ****             current_packet_index++;
 113:Core/Src/i2c_slave.c ****         }
 114:Core/Src/i2c_slave.c ****         else
 115:Core/Src/i2c_slave.c ****         {
 116:Core/Src/i2c_slave.c ****             uint8_t dummy[1] = {0xFF};
 117:Core/Src/i2c_slave.c ****             HAL_I2C_Slave_Seq_Transmit_IT(hi2c, dummy, 1, I2C_FIRST_AND_LAST_FRAME);
 118:Core/Src/i2c_slave.c ****             send_all_packets = 0;
 119:Core/Src/i2c_slave.c ****             current_packet_index = 0;
 120:Core/Src/i2c_slave.c ****             watchdog_set_time_period(WD_DELAY_1_S);
 121:Core/Src/i2c_slave.c ****             while (1); // 
 122:Core/Src/i2c_slave.c ****         }
 123:Core/Src/i2c_slave.c ****     }
 124:Core/Src/i2c_slave.c **** }
 175              		.loc 1 124 1 is_stmt 0 view .LVU30
 176 0064 39B0     		add	sp, sp, #228
 177              	.LCFI4:
 178              		.cfi_remember_state
 179              		.cfi_def_cfa_offset 12
 180              		@ sp needed
 181 0066 30BD     		pop	{r4, r5, pc}
 182              	.LVL9:
 183              	.L9:
 184              	.LCFI5:
 185              		.cfi_restore_state
 186              	.LBB2:
  95:Core/Src/i2c_slave.c ****                 HAL_I2C_Slave_Seq_Transmit_IT(hi2c, dummy, 1, I2C_FIRST_AND_LAST_FRAME);
 187              		.loc 1 95 17 is_stmt 1 view .LVU31
  95:Core/Src/i2c_slave.c ****                 HAL_I2C_Slave_Seq_Transmit_IT(hi2c, dummy, 1, I2C_FIRST_AND_LAST_FRAME);
 188              		.loc 1 95 25 is_stmt 0 view .LVU32
 189 0068 FF23     		movs	r3, #255
 190 006a 8DF80030 		strb	r3, [sp]
  96:Core/Src/i2c_slave.c ****                 prestore_image_requested = 0;
 191              		.loc 1 96 17 is_stmt 1 view .LVU33
 192 006e 0823     		movs	r3, #8
 193 0070 0122     		movs	r2, #1
 194 0072 6946     		mov	r1, sp
 195 0074 2846     		mov	r0, r5
 196 0076 FFF7FEFF 		bl	HAL_I2C_Slave_Seq_Transmit_IT
 197              	.LVL10:
  97:Core/Src/i2c_slave.c ****                 current_packet_index = 0;
 198              		.loc 1 97 17 view .LVU34
  97:Core/Src/i2c_slave.c ****                 current_packet_index = 0;
 199              		.loc 1 97 42 is_stmt 0 view .LVU35
 200 007a 0023     		movs	r3, #0
 201 007c 244A     		ldr	r2, .L16+4
 202 007e 1370     		strb	r3, [r2]
  98:Core/Src/i2c_slave.c ****                 watchdog_set_time_period(WD_DELAY_1_S);
 203              		.loc 1 98 17 is_stmt 1 view .LVU36
  98:Core/Src/i2c_slave.c ****                 watchdog_set_time_period(WD_DELAY_1_S);
 204              		.loc 1 98 38 is_stmt 0 view .LVU37
 205 0080 244A     		ldr	r2, .L16+8
 206 0082 1380     		strh	r3, [r2]	@ movhi
ARM GAS  /tmp/ccY8pCwV.s 			page 7


  99:Core/Src/i2c_slave.c ****                 while (1); // 
 207              		.loc 1 99 17 is_stmt 1 view .LVU38
 208 0084 0420     		movs	r0, #4
 209 0086 FFF7FEFF 		bl	watchdog_set_time_period
 210              	.LVL11:
 211              	.L10:
 100:Core/Src/i2c_slave.c ****             }
 212              		.loc 1 100 17 discriminator 1 view .LVU39
 100:Core/Src/i2c_slave.c ****             }
 213              		.loc 1 100 26 discriminator 1 view .LVU40
 100:Core/Src/i2c_slave.c ****             }
 214              		.loc 1 100 23 discriminator 1 view .LVU41
 215 008a FEE7     		b	.L10
 216              	.L8:
 100:Core/Src/i2c_slave.c ****             }
 217              		.loc 1 100 23 is_stmt 0 discriminator 1 view .LVU42
 218              	.LBE2:
 103:Core/Src/i2c_slave.c ****         {
 219              		.loc 1 103 14 is_stmt 1 view .LVU43
 103:Core/Src/i2c_slave.c ****         {
 220              		.loc 1 103 18 is_stmt 0 view .LVU44
 221 008c 254B     		ldr	r3, .L16+24
 222 008e 1B78     		ldrb	r3, [r3]	@ zero_extendqisi2
 103:Core/Src/i2c_slave.c ****         {
 223              		.loc 1 103 17 view .LVU45
 224 0090 33B1     		cbz	r3, .L11
 103:Core/Src/i2c_slave.c ****         {
 225              		.loc 1 103 59 discriminator 1 view .LVU46
 226 0092 204B     		ldr	r3, .L16+8
 227 0094 1B88     		ldrh	r3, [r3]
 228 0096 9BB2     		uxth	r3, r3
 229 0098 234A     		ldr	r2, .L16+28
 230 009a 1268     		ldr	r2, [r2]
 103:Core/Src/i2c_slave.c ****         {
 231              		.loc 1 103 35 discriminator 1 view .LVU47
 232 009c 9342     		cmp	r3, r2
 233 009e 11D3     		bcc	.L15
 234              	.L11:
 235              	.LBB3:
 116:Core/Src/i2c_slave.c ****             HAL_I2C_Slave_Seq_Transmit_IT(hi2c, dummy, 1, I2C_FIRST_AND_LAST_FRAME);
 236              		.loc 1 116 13 is_stmt 1 view .LVU48
 116:Core/Src/i2c_slave.c ****             HAL_I2C_Slave_Seq_Transmit_IT(hi2c, dummy, 1, I2C_FIRST_AND_LAST_FRAME);
 237              		.loc 1 116 21 is_stmt 0 view .LVU49
 238 00a0 FF23     		movs	r3, #255
 239 00a2 8DF80030 		strb	r3, [sp]
 117:Core/Src/i2c_slave.c ****             send_all_packets = 0;
 240              		.loc 1 117 13 is_stmt 1 view .LVU50
 241 00a6 0823     		movs	r3, #8
 242 00a8 0122     		movs	r2, #1
 243 00aa 6946     		mov	r1, sp
 244 00ac 2846     		mov	r0, r5
 245 00ae FFF7FEFF 		bl	HAL_I2C_Slave_Seq_Transmit_IT
 246              	.LVL12:
 118:Core/Src/i2c_slave.c ****             current_packet_index = 0;
 247              		.loc 1 118 13 view .LVU51
 118:Core/Src/i2c_slave.c ****             current_packet_index = 0;
 248              		.loc 1 118 30 is_stmt 0 view .LVU52
ARM GAS  /tmp/ccY8pCwV.s 			page 8


 249 00b2 0023     		movs	r3, #0
 250 00b4 1B4A     		ldr	r2, .L16+24
 251 00b6 1370     		strb	r3, [r2]
 119:Core/Src/i2c_slave.c ****             watchdog_set_time_period(WD_DELAY_1_S);
 252              		.loc 1 119 13 is_stmt 1 view .LVU53
 119:Core/Src/i2c_slave.c ****             watchdog_set_time_period(WD_DELAY_1_S);
 253              		.loc 1 119 34 is_stmt 0 view .LVU54
 254 00b8 164A     		ldr	r2, .L16+8
 255 00ba 1380     		strh	r3, [r2]	@ movhi
 120:Core/Src/i2c_slave.c ****             while (1); // 
 256              		.loc 1 120 13 is_stmt 1 view .LVU55
 257 00bc 0420     		movs	r0, #4
 258 00be FFF7FEFF 		bl	watchdog_set_time_period
 259              	.LVL13:
 260              	.L12:
 121:Core/Src/i2c_slave.c ****         }
 261              		.loc 1 121 13 discriminator 2 view .LVU56
 121:Core/Src/i2c_slave.c ****         }
 262              		.loc 1 121 22 discriminator 2 view .LVU57
 121:Core/Src/i2c_slave.c ****         }
 263              		.loc 1 121 19 discriminator 2 view .LVU58
 264 00c2 FEE7     		b	.L12
 265              	.L15:
 121:Core/Src/i2c_slave.c ****         }
 266              		.loc 1 121 19 is_stmt 0 discriminator 2 view .LVU59
 267              	.LBE3:
 268              	.LBB4:
 105:Core/Src/i2c_slave.c ****             flash_read_buffer(ssdv_pkt,
 269              		.loc 1 105 13 is_stmt 1 view .LVU60
 105:Core/Src/i2c_slave.c ****             flash_read_buffer(ssdv_pkt,
 270              		.loc 1 105 21 is_stmt 0 view .LVU61
 271 00c4 0021     		movs	r1, #0
 272 00c6 0091     		str	r1, [sp]
 273 00c8 DC22     		movs	r2, #220
 274 00ca 01A8     		add	r0, sp, #4
 275 00cc FFF7FEFF 		bl	memset
 276              	.LVL14:
 106:Core/Src/i2c_slave.c ****                 ssdv_start_addr + current_packet_index * SSDV_PKT_SIZE,
 277              		.loc 1 106 13 is_stmt 1 view .LVU62
 107:Core/Src/i2c_slave.c ****                 SSDV_PKT_SIZE);
 278              		.loc 1 107 56 is_stmt 0 view .LVU63
 279 00d0 104C     		ldr	r4, .L16+8
 280 00d2 2188     		ldrh	r1, [r4]
 281 00d4 89B2     		uxth	r1, r1
 282 00d6 C1EBC101 		rsb	r1, r1, r1, lsl #3
 106:Core/Src/i2c_slave.c ****                 ssdv_start_addr + current_packet_index * SSDV_PKT_SIZE,
 283              		.loc 1 106 13 view .LVU64
 284 00da 144B     		ldr	r3, .L16+32
 285 00dc 1B68     		ldr	r3, [r3]
 286 00de E022     		movs	r2, #224
 287 00e0 03EB4111 		add	r1, r3, r1, lsl #5
 288 00e4 6846     		mov	r0, sp
 289 00e6 FFF7FEFF 		bl	flash_read_buffer
 290              	.LVL15:
 110:Core/Src/i2c_slave.c ****             printf("Sent flash SSDV packet %d\n", current_packet_index);
 291              		.loc 1 110 13 is_stmt 1 view .LVU65
 292 00ea 0823     		movs	r3, #8
ARM GAS  /tmp/ccY8pCwV.s 			page 9


 293 00ec E022     		movs	r2, #224
 294 00ee 6946     		mov	r1, sp
 295 00f0 2846     		mov	r0, r5
 296 00f2 FFF7FEFF 		bl	HAL_I2C_Slave_Seq_Transmit_IT
 297              	.LVL16:
 111:Core/Src/i2c_slave.c ****             current_packet_index++;
 298              		.loc 1 111 13 view .LVU66
 299 00f6 2188     		ldrh	r1, [r4]
 300 00f8 89B2     		uxth	r1, r1
 301 00fa 0D48     		ldr	r0, .L16+36
 302 00fc FFF7FEFF 		bl	printf
 303              	.LVL17:
 112:Core/Src/i2c_slave.c ****         }
 304              		.loc 1 112 13 view .LVU67
 112:Core/Src/i2c_slave.c ****         }
 305              		.loc 1 112 33 is_stmt 0 view .LVU68
 306 0100 2388     		ldrh	r3, [r4]
 307 0102 9BB2     		uxth	r3, r3
 308 0104 0133     		adds	r3, r3, #1
 309 0106 9BB2     		uxth	r3, r3
 310 0108 2380     		strh	r3, [r4]	@ movhi
 311              	.LBE4:
 104:Core/Src/i2c_slave.c ****             uint8_t ssdv_pkt[SSDV_PKT_SIZE] = {0};
 312              		.loc 1 104 9 view .LVU69
 313 010a ABE7     		b	.L5
 314              	.L17:
 315              		.align	2
 316              	.L16:
 317 010c 00000000 		.word	.LANCHOR0
 318 0110 00000000 		.word	.LANCHOR2
 319 0114 00000000 		.word	.LANCHOR3
 320 0118 00000000 		.word	.LANCHOR4
 321 011c 00000000 		.word	.LC0
 322 0120 00000000 		.word	.LANCHOR1
 323 0124 00000000 		.word	.LANCHOR5
 324 0128 00000000 		.word	ssdv_packets_in_image
 325 012c 00000000 		.word	ssdv_start_addr
 326 0130 1C000000 		.word	.LC1
 327              		.cfi_endproc
 328              	.LFE70:
 330              		.section	.rodata.HAL_I2C_SlaveRxCpltCallback.str1.4,"aMS",%progbits,1
 331              		.align	2
 332              	.LC2:
 333 0000 43617074 		.ascii	"Capture command received\015\000"
 333      75726520 
 333      636F6D6D 
 333      616E6420 
 333      72656365 
 334 001a 0000     		.align	2
 335              	.LC3:
 336 001c 53534456 		.ascii	"SSDV stream requested\015\000"
 336      20737472 
 336      65616D20 
 336      72657175 
 336      65737465 
 337 0033 00       		.align	2
 338              	.LC4:
ARM GAS  /tmp/ccY8pCwV.s 			page 10


 339 0034 50726573 		.ascii	"Prestored command received\015\000"
 339      746F7265 
 339      6420636F 
 339      6D6D616E 
 339      64207265 
 340              		.align	2
 341              	.LC5:
 342 0050 42726967 		.ascii	"Brightness level: %i\012\000"
 342      68746E65 
 342      7373206C 
 342      6576656C 
 342      3A202569 
 343 0066 0000     		.align	2
 344              	.LC6:
 345 0068 53686172 		.ascii	"Sharpness level: %i\012\000"
 345      706E6573 
 345      73206C65 
 345      76656C3A 
 345      2025690A 
 346 007d 000000   		.align	2
 347              	.LC7:
 348 0080 436F6E74 		.ascii	"Contrast level: %i\012\000"
 348      72617374 
 348      206C6576 
 348      656C3A20 
 348      25690A00 
 349              		.align	2
 350              	.LC8:
 351 0094 4578706F 		.ascii	"Exposure level: %i\012\000"
 351      73757265 
 351      206C6576 
 351      656C3A20 
 351      25690A00 
 352              		.align	2
 353              	.LC9:
 354 00a8 53617475 		.ascii	"Saturation level: %i\012\000"
 354      72617469 
 354      6F6E206C 
 354      6576656C 
 354      3A202569 
 355 00be 0000     		.align	2
 356              	.LC10:
 357 00c0 45666665 		.ascii	"Effect: %i\012\000"
 357      63743A20 
 357      25690A00 
 358              		.section	.text.HAL_I2C_SlaveRxCpltCallback,"ax",%progbits
 359              		.align	1
 360              		.global	HAL_I2C_SlaveRxCpltCallback
 361              		.syntax unified
 362              		.thumb
 363              		.thumb_func
 364              		.fpu softvfp
 366              	HAL_I2C_SlaveRxCpltCallback:
 367              	.LVL18:
 368              	.LFB71:
 125:Core/Src/i2c_slave.c **** 
 126:Core/Src/i2c_slave.c **** void HAL_I2C_SlaveRxCpltCallback(I2C_HandleTypeDef *hi2c)
ARM GAS  /tmp/ccY8pCwV.s 			page 11


 127:Core/Src/i2c_slave.c **** {
 369              		.loc 1 127 1 is_stmt 1 view -0
 370              		.cfi_startproc
 371              		@ args = 0, pretend = 0, frame = 0
 372              		@ frame_needed = 0, uses_anonymous_args = 0
 373              		.loc 1 127 1 is_stmt 0 view .LVU71
 374 0000 08B5     		push	{r3, lr}
 375              	.LCFI6:
 376              		.cfi_def_cfa_offset 8
 377              		.cfi_offset 3, -8
 378              		.cfi_offset 14, -4
 128:Core/Src/i2c_slave.c ****     last_i2c_activity = HAL_GetTick(); // ⬅️ Activity timestamp
 379              		.loc 1 128 5 is_stmt 1 view .LVU72
 380              		.loc 1 128 25 is_stmt 0 view .LVU73
 381 0002 FFF7FEFF 		bl	HAL_GetTick
 382              	.LVL19:
 383              		.loc 1 128 23 view .LVU74
 384 0006 384B     		ldr	r3, .L37
 385 0008 1860     		str	r0, [r3]
 129:Core/Src/i2c_slave.c **** 
 130:Core/Src/i2c_slave.c ****     uint8_t cmd = RxData[0];
 386              		.loc 1 130 5 is_stmt 1 view .LVU75
 387              		.loc 1 130 13 is_stmt 0 view .LVU76
 388 000a 384B     		ldr	r3, .L37+4
 389 000c 1B78     		ldrb	r3, [r3]	@ zero_extendqisi2
 390              	.LVL20:
 131:Core/Src/i2c_slave.c **** 
 132:Core/Src/i2c_slave.c ****     if (cmd == 0x10) // Capture
 391              		.loc 1 132 5 is_stmt 1 view .LVU77
 392              		.loc 1 132 8 is_stmt 0 view .LVU78
 393 000e 102B     		cmp	r3, #16
 394 0010 18D0     		beq	.L29
 133:Core/Src/i2c_slave.c ****     {
 134:Core/Src/i2c_slave.c ****         printf("Capture command received\r\n");
 135:Core/Src/i2c_slave.c ****         capture_requested = 1;
 136:Core/Src/i2c_slave.c ****         send_all_packets = 0;
 137:Core/Src/i2c_slave.c ****         prestore_image_requested = 0;
 138:Core/Src/i2c_slave.c ****         current_packet_index = 0;
 139:Core/Src/i2c_slave.c ****     }
 140:Core/Src/i2c_slave.c ****     else if (cmd == 0x20) // Stream SSDV
 395              		.loc 1 140 10 is_stmt 1 view .LVU79
 396              		.loc 1 140 13 is_stmt 0 view .LVU80
 397 0012 202B     		cmp	r3, #32
 398 0014 24D0     		beq	.L30
 141:Core/Src/i2c_slave.c ****     {
 142:Core/Src/i2c_slave.c ****         printf("SSDV stream requested\r\n");
 143:Core/Src/i2c_slave.c ****         send_all_packets = 1;
 144:Core/Src/i2c_slave.c ****         current_packet_index = 0;
 145:Core/Src/i2c_slave.c ****     }
 146:Core/Src/i2c_slave.c ****     else if (cmd == 0x90) // Prestored
 399              		.loc 1 146 10 is_stmt 1 view .LVU81
 400              		.loc 1 146 13 is_stmt 0 view .LVU82
 401 0016 902B     		cmp	r3, #144
 402 0018 2CD0     		beq	.L31
 147:Core/Src/i2c_slave.c ****     {
 148:Core/Src/i2c_slave.c ****         printf("Prestored command received\r\n");
 149:Core/Src/i2c_slave.c ****         prestore_image_requested = 1;
ARM GAS  /tmp/ccY8pCwV.s 			page 12


 150:Core/Src/i2c_slave.c ****         send_all_packets = 1;
 151:Core/Src/i2c_slave.c ****         current_packet_index = 0;
 152:Core/Src/i2c_slave.c ****     }
 153:Core/Src/i2c_slave.c ****     else if (cmd == CAM_BRIGHTNESS_LEVEL_CMD)
 403              		.loc 1 153 10 is_stmt 1 view .LVU83
 404              		.loc 1 153 13 is_stmt 0 view .LVU84
 405 001a 302B     		cmp	r3, #48
 406 001c 36D0     		beq	.L32
 154:Core/Src/i2c_slave.c ****     {
 155:Core/Src/i2c_slave.c ****         lvl = RxData[1];
 156:Core/Src/i2c_slave.c ****         printf("Brightness level: %i\n", lvl);
 157:Core/Src/i2c_slave.c ****     }
 158:Core/Src/i2c_slave.c ****     else if (cmd == CAM_SHARPNESS_LEVEL_CMD)
 407              		.loc 1 158 10 is_stmt 1 view .LVU85
 408              		.loc 1 158 13 is_stmt 0 view .LVU86
 409 001e 402B     		cmp	r3, #64
 410 0020 3DD0     		beq	.L33
 159:Core/Src/i2c_slave.c ****     {
 160:Core/Src/i2c_slave.c ****         shrp_lvl = RxData[1];
 161:Core/Src/i2c_slave.c ****         printf("Sharpness level: %i\n", shrp_lvl);
 162:Core/Src/i2c_slave.c ****     }
 163:Core/Src/i2c_slave.c ****     else if (cmd == CAM_CONTRAST_LEVEL_CMD)
 411              		.loc 1 163 10 is_stmt 1 view .LVU87
 412              		.loc 1 163 13 is_stmt 0 view .LVU88
 413 0022 502B     		cmp	r3, #80
 414 0024 44D0     		beq	.L34
 164:Core/Src/i2c_slave.c ****     {
 165:Core/Src/i2c_slave.c ****         contra_lvl = RxData[1];
 166:Core/Src/i2c_slave.c ****         printf("Contrast level: %i\n", contra_lvl);
 167:Core/Src/i2c_slave.c ****     }
 168:Core/Src/i2c_slave.c ****     else if (cmd == CAM_EV_LEVEL_CMD)
 415              		.loc 1 168 10 is_stmt 1 view .LVU89
 416              		.loc 1 168 13 is_stmt 0 view .LVU90
 417 0026 602B     		cmp	r3, #96
 418 0028 4BD0     		beq	.L35
 169:Core/Src/i2c_slave.c ****     {
 170:Core/Src/i2c_slave.c ****         exposure_lvl = RxData[1];
 171:Core/Src/i2c_slave.c ****         printf("Exposure level: %i\n", exposure_lvl);
 172:Core/Src/i2c_slave.c ****     }
 173:Core/Src/i2c_slave.c ****     else if (cmd == CAM_STAURATION_LEVEL_CMD)
 419              		.loc 1 173 10 is_stmt 1 view .LVU91
 420              		.loc 1 173 13 is_stmt 0 view .LVU92
 421 002a 702B     		cmp	r3, #112
 422 002c 52D0     		beq	.L36
 174:Core/Src/i2c_slave.c ****     {
 175:Core/Src/i2c_slave.c ****         saturation_lvl = RxData[1];
 176:Core/Src/i2c_slave.c ****         printf("Saturation level: %i\n", saturation_lvl);
 177:Core/Src/i2c_slave.c ****     }
 178:Core/Src/i2c_slave.c ****     else if (cmd == CAM_COLOR_FX_CMD)
 423              		.loc 1 178 10 is_stmt 1 view .LVU93
 424              		.loc 1 178 13 is_stmt 0 view .LVU94
 425 002e 802B     		cmp	r3, #128
 426 0030 15D1     		bne	.L18
 179:Core/Src/i2c_slave.c ****     {
 180:Core/Src/i2c_slave.c ****         effect = RxData[1];
 427              		.loc 1 180 9 is_stmt 1 view .LVU95
 428              		.loc 1 180 24 is_stmt 0 view .LVU96
ARM GAS  /tmp/ccY8pCwV.s 			page 13


 429 0032 2E4B     		ldr	r3, .L37+4
 430              	.LVL21:
 431              		.loc 1 180 24 view .LVU97
 432 0034 5A78     		ldrb	r2, [r3, #1]	@ zero_extendqisi2
 433              		.loc 1 180 16 view .LVU98
 434 0036 2E4B     		ldr	r3, .L37+8
 435 0038 1A70     		strb	r2, [r3]
 181:Core/Src/i2c_slave.c ****         printf("Effect: %i\n", effect);
 436              		.loc 1 181 9 is_stmt 1 view .LVU99
 437 003a 1978     		ldrb	r1, [r3]	@ zero_extendqisi2
 438 003c 2D48     		ldr	r0, .L37+12
 439 003e FFF7FEFF 		bl	printf
 440              	.LVL22:
 182:Core/Src/i2c_slave.c ****     }
 183:Core/Src/i2c_slave.c **** }
 441              		.loc 1 183 1 is_stmt 0 view .LVU100
 442 0042 0CE0     		b	.L18
 443              	.LVL23:
 444              	.L29:
 134:Core/Src/i2c_slave.c ****         capture_requested = 1;
 445              		.loc 1 134 9 is_stmt 1 view .LVU101
 446 0044 2C48     		ldr	r0, .L37+16
 447 0046 FFF7FEFF 		bl	puts
 448              	.LVL24:
 135:Core/Src/i2c_slave.c ****         send_all_packets = 0;
 449              		.loc 1 135 9 view .LVU102
 135:Core/Src/i2c_slave.c ****         send_all_packets = 0;
 450              		.loc 1 135 27 is_stmt 0 view .LVU103
 451 004a 2C4B     		ldr	r3, .L37+20
 452 004c 0122     		movs	r2, #1
 453 004e 1A70     		strb	r2, [r3]
 136:Core/Src/i2c_slave.c ****         prestore_image_requested = 0;
 454              		.loc 1 136 9 is_stmt 1 view .LVU104
 136:Core/Src/i2c_slave.c ****         prestore_image_requested = 0;
 455              		.loc 1 136 26 is_stmt 0 view .LVU105
 456 0050 0023     		movs	r3, #0
 457 0052 2B4A     		ldr	r2, .L37+24
 458 0054 1370     		strb	r3, [r2]
 137:Core/Src/i2c_slave.c ****         current_packet_index = 0;
 459              		.loc 1 137 9 is_stmt 1 view .LVU106
 137:Core/Src/i2c_slave.c ****         current_packet_index = 0;
 460              		.loc 1 137 34 is_stmt 0 view .LVU107
 461 0056 2B4A     		ldr	r2, .L37+28
 462 0058 1370     		strb	r3, [r2]
 138:Core/Src/i2c_slave.c ****     }
 463              		.loc 1 138 9 is_stmt 1 view .LVU108
 138:Core/Src/i2c_slave.c ****     }
 464              		.loc 1 138 30 is_stmt 0 view .LVU109
 465 005a 2B4A     		ldr	r2, .L37+32
 466 005c 1380     		strh	r3, [r2]	@ movhi
 467              	.L18:
 468              		.loc 1 183 1 view .LVU110
 469 005e 08BD     		pop	{r3, pc}
 470              	.LVL25:
 471              	.L30:
 142:Core/Src/i2c_slave.c ****         send_all_packets = 1;
 472              		.loc 1 142 9 is_stmt 1 view .LVU111
ARM GAS  /tmp/ccY8pCwV.s 			page 14


 473 0060 2A48     		ldr	r0, .L37+36
 474 0062 FFF7FEFF 		bl	puts
 475              	.LVL26:
 143:Core/Src/i2c_slave.c ****         current_packet_index = 0;
 476              		.loc 1 143 9 view .LVU112
 143:Core/Src/i2c_slave.c ****         current_packet_index = 0;
 477              		.loc 1 143 26 is_stmt 0 view .LVU113
 478 0066 264B     		ldr	r3, .L37+24
 479 0068 0122     		movs	r2, #1
 480 006a 1A70     		strb	r2, [r3]
 144:Core/Src/i2c_slave.c ****     }
 481              		.loc 1 144 9 is_stmt 1 view .LVU114
 144:Core/Src/i2c_slave.c ****     }
 482              		.loc 1 144 30 is_stmt 0 view .LVU115
 483 006c 264B     		ldr	r3, .L37+32
 484 006e 0022     		movs	r2, #0
 485 0070 1A80     		strh	r2, [r3]	@ movhi
 486 0072 F4E7     		b	.L18
 487              	.LVL27:
 488              	.L31:
 148:Core/Src/i2c_slave.c ****         prestore_image_requested = 1;
 489              		.loc 1 148 9 is_stmt 1 view .LVU116
 490 0074 2648     		ldr	r0, .L37+40
 491 0076 FFF7FEFF 		bl	puts
 492              	.LVL28:
 149:Core/Src/i2c_slave.c ****         send_all_packets = 1;
 493              		.loc 1 149 9 view .LVU117
 149:Core/Src/i2c_slave.c ****         send_all_packets = 1;
 494              		.loc 1 149 34 is_stmt 0 view .LVU118
 495 007a 0123     		movs	r3, #1
 496 007c 214A     		ldr	r2, .L37+28
 497 007e 1370     		strb	r3, [r2]
 150:Core/Src/i2c_slave.c ****         current_packet_index = 0;
 498              		.loc 1 150 9 is_stmt 1 view .LVU119
 150:Core/Src/i2c_slave.c ****         current_packet_index = 0;
 499              		.loc 1 150 26 is_stmt 0 view .LVU120
 500 0080 1F4A     		ldr	r2, .L37+24
 501 0082 1370     		strb	r3, [r2]
 151:Core/Src/i2c_slave.c ****     }
 502              		.loc 1 151 9 is_stmt 1 view .LVU121
 151:Core/Src/i2c_slave.c ****     }
 503              		.loc 1 151 30 is_stmt 0 view .LVU122
 504 0084 204B     		ldr	r3, .L37+32
 505 0086 0022     		movs	r2, #0
 506 0088 1A80     		strh	r2, [r3]	@ movhi
 507 008a E8E7     		b	.L18
 508              	.LVL29:
 509              	.L32:
 155:Core/Src/i2c_slave.c ****         printf("Brightness level: %i\n", lvl);
 510              		.loc 1 155 9 is_stmt 1 view .LVU123
 155:Core/Src/i2c_slave.c ****         printf("Brightness level: %i\n", lvl);
 511              		.loc 1 155 21 is_stmt 0 view .LVU124
 512 008c 174B     		ldr	r3, .L37+4
 513              	.LVL30:
 155:Core/Src/i2c_slave.c ****         printf("Brightness level: %i\n", lvl);
 514              		.loc 1 155 21 view .LVU125
 515 008e 5A78     		ldrb	r2, [r3, #1]	@ zero_extendqisi2
ARM GAS  /tmp/ccY8pCwV.s 			page 15


 155:Core/Src/i2c_slave.c ****         printf("Brightness level: %i\n", lvl);
 516              		.loc 1 155 13 view .LVU126
 517 0090 204B     		ldr	r3, .L37+44
 518 0092 1A70     		strb	r2, [r3]
 156:Core/Src/i2c_slave.c ****     }
 519              		.loc 1 156 9 is_stmt 1 view .LVU127
 520 0094 1978     		ldrb	r1, [r3]	@ zero_extendqisi2
 521 0096 2048     		ldr	r0, .L37+48
 522 0098 FFF7FEFF 		bl	printf
 523              	.LVL31:
 156:Core/Src/i2c_slave.c ****     }
 524              		.loc 1 156 9 is_stmt 0 view .LVU128
 525 009c DFE7     		b	.L18
 526              	.LVL32:
 527              	.L33:
 160:Core/Src/i2c_slave.c ****         printf("Sharpness level: %i\n", shrp_lvl);
 528              		.loc 1 160 9 is_stmt 1 view .LVU129
 160:Core/Src/i2c_slave.c ****         printf("Sharpness level: %i\n", shrp_lvl);
 529              		.loc 1 160 26 is_stmt 0 view .LVU130
 530 009e 134B     		ldr	r3, .L37+4
 531              	.LVL33:
 160:Core/Src/i2c_slave.c ****         printf("Sharpness level: %i\n", shrp_lvl);
 532              		.loc 1 160 26 view .LVU131
 533 00a0 5A78     		ldrb	r2, [r3, #1]	@ zero_extendqisi2
 160:Core/Src/i2c_slave.c ****         printf("Sharpness level: %i\n", shrp_lvl);
 534              		.loc 1 160 18 view .LVU132
 535 00a2 1E4B     		ldr	r3, .L37+52
 536 00a4 1A70     		strb	r2, [r3]
 161:Core/Src/i2c_slave.c ****     }
 537              		.loc 1 161 9 is_stmt 1 view .LVU133
 538 00a6 1978     		ldrb	r1, [r3]	@ zero_extendqisi2
 539 00a8 1D48     		ldr	r0, .L37+56
 540 00aa FFF7FEFF 		bl	printf
 541              	.LVL34:
 161:Core/Src/i2c_slave.c ****     }
 542              		.loc 1 161 9 is_stmt 0 view .LVU134
 543 00ae D6E7     		b	.L18
 544              	.LVL35:
 545              	.L34:
 165:Core/Src/i2c_slave.c ****         printf("Contrast level: %i\n", contra_lvl);
 546              		.loc 1 165 9 is_stmt 1 view .LVU135
 165:Core/Src/i2c_slave.c ****         printf("Contrast level: %i\n", contra_lvl);
 547              		.loc 1 165 28 is_stmt 0 view .LVU136
 548 00b0 0E4B     		ldr	r3, .L37+4
 549              	.LVL36:
 165:Core/Src/i2c_slave.c ****         printf("Contrast level: %i\n", contra_lvl);
 550              		.loc 1 165 28 view .LVU137
 551 00b2 5A78     		ldrb	r2, [r3, #1]	@ zero_extendqisi2
 165:Core/Src/i2c_slave.c ****         printf("Contrast level: %i\n", contra_lvl);
 552              		.loc 1 165 20 view .LVU138
 553 00b4 1B4B     		ldr	r3, .L37+60
 554 00b6 1A70     		strb	r2, [r3]
 166:Core/Src/i2c_slave.c ****     }
 555              		.loc 1 166 9 is_stmt 1 view .LVU139
 556 00b8 1978     		ldrb	r1, [r3]	@ zero_extendqisi2
 557 00ba 1B48     		ldr	r0, .L37+64
 558 00bc FFF7FEFF 		bl	printf
ARM GAS  /tmp/ccY8pCwV.s 			page 16


 559              	.LVL37:
 166:Core/Src/i2c_slave.c ****     }
 560              		.loc 1 166 9 is_stmt 0 view .LVU140
 561 00c0 CDE7     		b	.L18
 562              	.LVL38:
 563              	.L35:
 170:Core/Src/i2c_slave.c ****         printf("Exposure level: %i\n", exposure_lvl);
 564              		.loc 1 170 9 is_stmt 1 view .LVU141
 170:Core/Src/i2c_slave.c ****         printf("Exposure level: %i\n", exposure_lvl);
 565              		.loc 1 170 30 is_stmt 0 view .LVU142
 566 00c2 0A4B     		ldr	r3, .L37+4
 567              	.LVL39:
 170:Core/Src/i2c_slave.c ****         printf("Exposure level: %i\n", exposure_lvl);
 568              		.loc 1 170 30 view .LVU143
 569 00c4 5A78     		ldrb	r2, [r3, #1]	@ zero_extendqisi2
 170:Core/Src/i2c_slave.c ****         printf("Exposure level: %i\n", exposure_lvl);
 570              		.loc 1 170 22 view .LVU144
 571 00c6 194B     		ldr	r3, .L37+68
 572 00c8 1A70     		strb	r2, [r3]
 171:Core/Src/i2c_slave.c ****     }
 573              		.loc 1 171 9 is_stmt 1 view .LVU145
 574 00ca 1978     		ldrb	r1, [r3]	@ zero_extendqisi2
 575 00cc 1848     		ldr	r0, .L37+72
 576 00ce FFF7FEFF 		bl	printf
 577              	.LVL40:
 171:Core/Src/i2c_slave.c ****     }
 578              		.loc 1 171 9 is_stmt 0 view .LVU146
 579 00d2 C4E7     		b	.L18
 580              	.LVL41:
 581              	.L36:
 175:Core/Src/i2c_slave.c ****         printf("Saturation level: %i\n", saturation_lvl);
 582              		.loc 1 175 9 is_stmt 1 view .LVU147
 175:Core/Src/i2c_slave.c ****         printf("Saturation level: %i\n", saturation_lvl);
 583              		.loc 1 175 32 is_stmt 0 view .LVU148
 584 00d4 054B     		ldr	r3, .L37+4
 585              	.LVL42:
 175:Core/Src/i2c_slave.c ****         printf("Saturation level: %i\n", saturation_lvl);
 586              		.loc 1 175 32 view .LVU149
 587 00d6 5A78     		ldrb	r2, [r3, #1]	@ zero_extendqisi2
 175:Core/Src/i2c_slave.c ****         printf("Saturation level: %i\n", saturation_lvl);
 588              		.loc 1 175 24 view .LVU150
 589 00d8 164B     		ldr	r3, .L37+76
 590 00da 1A70     		strb	r2, [r3]
 176:Core/Src/i2c_slave.c ****     }
 591              		.loc 1 176 9 is_stmt 1 view .LVU151
 592 00dc 1978     		ldrb	r1, [r3]	@ zero_extendqisi2
 593 00de 1648     		ldr	r0, .L37+80
 594 00e0 FFF7FEFF 		bl	printf
 595              	.LVL43:
 176:Core/Src/i2c_slave.c ****     }
 596              		.loc 1 176 9 is_stmt 0 view .LVU152
 597 00e4 BBE7     		b	.L18
 598              	.L38:
 599 00e6 00BF     		.align	2
 600              	.L37:
 601 00e8 00000000 		.word	.LANCHOR0
 602 00ec 00000000 		.word	.LANCHOR1
ARM GAS  /tmp/ccY8pCwV.s 			page 17


 603 00f0 00000000 		.word	.LANCHOR12
 604 00f4 C0000000 		.word	.LC10
 605 00f8 00000000 		.word	.LC2
 606 00fc 00000000 		.word	.LANCHOR6
 607 0100 00000000 		.word	.LANCHOR5
 608 0104 00000000 		.word	.LANCHOR2
 609 0108 00000000 		.word	.LANCHOR3
 610 010c 1C000000 		.word	.LC3
 611 0110 34000000 		.word	.LC4
 612 0114 00000000 		.word	.LANCHOR7
 613 0118 50000000 		.word	.LC5
 614 011c 00000000 		.word	.LANCHOR8
 615 0120 68000000 		.word	.LC6
 616 0124 00000000 		.word	.LANCHOR9
 617 0128 80000000 		.word	.LC7
 618 012c 00000000 		.word	.LANCHOR10
 619 0130 94000000 		.word	.LC8
 620 0134 00000000 		.word	.LANCHOR11
 621 0138 A8000000 		.word	.LC9
 622              		.cfi_endproc
 623              	.LFE71:
 625              		.global	last_i2c_activity
 626              		.global	RxData
 627              		.global	current_packet_index
 628              		.global	send_all_packets
 629              		.global	prestore_image_requested
 630              		.global	capture_requested
 631              		.global	effect
 632              		.global	saturation_lvl
 633              		.global	exposure_lvl
 634              		.global	contra_lvl
 635              		.global	shrp_lvl
 636              		.global	lvl
 637              		.global	test_card_ssdv_buffer
 638              		.section	.bss.RxData,"aw",%nobits
 639              		.align	2
 640              		.set	.LANCHOR1,. + 0
 643              	RxData:
 644 0000 0000     		.space	2
 645              		.section	.bss.capture_requested,"aw",%nobits
 646              		.set	.LANCHOR6,. + 0
 649              	capture_requested:
 650 0000 00       		.space	1
 651              		.section	.bss.contra_lvl,"aw",%nobits
 652              		.set	.LANCHOR9,. + 0
 655              	contra_lvl:
 656 0000 00       		.space	1
 657              		.section	.bss.current_packet_index,"aw",%nobits
 658              		.align	1
 659              		.set	.LANCHOR3,. + 0
 662              	current_packet_index:
 663 0000 0000     		.space	2
 664              		.section	.bss.effect,"aw",%nobits
 665              		.set	.LANCHOR12,. + 0
 668              	effect:
 669 0000 00       		.space	1
 670              		.section	.bss.exposure_lvl,"aw",%nobits
ARM GAS  /tmp/ccY8pCwV.s 			page 18


 671              		.set	.LANCHOR10,. + 0
 674              	exposure_lvl:
 675 0000 00       		.space	1
 676              		.section	.bss.last_i2c_activity,"aw",%nobits
 677              		.align	2
 678              		.set	.LANCHOR0,. + 0
 681              	last_i2c_activity:
 682 0000 00000000 		.space	4
 683              		.section	.bss.lvl,"aw",%nobits
 684              		.set	.LANCHOR7,. + 0
 687              	lvl:
 688 0000 00       		.space	1
 689              		.section	.bss.prestore_image_requested,"aw",%nobits
 690              		.set	.LANCHOR2,. + 0
 693              	prestore_image_requested:
 694 0000 00       		.space	1
 695              		.section	.bss.saturation_lvl,"aw",%nobits
 696              		.set	.LANCHOR11,. + 0
 699              	saturation_lvl:
 700 0000 00       		.space	1
 701              		.section	.bss.send_all_packets,"aw",%nobits
 702              		.set	.LANCHOR5,. + 0
 705              	send_all_packets:
 706 0000 00       		.space	1
 707              		.section	.bss.shrp_lvl,"aw",%nobits
 708              		.set	.LANCHOR8,. + 0
 711              	shrp_lvl:
 712 0000 00       		.space	1
 713              		.section	.data.test_card_ssdv_buffer,"aw"
 714              		.align	2
 715              		.set	.LANCHOR4,. + 0
 718              	test_card_ssdv_buffer:
 719 0000 55660093 		.ascii	"Uf\000\2235\202\000\000\000\005\005\000\000\000\000"
 719      35820000 
 719      00050500 
 719      000000
 720 000f E5AC6CED 		.ascii	"\345\254l\355\245\265\215\312\011di1 2\354\362\327\326"
 720      A5B58DCA 
 720      09646931 
 720      2032ECF2 
 720      D7D6
 721 0021 A64B2D34 		.ascii	"\246K-4,y\221\033|\314\201\232B2\240\361\323\372\325"
 721      2C79911B 
 721      7CCC819A 
 721      4232A0F1 
 721      D3FAD5
 722 0034 0B7D3A59 		.ascii	"\013}:YJ3\256\"a\235\312\312p:g\255!\323nC\272\252\243"
 722      4A33AE22 
 722      619DCACA 
 722      703A67AD 
 722      21D36E43 
 723 004b 6C241224 		.ascii	"l$\022$^\337\215\000_]>\303ta\233\000\313\"\234\310"
 723      5EDF8D00 
 723      5F5D3EC3 
 723      74619B00 
 723      CB229CC8 
 724 005f 0671F747 		.ascii	"\006q\367G\267\326\225,,\214\221y\250\"b\256^!6q\216"
ARM GAS  /tmp/ccY8pCwV.s 			page 19


 724      B7D6952C 
 724      2C8C9179 
 724      A82262AE 
 724      5E213671 
 725 0074 8735422D 		.ascii	"\2075B-2\342F\\\252\204'\005\303\251\300\357\336\242"
 725      32E2465C 
 725      AA842705 
 725      C3A9C0EF 
 725      DEA2
 726 0086 96D596F1 		.ascii	"\226\325\226\361\340\217\031S\201\271\200\376\270\240"
 726      E08F1953 
 726      81B980FE 
 726      B8A0
 727 0094 0B573696 		.ascii	"\013W6\226\261\351\336|N\031\236_\227\346\344.:\021"
 727      B1E9DE7C 
 727      4E199E5F 
 727      97E6E42E 
 727      3A11
 728 00a6 EA0D5C97 		.ascii	"\352\015\\\227O\260\020\306\311\205\313\240\313K\313"
 728      4FB010C6 
 728      C985CBA0 
 728      CB4BCB
 729 00b5 03D7DAA9 		.ascii	"\003\327\332\251\256\226\026cp\360\367\303W\246\232"
 729      AE961663 
 729      70F0F7C3 
 729      57A69A
 730 00c4 25FB26A1 		.ascii	"%\373&\241\343W\302\016\007x\251\3545\264~\353\243\216"
 730      E357C20E 
 730      0778A9EC 
 730      35B47EEB 
 730      A38E
 731 00d6 BB08355C 		.ascii	"\273\0105\\&7&\272\304\011Uf\000\2235\202\000\000\001"
 731      263726BA 
 731      C4095566 
 731      00933582 
 731      000001
 732 00e9 0505001C 		.ascii	"\005\005\000\034\000\003%3\271\215\331\231O+\205\307"
 732      00032533 
 732      B98DD999 
 732      4F2B85C7 
 733 00f9 AF350369 		.ascii	"\2575\003i\267*\356\273P\354\344\221\"\364\365\353@"
 733      B72AEEBB 
 733      50ECE491 
 733      22F4F5EB 
 733      40
 734 010a 1FE5AEED 		.ascii	"\037\345\256\355\354\001\226\030\010\363\374\315\261"
 734      EC019618 
 734      08F3FCCD 
 734      B1
 735 0117 8562475E 		.ascii	"\205bG^\344\361Ks\247\332\013r!\235\014\261c\314!\363"
 735      E4F14B73 
 735      A7DA0B72 
 735      219D0CB1 
 735      63CC21F3 
 736 012b B877207B 		.ascii	"\270w {VsZ\314\267\006\002\240H:\202\300\177Z\224\351"
 736      56735ACC 
 736      B70602A0 
ARM GAS  /tmp/ccY8pCwV.s 			page 20


 736      483A82C0 
 736      7F5A94E9 
 737 013f B7601263 		.ascii	"\267`\022c\\\014\347\367\213\306:\367\240\013\3276V"
 737      5C0CE7F7 
 737      8BC63AF7 
 737      A00BD736 
 737      56
 738 0150 D186F2E2 		.ascii	"\321\206\362\342S\030+\266o\264\003\277\327\212n\251"
 738      53182BB6 
 738      6FB403BF 
 738      D78A6EA9 
 739 0160 676F6F1B 		.ascii	"goo\033\233x\306\320\300o\337\236?:\254\232l\236L\257"
 739      9B78C6D0 
 739      C06FDF9E 
 739      3F3AAC9A 
 739      6C9E4CAF 
 740 0174 282A5541 		.ascii	"(*UAQ\221\316N99\250\244\260\270\2157\262 ^\307z\363"
 740      5191CE4E 
 740      3939A8A4 
 740      B0B88D37 
 740      B2205EC7 
 741 018a FAD00392 		.ascii	"\372\320\003\222\371\326 \214\201\202\240E\307\030\001"
 741      F9D6208C 
 741      8182A045 
 741      C71801
 742 0199 B754CB33 		.ascii	"\267T\3133\207%\\4>\357`\340\265\240\360\014\006\362"
 742      87255C34 
 742      3EEF60E0 
 742      B5A0F00C 
 742      06F2
 743 01ab 51E0C721 		.ascii	"Q\340\307!8/u\373\247\024Z^\203\343_\035O,\371\363\226"
 743      382F75FB 
 743      A7145A5E 
 743      83E35F1D 
 743      4F2CF9F3 
 744 01c0 55660093 		.ascii	"Uf\000\2235\202\000\000\002\005\005\000/\000\006\252"
 744      35820000 
 744      02050500 
 744      2F0006AA 
 745 01d0 C8A65C44 		.ascii	"\310\246\\D\243qr\244\034\025-\374\351\332u\364v\361"
 745      A37172A4 
 745      1C152DFC 
 745      E9DA75F4 
 745      76F1
 746 01e2 14959C7D 		.ascii	"\024\225\234}\355\270\310\307\025au(\241\273pdv\205"
 746      EDB8C8C7 
 746      15617528 
 746      A1BB7064 
 746      7685
 747 01f4 F6152ADB 		.ascii	"\366\025*\333\266\343\250\346\200?\343N\243!/\373\270"
 747      B6E3A8E6 
 747      803FE34E 
 747      A3212FFB 
 747      B8
 748 0205 C2BB16C0 		.ascii	"\302\273\026\300\037w8\310\037\\\012-\345\226MI\256"
 748      1F7738C8 
 748      1F5C0A2D 
ARM GAS  /tmp/ccY8pCwV.s 			page 21


 748      E5964D49 
 748      AE
 749 0216 22540DB9 		.ascii	"\"T\015\271\244!\317\000w\315Z\203S\211e\"m\314\004"
 749      A421CF00 
 749      77CD5A83 
 749      53896522 
 749      6DCC04
 750 0229 FBD1C718 		.ascii	"\373\321\307\030\031>\325V\326\353\312\271\236C!R\350"
 750      193ED556 
 750      D6EBCAB9 
 750      9E432152 
 750      E8
 751 023a E01F527A 		.ascii	"\340\037RzP\004\322\315<Qo\211P\250g%\303\0111\273\035"
 751      5004D2CD 
 751      3C516F89 
 751      50A86725 
 751      C30931BB 
 752 024f 78EBC75A 		.ascii	"x\353\307ZW\277\235#\222m\250c\237\003\202\016\326P"
 752      57BF9D23 
 752      926DA863 
 752      9F03820E 
 752      D650
 753 0261 073C7E95 		.ascii	"\007<~\225)\324\342\026\362\252I wF\301l\222:`u\372"
 753      29D4E216 
 753      F2AA4920 
 753      7746C16C 
 753      923A6075 
 754 0276 F3449A94 		.ascii	"\363D\232\224B006\324X\245;I\261\020\307{2\327\036\032"
 754      42303036 
 754      D458A53B 
 754      49B110C7 
 754      7B32D71E 
 755 028b 4C40A767 		.ascii	"L@\247g'.\343%\263\244d\2435v\354\376m\0242\027\337"
 755      272EE325 
 755      B3A464A3 
 755      3576ECFE 
 755      6D143217 
 756 02a0 55660093 		.ascii	"Uf\000\2235\202\000\000\003\005\005\000\017\000\010"
 756      35820000 
 756      03050500 
 756      0F0008
 757 02af 11E56512 		.ascii	"\021\345e\022+\020\034\206+\216y\355\315\000\177\342"
 757      2B101C86 
 757      2B8E79ED 
 757      CD007FE2 
 758 02bf 5AF1FFB4 		.ascii	"Z\361\377\264\015\332(\015\277pS\310\253iy-\354\236"
 758      0DDA280D 
 758      BF7053C8 
 758      AB69792D 
 758      EC9E
 759 02d1 5A440B6D 		.ascii	"ZD\013m\223\031`>\360\003\323\237\353P_]\013\203nT\237"
 759      9319603E 
 759      F003D39F 
 759      EB505F5D 
 759      0B836E54 
 760 02e6 91390493 		.ascii	"\2219\004\223\203\223\337\362\253\347U\204\201\265\344"
 760      8393DFF2 
ARM GAS  /tmp/ccY8pCwV.s 			page 22


 760      ABE75584 
 760      81B5E4
 761 02f5 43B53AB1 		.ascii	"C\265:\2618\303|\337\247\177J\000\240u\011\015\271\205"
 761      38C37CDF 
 761      A77F4A00 
 761      A075090D 
 761      B985
 762 0307 E242C115 		.ascii	"\342B\301\025\003c\220\003\003\375)\363j\2174-\033D"
 762      03639003 
 762      03FD29F3 
 762      6A8F342D 
 762      1B44
 763 0319 A376EDDC 		.ascii	"\243v\355\334\347\223\216y\372T\223j9\201\304r7\231"
 763      E7938E79 
 763      FA54936A 
 763      3981C472 
 763      3799
 764 032b E76EF9B9 		.ascii	"\347n\371\271\014\271\310\307\245%\345\3747\026\256"
 764      0CB9C8C7 
 764      A525E5FC 
 764      3716AE
 765 033a B1874669 		.ascii	"\261\207Fi\025\212\223\234\374\270'\363\240\014\366"
 765      158A939C 
 765      FCB827F3 
 765      A00CF6
 766 0349 8CAE0807 		.ascii	"\214\256\010\007\007\245^\323ma\271V\017\031v\016\243"
 766      07A55ED3 
 766      6D61B956 
 766      0F19760E 
 766      A3
 767 035a 3BF68620 		.ascii	";\366\206 \324tK\345\335`u\212Yj+\362dO\213\276\256"
 767      D4744BE5 
 767      DD60758A 
 767      596A2BF2 
 767      644F8BBE 
 768 036f F86EB736 		.ascii	"\370n\2676~\231\3441\267\200\375\341\371\205\036>\260"
 768      7E99E431 
 768      B780FDE1 
 768      F9851E3E 
 768      B0
 769 0380 55660093 		.ascii	"Uf\000\2235\202\000\000\004\005\005\000\026\000\013"
 769      35820000 
 769      04050500 
 769      16000B
 770 038f E14F069D 		.ascii	"\341O\006\235\012\206\267P\303\"\241\226\325\227&2q"
 770      0A86B750 
 770      C322A196 
 770      D5972632 
 770      71
 771 03a0 9CE075A0 		.ascii	"\234\340u\240\017\346`\261\264\221T\224l\231\212\020"
 771      0FE660B1 
 771      B4915494 
 771      6C998A10 
 772 03b0 24CE3AF5 		.ascii	"$\316:\365\364\351Q\230,\306\322Q\0231+\341\345#9\364"
 772      F4E95198 
 772      2CC6D251 
 772      13312BE1 
ARM GAS  /tmp/ccY8pCwV.s 			page 23


 772      E52339F4 
 773 03c4 E2B332CA 		.ascii	"\342\2632\312z\220s\324\032\261ijn\367\346R\201\027"
 773      7A9073D4 
 773      1AB1696A 
 773      6EF7E652 
 773      8117
 774 03d6 24952401 		.ascii	"$\225$\001\375(\002\305\375\254\020[\202\210D\202R\214"
 774      FD2802C5 
 774      FDAC105B 
 774      82884482 
 774      528C
 775 03e8 43120606 		.ascii	"C\022\006\006{\377:\233Ma\3665^T\264\304\026\017\214"
 775      7BFF3A9B 
 775      4D61F635 
 775      5E54B4C4 
 775      160F8C
 776 03fb FCB9C7BD 		.ascii	"\374\271\307\275$\032r4\3069%\022)\0123\264\214\026"
 776      241A7234 
 776      C6392512 
 776      290A33B4 
 776      8C16
 777 040d 1C63DEA0 		.ascii	"\034c\336\240\032k\023$bll]\3042\021\353\375\005\000"
 777      1A6B1324 
 777      626C6C5D 
 777      C43211EB 
 777      FD0500
 778 0420 5B96D2D5 		.ascii	"[\226\322\325\356&\314~Y\021\007\302\277|d\340R\033"
 778      EE26CC7E 
 778      591107C2 
 778      BF7C64E0 
 778      521B
 779 0432 2B52CAAB 		.ascii	"+R\312\253\011\004\270Nd?\030\033A\353\215QRd%c\335"
 779      0904B84E 
 779      643F181B 
 779      41EB8D51 
 779      52642563 
 780 0447 257DA997 		.ascii	"%}\251\227\020\331\305\376\204\230\217\267\011\322\343"
 780      10D9C5FE 
 780      84988FB7 
 780      09D2E3
 781 0456 A92A7B46 		.ascii	"\251*{F\277\016\316\"\260\377Uf\000\2235\202\000\000"
 781      BF0ECE22 
 781      B0FF5566 
 781      00933582 
 781      0000
 782 0468 05050500 		.ascii	"\005\005\005\000\031\000\016\334\335\351Y\227P\233k"
 782      19000EDC 
 782      DDE95997 
 782      509B6B
 783 0477 831F99BC 		.ascii	"\203\037\231\274\250\034\200Gj\207s\037\342n\276\264"
 783      A81C8047 
 783      6A87731F 
 783      E26EBEB4 
 784 0487 01E3EFE0 		.ascii	"\001\343\357\340\267\212\336'\204r\354\300\220I\034"
 784      B78ADE27 
 784      8472ECC0 
 784      90491C
ARM GAS  /tmp/ccY8pCwV.s 			page 24


 785 0496 638E7EB5 		.ascii	"c\216~\265\237Nm\330\033\263\216\2434\332\000\277\272"
 785      9F4E6DD8 
 785      1BB38EA3 
 785      34DA00BF 
 785      BA
 786 04a7 44B50506 		.ascii	"D\265\005\006z\364\355\315\026\2573p\300\355\317\336"
 786      7AF4EDCD 
 786      16AF3370 
 786      C0EDCFDE 
 787 04b7 352C2C16 		.ascii	"5,,\026\335I8\031\353L\220\011\306\350\233,\007L\365"
 787      DD493819 
 787      EB4C9009 
 787      C6E89B2C 
 787      074CF5
 788 04ca A007CB6E 		.ascii	"\240\007\313n\262\202q\206\365\365\252\243\316\265v"
 788      B2827186 
 788      F5F5AAA3 
 788      CEB576
 789 04d9 DBD19482 		.ascii	"\333\321\224\202\010\310a\375j\026wS\202O\347Hdc\301"
 789      08C861FD 
 789      6A167753 
 789      824FE748 
 789      6463C1
 790 04ec E6802C26 		.ascii	"\346\200,&\243s\034\276b\311\203\362\344c\203\201\201"
 790      A3731CBE 
 790      62C983F2 
 790      E4638381 
 790      81
 791 04fd 4C17B38C 		.ascii	"L\027\263\214\2170\355d\330W\261^\225\0036\343\223\212"
 791      8F30ED64 
 791      D857B15E 
 791      950336E3 
 791      938A
 792 050f 4A009DDD 		.ascii	"J\000\235\335\356diX\215\307\251\351\355\253\027\276"
 792      EE646958 
 792      8DC7A9E9 
 792      EDAB17BE 
 793 051f A9064F4E 		.ascii	"\251\006ON\260;\374\355\245Yk\317\327J:\214\314\263"
 793      B03BFCED 
 793      A5596BCF 
 793      D74A3A8C 
 793      CCB3
 794 0531 F13D83C2 		.ascii	"\361=\203\302qv\255\332\367\332\207\310\376\034[Uf\000"
 794      7176ADDA 
 794      F7DA87C8 
 794      FE1C5B55 
 794      6600
 795 0543 93358200 		.ascii	"\2235\202\000\000\006\005\005\000\016\000\023L\330}"
 795      00060505 
 795      000E0013 
 795      4CD87D
 796 0552 6A4B5FE2 		.ascii	"jK_\342\372U\220\240z\320#\341\014lW\327\332\242\255"
 796      FA5590A0 
 796      7AD023E1 
 796      0C6C57D7 
 796      DAA2AD
 797 0565 02808350 		.ascii	"\002\200\203P\311\032\354b\000\004\017J\005qeVkT d\002"
ARM GAS  /tmp/ccY8pCwV.s 			page 25


 797      C91AEC62 
 797      00040F4A 
 797      05716556 
 797      6B542064 
 798 057a 73C5259A 		.ascii	"s\305%\2327\233\234\034c\322\246\212\3424\214+\036A"
 798      379B9C1C 
 798      63D2A68A 
 798      E2348C2B 
 798      1E41
 799 058c F4A78B98 		.ascii	"\364\247\213\230@\340\221\370P1\2676\341\301u\034\367"
 799      40E091F8 
 799      5031B736 
 799      E1C1751C 
 799      F7
 800 059d 1EB59E46 		.ascii	"\036\265\236F\016+K\355Qz\237\312\253O\345Hr\204\203"
 800      0E2B4BED 
 800      517A9FCA 
 800      AB4FE548 
 800      728483
 801 05b0 9E462802 		.ascii	"\236F(\002\255\024\021\203\212\267oo\034\261\356l\347"
 801      AD141183 
 801      8AB76F6F 
 801      1CB1EE6C 
 801      E7
 802 05c1 3D8D0047 		.ascii	"=\215\000Go\237\233\037\215L\3620\340g>\2652\333\307"
 802      6F9F9B1F 
 802      8D4CF230 
 802      E0673EB5 
 802      32DBC7
 803 05d4 183B41E7 		.ascii	"\030;A\347\2574\2061\301Prx\"\201\020&\342y$\217\255"
 803      AF348631 
 803      C1507278 
 803      22811026 
 803      E279248F 
 804 05e9 39CEC0DB 		.ascii	"9\316\300\333\224\034\016\2252\306\243\034\023\236\364"
 804      941C0E95 
 804      32C6A31C 
 804      139EF4
 805 05f8 AD1A3921 		.ascii	"\255\0329!l\314H\361\220\001pH\246\0156\324\266/P5\004"
 805      6CCC48F1 
 805      90017048 
 805      A60D36D4 
 805      B62F5035 
 806 060d FDAEFB3F 		.ascii	"\375\256\373?:\376\237\035\315#\272:N\350e\343\325 "
 806      3AFE9F1D 
 806      CD23BA3A 
 806      4EE865E3 
 806      D520
 807 061f 88556600 		.ascii	"\210Uf\000\2235\202\000\000\007\005\005\004\377\377"
 807      93358200 
 807      00070505 
 807      04FFFF
 808 062e FF978C75 		.ascii	"\377\227\214u\240,\177->\203\214)j\237Xe\326\373d\341"
 808      A02C7F2D 
 808      3E838C29 
 808      6A9F5865 
 808      D6FB64E1 
ARM GAS  /tmp/ccY8pCwV.s 			page 26


 809 0642 8297B09D 		.ascii	"\202\227\260\235ns<\231\232\217\010\325\006\353\024"
 809      6E733C99 
 809      9A8F08D5 
 809      06EB14
 810 0651 51B28760 		.ascii	"Q\262\207`\015\236c\354\011\312\177\270E6\333\304\301"
 810      0D9E63EC 
 810      09CA7FB8 
 810      4536DBC4 
 810      C1
 811 0662 E277107D 		.ascii	"\342w\020}\316S\234y\372oh\265f\313t1\022g\300\355\376"
 811      CE539C79 
 811      FA6F68B5 
 811      66CB7431 
 811      1267C0ED 
 812 0677 434CE92A 		.ascii	"CL\351*_\030%\226\273$\241BWp].3\374YZO\310\225\306"
 812      5F182596 
 812      BB24A142 
 812      57705D2E 
 812      33FC595A 
 813 068f ABD41172 		.ascii	"\253\324\021rG \315^#\254\311\212?x\005\366\233\204"
 813      4720CD5E 
 813      23ACC98A 
 813      3F7805F6 
 813      9B84
 814 06a1 81A237D0 		.ascii	"\201\2427\320=\216\023\\9\272/(u&\2134\361\322'\200"
 814      3D8E135C 
 814      39BA2F28 
 814      75268B34 
 814      F1D22780 
 815 06b5 ADBE030C 		.ascii	"\255\276\003\014\251\352\037\330\345V{\344a\002\027"
 815      A9EA1FD8 
 815      E5567BE4 
 815      610217
 816 06c4 301DEEF3 		.ascii	"0\035\356\363\274\031\032\017\210U\206k\224\3212\007"
 816      BC191A0F 
 816      8855866B 
 816      94D13207 
 817 06d4 E08D1EE3 		.ascii	"\340\215\036\343l\211J\377\232\000\001\233\337'4?\246"
 817      6C894AFF 
 817      9A00019B 
 817      DF27343F 
 817      A6
 818 06e5 71B40C0A 		.ascii	"q\264\014\0121\342\352\016\214@\255\275\221\244l\300"
 818      31E2EA0E 
 818      8C40ADBD 
 818      91A46CC0 
 819 06f5 54A9B7FE 		.ascii	"T\251\267\376\235\330\271'\252\272J"
 819      9DD8B927 
 819      AABA4A
 820              		.text
 821              	.Letext0:
 822              		.file 2 "/usr/lib/gcc/arm-none-eabi/10.3.1/include/stdint.h"
 823              		.file 3 "Drivers/CMSIS/Device/ST/STM32F1xx/Include/stm32f103xb.h"
 824              		.file 4 "Drivers/STM32F1xx_HAL_Driver/Inc/stm32f1xx_hal_def.h"
 825              		.file 5 "Drivers/STM32F1xx_HAL_Driver/Inc/stm32f1xx_hal_dma.h"
 826              		.file 6 "Drivers/STM32F1xx_HAL_Driver/Inc/stm32f1xx_hal_i2c.h"
 827              		.file 7 "libs/camera/camera.h"
ARM GAS  /tmp/ccY8pCwV.s 			page 27


 828              		.file 8 "Core/Inc/i2c_slave.h"
 829              		.file 9 "libs/ssdv/test_card_ssdv.h"
 830              		.file 10 "libs/watchdog/watchdog.h"
 831              		.file 11 "Drivers/STM32F1xx_HAL_Driver/Inc/stm32f1xx_hal.h"
 832              		.file 12 "/usr/include/newlib/stdio.h"
 833              		.file 13 "<built-in>"
 834              		.file 14 "libs/flash/flash.h"
ARM GAS  /tmp/ccY8pCwV.s 			page 28


DEFINED SYMBOLS
                            *ABS*:0000000000000000 i2c_slave.c
     /tmp/ccY8pCwV.s:16     .text.HAL_I2C_ListenCpltCallback:0000000000000000 $t
     /tmp/ccY8pCwV.s:24     .text.HAL_I2C_ListenCpltCallback:0000000000000000 HAL_I2C_ListenCpltCallback
     /tmp/ccY8pCwV.s:47     .text.HAL_I2C_ErrorCallback:0000000000000000 $t
     /tmp/ccY8pCwV.s:54     .text.HAL_I2C_ErrorCallback:0000000000000000 HAL_I2C_ErrorCallback
     /tmp/ccY8pCwV.s:76     .rodata.HAL_I2C_AddrCallback.str1.4:0000000000000000 $d
     /tmp/ccY8pCwV.s:83     .text.HAL_I2C_AddrCallback:0000000000000000 $t
     /tmp/ccY8pCwV.s:90     .text.HAL_I2C_AddrCallback:0000000000000000 HAL_I2C_AddrCallback
     /tmp/ccY8pCwV.s:317    .text.HAL_I2C_AddrCallback:000000000000010c $d
     /tmp/ccY8pCwV.s:331    .rodata.HAL_I2C_SlaveRxCpltCallback.str1.4:0000000000000000 $d
     /tmp/ccY8pCwV.s:359    .text.HAL_I2C_SlaveRxCpltCallback:0000000000000000 $t
     /tmp/ccY8pCwV.s:366    .text.HAL_I2C_SlaveRxCpltCallback:0000000000000000 HAL_I2C_SlaveRxCpltCallback
     /tmp/ccY8pCwV.s:601    .text.HAL_I2C_SlaveRxCpltCallback:00000000000000e8 $d
     /tmp/ccY8pCwV.s:681    .bss.last_i2c_activity:0000000000000000 last_i2c_activity
     /tmp/ccY8pCwV.s:643    .bss.RxData:0000000000000000 RxData
     /tmp/ccY8pCwV.s:662    .bss.current_packet_index:0000000000000000 current_packet_index
     /tmp/ccY8pCwV.s:705    .bss.send_all_packets:0000000000000000 send_all_packets
     /tmp/ccY8pCwV.s:693    .bss.prestore_image_requested:0000000000000000 prestore_image_requested
     /tmp/ccY8pCwV.s:649    .bss.capture_requested:0000000000000000 capture_requested
     /tmp/ccY8pCwV.s:668    .bss.effect:0000000000000000 effect
     /tmp/ccY8pCwV.s:699    .bss.saturation_lvl:0000000000000000 saturation_lvl
     /tmp/ccY8pCwV.s:674    .bss.exposure_lvl:0000000000000000 exposure_lvl
     /tmp/ccY8pCwV.s:655    .bss.contra_lvl:0000000000000000 contra_lvl
     /tmp/ccY8pCwV.s:711    .bss.shrp_lvl:0000000000000000 shrp_lvl
     /tmp/ccY8pCwV.s:687    .bss.lvl:0000000000000000 lvl
     /tmp/ccY8pCwV.s:718    .data.test_card_ssdv_buffer:0000000000000000 test_card_ssdv_buffer
     /tmp/ccY8pCwV.s:639    .bss.RxData:0000000000000000 $d
     /tmp/ccY8pCwV.s:650    .bss.capture_requested:0000000000000000 $d
     /tmp/ccY8pCwV.s:656    .bss.contra_lvl:0000000000000000 $d
     /tmp/ccY8pCwV.s:658    .bss.current_packet_index:0000000000000000 $d
     /tmp/ccY8pCwV.s:669    .bss.effect:0000000000000000 $d
     /tmp/ccY8pCwV.s:675    .bss.exposure_lvl:0000000000000000 $d
     /tmp/ccY8pCwV.s:677    .bss.last_i2c_activity:0000000000000000 $d
     /tmp/ccY8pCwV.s:688    .bss.lvl:0000000000000000 $d
     /tmp/ccY8pCwV.s:694    .bss.prestore_image_requested:0000000000000000 $d
     /tmp/ccY8pCwV.s:700    .bss.saturation_lvl:0000000000000000 $d
     /tmp/ccY8pCwV.s:706    .bss.send_all_packets:0000000000000000 $d
     /tmp/ccY8pCwV.s:712    .bss.shrp_lvl:0000000000000000 $d
     /tmp/ccY8pCwV.s:714    .data.test_card_ssdv_buffer:0000000000000000 $d

UNDEFINED SYMBOLS
HAL_I2C_EnableListen_IT
HAL_GetTick
HAL_I2C_Slave_Seq_Transmit_IT
printf
HAL_I2C_Slave_Seq_Receive_IT
watchdog_set_time_period
memset
flash_read_buffer
ssdv_packets_in_image
ssdv_start_addr
puts
