ARM GAS  /tmp/cci0BpQy.s 			page 1


   1              		.cpu cortex-m3
   2              		.eabi_attribute 20, 1
   3              		.eabi_attribute 21, 1
   4              		.eabi_attribute 23, 3
   5              		.eabi_attribute 24, 1
   6              		.eabi_attribute 25, 1
   7              		.eabi_attribute 26, 1
   8              		.eabi_attribute 30, 1
   9              		.eabi_attribute 34, 1
  10              		.eabi_attribute 18, 4
  11              		.file	"main.c"
  12              		.text
  13              	.Ltext0:
  14              		.cfi_sections	.debug_frame
  15              		.section	.text._write,"ax",%progbits
  16              		.align	1
  17              		.global	_write
  18              		.arch armv7-m
  19              		.syntax unified
  20              		.thumb
  21              		.thumb_func
  22              		.fpu softvfp
  24              	_write:
  25              	.LVL0:
  26              	.LFB68:
  27              		.file 1 "Core/Src/main.c"
   1:Core/Src/main.c **** /* USER CODE BEGIN Header */
   2:Core/Src/main.c **** /**
   3:Core/Src/main.c ****   ******************************************************************************
   4:Core/Src/main.c ****   * @file           : main.c
   5:Core/Src/main.c ****   * @brief          : Main program body
   6:Core/Src/main.c ****   * @date           : 04-07-2025
   7:Core/Src/main.c ****   * @author         : Sarthak Chaudhary
   8:Core/Src/main.c ****   *****************************************************************************
   9:Core/Src/main.c ****   * @attention
  10:Core/Src/main.c ****   *
  11:Core/Src/main.c ****   * Copyright (c) 2025 STMicroelectronics.
  12:Core/Src/main.c ****   * All rights reserved.
  13:Core/Src/main.c ****   *
  14:Core/Src/main.c ****   * This software is licensed under terms that can be found in the LICENSE file
  15:Core/Src/main.c ****   * in the root directory of this software component.
  16:Core/Src/main.c ****   * If no LICENSE file comes with this software, it is provided AS-IS.
  17:Core/Src/main.c ****   *
  18:Core/Src/main.c ****   ******************************************************************************
  19:Core/Src/main.c ****   */
  20:Core/Src/main.c **** /* USER CODE END Header */
  21:Core/Src/main.c **** /* Includes ------------------------------------------------------------------*/
  22:Core/Src/main.c **** #include "main.h"
  23:Core/Src/main.c **** #include "i2c.h"
  24:Core/Src/main.c **** #include "spi.h"
  25:Core/Src/main.c **** #include "usart.h"
  26:Core/Src/main.c **** #include "gpio.h"
  27:Core/Src/main.c **** 
  28:Core/Src/main.c **** /* Private includes ----------------------------------------------------------*/
  29:Core/Src/main.c **** /* USER CODE BEGIN Includes */
  30:Core/Src/main.c **** #include <stdio.h>
  31:Core/Src/main.c **** #include <inttypes.h>
ARM GAS  /tmp/cci0BpQy.s 			page 2


  32:Core/Src/main.c **** #include "camera.h"
  33:Core/Src/main.c **** #include "i2c_slave.h"
  34:Core/Src/main.c **** int _write(int file, char *data, int len) {
  28              		.loc 1 34 43 view -0
  29              		.cfi_startproc
  30              		@ args = 0, pretend = 0, frame = 0
  31              		@ frame_needed = 0, uses_anonymous_args = 0
  32              		.loc 1 34 43 is_stmt 0 view .LVU1
  33 0000 10B5     		push	{r4, lr}
  34              	.LCFI0:
  35              		.cfi_def_cfa_offset 8
  36              		.cfi_offset 4, -8
  37              		.cfi_offset 14, -4
  38 0002 1446     		mov	r4, r2
  35:Core/Src/main.c ****     HAL_UART_Transmit(&huart1, (uint8_t*)data, len, HAL_MAX_DELAY);
  39              		.loc 1 35 5 is_stmt 1 view .LVU2
  40 0004 4FF0FF33 		mov	r3, #-1
  41 0008 92B2     		uxth	r2, r2
  42              	.LVL1:
  43              		.loc 1 35 5 is_stmt 0 view .LVU3
  44 000a 0248     		ldr	r0, .L3
  45              	.LVL2:
  46              		.loc 1 35 5 view .LVU4
  47 000c FFF7FEFF 		bl	HAL_UART_Transmit
  48              	.LVL3:
  36:Core/Src/main.c ****     return len;
  49              		.loc 1 36 5 is_stmt 1 view .LVU5
  37:Core/Src/main.c **** }
  50              		.loc 1 37 1 is_stmt 0 view .LVU6
  51 0010 2046     		mov	r0, r4
  52 0012 10BD     		pop	{r4, pc}
  53              	.LVL4:
  54              	.L4:
  55              		.loc 1 37 1 view .LVU7
  56              		.align	2
  57              	.L3:
  58 0014 00000000 		.word	huart1
  59              		.cfi_endproc
  60              	.LFE68:
  62              		.section	.text.Error_Handler,"ax",%progbits
  63              		.align	1
  64              		.global	Error_Handler
  65              		.syntax unified
  66              		.thumb
  67              		.thumb_func
  68              		.fpu softvfp
  70              	Error_Handler:
  71              	.LFB71:
  38:Core/Src/main.c **** /* USER CODE END Includes */
  39:Core/Src/main.c **** 
  40:Core/Src/main.c **** /* Private typedef -----------------------------------------------------------*/
  41:Core/Src/main.c **** /* USER CODE BEGIN PTD */
  42:Core/Src/main.c **** 
  43:Core/Src/main.c **** /* USER CODE END PTD */
  44:Core/Src/main.c **** 
  45:Core/Src/main.c **** /* Private define ------------------------------------------------------------*/
  46:Core/Src/main.c **** /* USER CODE BEGIN PD */
ARM GAS  /tmp/cci0BpQy.s 			page 3


  47:Core/Src/main.c **** 
  48:Core/Src/main.c **** /* USER CODE END PD */
  49:Core/Src/main.c **** 
  50:Core/Src/main.c **** /* Private macro -------------------------------------------------------------*/
  51:Core/Src/main.c **** /* USER CODE BEGIN PM */
  52:Core/Src/main.c **** 
  53:Core/Src/main.c **** /* USER CODE END PM */
  54:Core/Src/main.c **** 
  55:Core/Src/main.c **** /* Private variables ---------------------------------------------------------*/
  56:Core/Src/main.c **** 
  57:Core/Src/main.c **** /* USER CODE BEGIN PV */
  58:Core/Src/main.c **** 
  59:Core/Src/main.c **** /* USER CODE END PV */
  60:Core/Src/main.c **** 
  61:Core/Src/main.c **** /* Private function prototypes -----------------------------------------------*/
  62:Core/Src/main.c **** void SystemClock_Config(void);
  63:Core/Src/main.c **** /* USER CODE BEGIN PFP */
  64:Core/Src/main.c **** 
  65:Core/Src/main.c **** /* USER CODE END PFP */
  66:Core/Src/main.c **** 
  67:Core/Src/main.c **** /* Private user code ---------------------------------------------------------*/
  68:Core/Src/main.c **** /* USER CODE BEGIN 0 */
  69:Core/Src/main.c **** 
  70:Core/Src/main.c **** /* USER CODE END 0 */
  71:Core/Src/main.c **** 
  72:Core/Src/main.c **** /**
  73:Core/Src/main.c ****   * @brief  The application entry point.
  74:Core/Src/main.c ****   * @retval int
  75:Core/Src/main.c ****   */
  76:Core/Src/main.c **** int main(void)
  77:Core/Src/main.c **** {
  78:Core/Src/main.c **** 
  79:Core/Src/main.c ****   /* USER CODE BEGIN 1 */
  80:Core/Src/main.c **** 
  81:Core/Src/main.c ****   /* USER CODE END 1 */
  82:Core/Src/main.c **** 
  83:Core/Src/main.c ****   /* MCU Configuration--------------------------------------------------------*/
  84:Core/Src/main.c **** 
  85:Core/Src/main.c ****   /* Reset of all peripherals, Initializes the Flash interface and the Systick. */
  86:Core/Src/main.c ****   HAL_Init();
  87:Core/Src/main.c **** 
  88:Core/Src/main.c ****   /* USER CODE BEGIN Init */
  89:Core/Src/main.c **** 
  90:Core/Src/main.c ****   /* USER CODE END Init */
  91:Core/Src/main.c **** 
  92:Core/Src/main.c ****   /* Configure the system clock */
  93:Core/Src/main.c ****   SystemClock_Config();
  94:Core/Src/main.c **** 
  95:Core/Src/main.c ****   /* USER CODE BEGIN SysInit */
  96:Core/Src/main.c **** 
  97:Core/Src/main.c ****   /* USER CODE END SysInit */
  98:Core/Src/main.c **** 
  99:Core/Src/main.c ****   /* Initialize all configured peripherals */
 100:Core/Src/main.c ****   MX_GPIO_Init();
 101:Core/Src/main.c ****   MX_I2C2_Init();
 102:Core/Src/main.c ****   MX_USART1_UART_Init();
 103:Core/Src/main.c ****   MX_SPI1_Init();
ARM GAS  /tmp/cci0BpQy.s 			page 4


 104:Core/Src/main.c ****   /* USER CODE BEGIN 2 */
 105:Core/Src/main.c ****   if(HAL_I2C_EnableListen_IT(&hi2c2)!=HAL_OK)
 106:Core/Src/main.c ****   {
 107:Core/Src/main.c ****     Error_Handler();
 108:Core/Src/main.c ****   }
 109:Core/Src/main.c ****   // else
 110:Core/Src/main.c ****   // {
 111:Core/Src/main.c ****   //   process_image_capture();
 112:Core/Src/main.c ****   // }
 113:Core/Src/main.c **** 
 114:Core/Src/main.c ****   /* USER CODE END 2 */
 115:Core/Src/main.c **** 
 116:Core/Src/main.c ****   /* Infinite loop */
 117:Core/Src/main.c ****   /* USER CODE BEGIN WHILE */
 118:Core/Src/main.c ****   while (1)
 119:Core/Src/main.c ****   {
 120:Core/Src/main.c ****     if (capture_requested)
 121:Core/Src/main.c ****         {
 122:Core/Src/main.c ****             capture_requested = 0;
 123:Core/Src/main.c ****             process_image_capture();
 124:Core/Src/main.c ****         }
 125:Core/Src/main.c ****      
 126:Core/Src/main.c **** 
 127:Core/Src/main.c ****     /* USER CODE END WHILE */
 128:Core/Src/main.c **** 
 129:Core/Src/main.c ****     /* USER CODE BEGIN 3 */
 130:Core/Src/main.c ****   }
 131:Core/Src/main.c ****   /* USER CODE END 3 */
 132:Core/Src/main.c **** }
 133:Core/Src/main.c **** 
 134:Core/Src/main.c **** /**
 135:Core/Src/main.c ****   * @brief System Clock Configuration
 136:Core/Src/main.c ****   * @retval None
 137:Core/Src/main.c ****   */
 138:Core/Src/main.c **** void SystemClock_Config(void)
 139:Core/Src/main.c **** {
 140:Core/Src/main.c ****   RCC_OscInitTypeDef RCC_OscInitStruct = {0};
 141:Core/Src/main.c ****   RCC_ClkInitTypeDef RCC_ClkInitStruct = {0};
 142:Core/Src/main.c **** 
 143:Core/Src/main.c ****   /** Initializes the RCC Oscillators according to the specified parameters
 144:Core/Src/main.c ****   * in the RCC_OscInitTypeDef structure.
 145:Core/Src/main.c ****   */
 146:Core/Src/main.c ****   RCC_OscInitStruct.OscillatorType = RCC_OSCILLATORTYPE_HSE;
 147:Core/Src/main.c ****   RCC_OscInitStruct.HSEState = RCC_HSE_ON;
 148:Core/Src/main.c ****   RCC_OscInitStruct.HSEPredivValue = RCC_HSE_PREDIV_DIV1;
 149:Core/Src/main.c ****   RCC_OscInitStruct.HSIState = RCC_HSI_ON;
 150:Core/Src/main.c ****   RCC_OscInitStruct.PLL.PLLState = RCC_PLL_ON;
 151:Core/Src/main.c ****   RCC_OscInitStruct.PLL.PLLSource = RCC_PLLSOURCE_HSE;
 152:Core/Src/main.c ****   RCC_OscInitStruct.PLL.PLLMUL = RCC_PLL_MUL2;
 153:Core/Src/main.c ****   if (HAL_RCC_OscConfig(&RCC_OscInitStruct) != HAL_OK)
 154:Core/Src/main.c ****   {
 155:Core/Src/main.c ****     Error_Handler();
 156:Core/Src/main.c ****   }
 157:Core/Src/main.c **** 
 158:Core/Src/main.c ****   /** Initializes the CPU, AHB and APB buses clocks
 159:Core/Src/main.c ****   */
 160:Core/Src/main.c ****   RCC_ClkInitStruct.ClockType = RCC_CLOCKTYPE_HCLK|RCC_CLOCKTYPE_SYSCLK
ARM GAS  /tmp/cci0BpQy.s 			page 5


 161:Core/Src/main.c ****                               |RCC_CLOCKTYPE_PCLK1|RCC_CLOCKTYPE_PCLK2;
 162:Core/Src/main.c ****   RCC_ClkInitStruct.SYSCLKSource = RCC_SYSCLKSOURCE_PLLCLK;
 163:Core/Src/main.c ****   RCC_ClkInitStruct.AHBCLKDivider = RCC_SYSCLK_DIV1;
 164:Core/Src/main.c ****   RCC_ClkInitStruct.APB1CLKDivider = RCC_HCLK_DIV2;
 165:Core/Src/main.c ****   RCC_ClkInitStruct.APB2CLKDivider = RCC_HCLK_DIV1;
 166:Core/Src/main.c **** 
 167:Core/Src/main.c ****   if (HAL_RCC_ClockConfig(&RCC_ClkInitStruct, FLASH_LATENCY_0) != HAL_OK)
 168:Core/Src/main.c ****   {
 169:Core/Src/main.c ****     Error_Handler();
 170:Core/Src/main.c ****   }
 171:Core/Src/main.c **** }
 172:Core/Src/main.c **** 
 173:Core/Src/main.c **** /* USER CODE BEGIN 4 */
 174:Core/Src/main.c **** 
 175:Core/Src/main.c **** /* USER CODE END 4 */
 176:Core/Src/main.c **** 
 177:Core/Src/main.c **** /**
 178:Core/Src/main.c ****   * @brief  This function is executed in case of error occurrence.
 179:Core/Src/main.c ****   * @retval None
 180:Core/Src/main.c ****   */
 181:Core/Src/main.c **** void Error_Handler(void)
 182:Core/Src/main.c **** {
  72              		.loc 1 182 1 is_stmt 1 view -0
  73              		.cfi_startproc
  74              		@ Volatile: function does not return.
  75              		@ args = 0, pretend = 0, frame = 0
  76              		@ frame_needed = 0, uses_anonymous_args = 0
  77              		@ link register save eliminated.
 183:Core/Src/main.c ****   /* USER CODE BEGIN Error_Handler_Debug */
 184:Core/Src/main.c ****   /* User can add his own implementation to report the HAL error return state */
 185:Core/Src/main.c ****   __disable_irq();
  78              		.loc 1 185 3 view .LVU9
  79              	.LBB4:
  80              	.LBI4:
  81              		.file 2 "Drivers/CMSIS/Include/cmsis_gcc.h"
   1:Drivers/CMSIS/Include/cmsis_gcc.h **** /**************************************************************************//**
   2:Drivers/CMSIS/Include/cmsis_gcc.h ****  * @file     cmsis_gcc.h
   3:Drivers/CMSIS/Include/cmsis_gcc.h ****  * @brief    CMSIS compiler GCC header file
   4:Drivers/CMSIS/Include/cmsis_gcc.h ****  * @version  V5.0.4
   5:Drivers/CMSIS/Include/cmsis_gcc.h ****  * @date     09. April 2018
   6:Drivers/CMSIS/Include/cmsis_gcc.h ****  ******************************************************************************/
   7:Drivers/CMSIS/Include/cmsis_gcc.h **** /*
   8:Drivers/CMSIS/Include/cmsis_gcc.h ****  * Copyright (c) 2009-2018 Arm Limited. All rights reserved.
   9:Drivers/CMSIS/Include/cmsis_gcc.h ****  *
  10:Drivers/CMSIS/Include/cmsis_gcc.h ****  * SPDX-License-Identifier: Apache-2.0
  11:Drivers/CMSIS/Include/cmsis_gcc.h ****  *
  12:Drivers/CMSIS/Include/cmsis_gcc.h ****  * Licensed under the Apache License, Version 2.0 (the License); you may
  13:Drivers/CMSIS/Include/cmsis_gcc.h ****  * not use this file except in compliance with the License.
  14:Drivers/CMSIS/Include/cmsis_gcc.h ****  * You may obtain a copy of the License at
  15:Drivers/CMSIS/Include/cmsis_gcc.h ****  *
  16:Drivers/CMSIS/Include/cmsis_gcc.h ****  * www.apache.org/licenses/LICENSE-2.0
  17:Drivers/CMSIS/Include/cmsis_gcc.h ****  *
  18:Drivers/CMSIS/Include/cmsis_gcc.h ****  * Unless required by applicable law or agreed to in writing, software
  19:Drivers/CMSIS/Include/cmsis_gcc.h ****  * distributed under the License is distributed on an AS IS BASIS, WITHOUT
  20:Drivers/CMSIS/Include/cmsis_gcc.h ****  * WARRANTIES OR CONDITIONS OF ANY KIND, either express or implied.
  21:Drivers/CMSIS/Include/cmsis_gcc.h ****  * See the License for the specific language governing permissions and
  22:Drivers/CMSIS/Include/cmsis_gcc.h ****  * limitations under the License.
ARM GAS  /tmp/cci0BpQy.s 			page 6


  23:Drivers/CMSIS/Include/cmsis_gcc.h ****  */
  24:Drivers/CMSIS/Include/cmsis_gcc.h **** 
  25:Drivers/CMSIS/Include/cmsis_gcc.h **** #ifndef __CMSIS_GCC_H
  26:Drivers/CMSIS/Include/cmsis_gcc.h **** #define __CMSIS_GCC_H
  27:Drivers/CMSIS/Include/cmsis_gcc.h **** 
  28:Drivers/CMSIS/Include/cmsis_gcc.h **** /* ignore some GCC warnings */
  29:Drivers/CMSIS/Include/cmsis_gcc.h **** #pragma GCC diagnostic push
  30:Drivers/CMSIS/Include/cmsis_gcc.h **** #pragma GCC diagnostic ignored "-Wsign-conversion"
  31:Drivers/CMSIS/Include/cmsis_gcc.h **** #pragma GCC diagnostic ignored "-Wconversion"
  32:Drivers/CMSIS/Include/cmsis_gcc.h **** #pragma GCC diagnostic ignored "-Wunused-parameter"
  33:Drivers/CMSIS/Include/cmsis_gcc.h **** 
  34:Drivers/CMSIS/Include/cmsis_gcc.h **** /* Fallback for __has_builtin */
  35:Drivers/CMSIS/Include/cmsis_gcc.h **** #ifndef __has_builtin
  36:Drivers/CMSIS/Include/cmsis_gcc.h ****   #define __has_builtin(x) (0)
  37:Drivers/CMSIS/Include/cmsis_gcc.h **** #endif
  38:Drivers/CMSIS/Include/cmsis_gcc.h **** 
  39:Drivers/CMSIS/Include/cmsis_gcc.h **** /* CMSIS compiler specific defines */
  40:Drivers/CMSIS/Include/cmsis_gcc.h **** #ifndef   __ASM
  41:Drivers/CMSIS/Include/cmsis_gcc.h ****   #define __ASM                                  __asm
  42:Drivers/CMSIS/Include/cmsis_gcc.h **** #endif
  43:Drivers/CMSIS/Include/cmsis_gcc.h **** #ifndef   __INLINE
  44:Drivers/CMSIS/Include/cmsis_gcc.h ****   #define __INLINE                               inline
  45:Drivers/CMSIS/Include/cmsis_gcc.h **** #endif
  46:Drivers/CMSIS/Include/cmsis_gcc.h **** #ifndef   __STATIC_INLINE
  47:Drivers/CMSIS/Include/cmsis_gcc.h ****   #define __STATIC_INLINE                        static inline
  48:Drivers/CMSIS/Include/cmsis_gcc.h **** #endif
  49:Drivers/CMSIS/Include/cmsis_gcc.h **** #ifndef   __STATIC_FORCEINLINE                 
  50:Drivers/CMSIS/Include/cmsis_gcc.h ****   #define __STATIC_FORCEINLINE                   __attribute__((always_inline)) static inline
  51:Drivers/CMSIS/Include/cmsis_gcc.h **** #endif                                           
  52:Drivers/CMSIS/Include/cmsis_gcc.h **** #ifndef   __NO_RETURN
  53:Drivers/CMSIS/Include/cmsis_gcc.h ****   #define __NO_RETURN                            __attribute__((__noreturn__))
  54:Drivers/CMSIS/Include/cmsis_gcc.h **** #endif
  55:Drivers/CMSIS/Include/cmsis_gcc.h **** #ifndef   __USED
  56:Drivers/CMSIS/Include/cmsis_gcc.h ****   #define __USED                                 __attribute__((used))
  57:Drivers/CMSIS/Include/cmsis_gcc.h **** #endif
  58:Drivers/CMSIS/Include/cmsis_gcc.h **** #ifndef   __WEAK
  59:Drivers/CMSIS/Include/cmsis_gcc.h ****   #define __WEAK                                 __attribute__((weak))
  60:Drivers/CMSIS/Include/cmsis_gcc.h **** #endif
  61:Drivers/CMSIS/Include/cmsis_gcc.h **** #ifndef   __PACKED
  62:Drivers/CMSIS/Include/cmsis_gcc.h ****   #define __PACKED                               __attribute__((packed, aligned(1)))
  63:Drivers/CMSIS/Include/cmsis_gcc.h **** #endif
  64:Drivers/CMSIS/Include/cmsis_gcc.h **** #ifndef   __PACKED_STRUCT
  65:Drivers/CMSIS/Include/cmsis_gcc.h ****   #define __PACKED_STRUCT                        struct __attribute__((packed, aligned(1)))
  66:Drivers/CMSIS/Include/cmsis_gcc.h **** #endif
  67:Drivers/CMSIS/Include/cmsis_gcc.h **** #ifndef   __PACKED_UNION
  68:Drivers/CMSIS/Include/cmsis_gcc.h ****   #define __PACKED_UNION                         union __attribute__((packed, aligned(1)))
  69:Drivers/CMSIS/Include/cmsis_gcc.h **** #endif
  70:Drivers/CMSIS/Include/cmsis_gcc.h **** #ifndef   __UNALIGNED_UINT32        /* deprecated */
  71:Drivers/CMSIS/Include/cmsis_gcc.h ****   #pragma GCC diagnostic push
  72:Drivers/CMSIS/Include/cmsis_gcc.h ****   #pragma GCC diagnostic ignored "-Wpacked"
  73:Drivers/CMSIS/Include/cmsis_gcc.h ****   #pragma GCC diagnostic ignored "-Wattributes"
  74:Drivers/CMSIS/Include/cmsis_gcc.h ****   struct __attribute__((packed)) T_UINT32 { uint32_t v; };
  75:Drivers/CMSIS/Include/cmsis_gcc.h ****   #pragma GCC diagnostic pop
  76:Drivers/CMSIS/Include/cmsis_gcc.h ****   #define __UNALIGNED_UINT32(x)                  (((struct T_UINT32 *)(x))->v)
  77:Drivers/CMSIS/Include/cmsis_gcc.h **** #endif
  78:Drivers/CMSIS/Include/cmsis_gcc.h **** #ifndef   __UNALIGNED_UINT16_WRITE
  79:Drivers/CMSIS/Include/cmsis_gcc.h ****   #pragma GCC diagnostic push
ARM GAS  /tmp/cci0BpQy.s 			page 7


  80:Drivers/CMSIS/Include/cmsis_gcc.h ****   #pragma GCC diagnostic ignored "-Wpacked"
  81:Drivers/CMSIS/Include/cmsis_gcc.h ****   #pragma GCC diagnostic ignored "-Wattributes"
  82:Drivers/CMSIS/Include/cmsis_gcc.h ****   __PACKED_STRUCT T_UINT16_WRITE { uint16_t v; };
  83:Drivers/CMSIS/Include/cmsis_gcc.h ****   #pragma GCC diagnostic pop
  84:Drivers/CMSIS/Include/cmsis_gcc.h ****   #define __UNALIGNED_UINT16_WRITE(addr, val)    (void)((((struct T_UINT16_WRITE *)(void *)(addr))-
  85:Drivers/CMSIS/Include/cmsis_gcc.h **** #endif
  86:Drivers/CMSIS/Include/cmsis_gcc.h **** #ifndef   __UNALIGNED_UINT16_READ
  87:Drivers/CMSIS/Include/cmsis_gcc.h ****   #pragma GCC diagnostic push
  88:Drivers/CMSIS/Include/cmsis_gcc.h ****   #pragma GCC diagnostic ignored "-Wpacked"
  89:Drivers/CMSIS/Include/cmsis_gcc.h ****   #pragma GCC diagnostic ignored "-Wattributes"
  90:Drivers/CMSIS/Include/cmsis_gcc.h ****   __PACKED_STRUCT T_UINT16_READ { uint16_t v; };
  91:Drivers/CMSIS/Include/cmsis_gcc.h ****   #pragma GCC diagnostic pop
  92:Drivers/CMSIS/Include/cmsis_gcc.h ****   #define __UNALIGNED_UINT16_READ(addr)          (((const struct T_UINT16_READ *)(const void *)(add
  93:Drivers/CMSIS/Include/cmsis_gcc.h **** #endif
  94:Drivers/CMSIS/Include/cmsis_gcc.h **** #ifndef   __UNALIGNED_UINT32_WRITE
  95:Drivers/CMSIS/Include/cmsis_gcc.h ****   #pragma GCC diagnostic push
  96:Drivers/CMSIS/Include/cmsis_gcc.h ****   #pragma GCC diagnostic ignored "-Wpacked"
  97:Drivers/CMSIS/Include/cmsis_gcc.h ****   #pragma GCC diagnostic ignored "-Wattributes"
  98:Drivers/CMSIS/Include/cmsis_gcc.h ****   __PACKED_STRUCT T_UINT32_WRITE { uint32_t v; };
  99:Drivers/CMSIS/Include/cmsis_gcc.h ****   #pragma GCC diagnostic pop
 100:Drivers/CMSIS/Include/cmsis_gcc.h ****   #define __UNALIGNED_UINT32_WRITE(addr, val)    (void)((((struct T_UINT32_WRITE *)(void *)(addr))-
 101:Drivers/CMSIS/Include/cmsis_gcc.h **** #endif
 102:Drivers/CMSIS/Include/cmsis_gcc.h **** #ifndef   __UNALIGNED_UINT32_READ
 103:Drivers/CMSIS/Include/cmsis_gcc.h ****   #pragma GCC diagnostic push
 104:Drivers/CMSIS/Include/cmsis_gcc.h ****   #pragma GCC diagnostic ignored "-Wpacked"
 105:Drivers/CMSIS/Include/cmsis_gcc.h ****   #pragma GCC diagnostic ignored "-Wattributes"
 106:Drivers/CMSIS/Include/cmsis_gcc.h ****   __PACKED_STRUCT T_UINT32_READ { uint32_t v; };
 107:Drivers/CMSIS/Include/cmsis_gcc.h ****   #pragma GCC diagnostic pop
 108:Drivers/CMSIS/Include/cmsis_gcc.h ****   #define __UNALIGNED_UINT32_READ(addr)          (((const struct T_UINT32_READ *)(const void *)(add
 109:Drivers/CMSIS/Include/cmsis_gcc.h **** #endif
 110:Drivers/CMSIS/Include/cmsis_gcc.h **** #ifndef   __ALIGNED
 111:Drivers/CMSIS/Include/cmsis_gcc.h ****   #define __ALIGNED(x)                           __attribute__((aligned(x)))
 112:Drivers/CMSIS/Include/cmsis_gcc.h **** #endif
 113:Drivers/CMSIS/Include/cmsis_gcc.h **** #ifndef   __RESTRICT
 114:Drivers/CMSIS/Include/cmsis_gcc.h ****   #define __RESTRICT                             __restrict
 115:Drivers/CMSIS/Include/cmsis_gcc.h **** #endif
 116:Drivers/CMSIS/Include/cmsis_gcc.h **** 
 117:Drivers/CMSIS/Include/cmsis_gcc.h **** 
 118:Drivers/CMSIS/Include/cmsis_gcc.h **** /* ###########################  Core Function Access  ########################### */
 119:Drivers/CMSIS/Include/cmsis_gcc.h **** /** \ingroup  CMSIS_Core_FunctionInterface
 120:Drivers/CMSIS/Include/cmsis_gcc.h ****     \defgroup CMSIS_Core_RegAccFunctions CMSIS Core Register Access Functions
 121:Drivers/CMSIS/Include/cmsis_gcc.h ****   @{
 122:Drivers/CMSIS/Include/cmsis_gcc.h ****  */
 123:Drivers/CMSIS/Include/cmsis_gcc.h **** 
 124:Drivers/CMSIS/Include/cmsis_gcc.h **** /**
 125:Drivers/CMSIS/Include/cmsis_gcc.h ****   \brief   Enable IRQ Interrupts
 126:Drivers/CMSIS/Include/cmsis_gcc.h ****   \details Enables IRQ interrupts by clearing the I-bit in the CPSR.
 127:Drivers/CMSIS/Include/cmsis_gcc.h ****            Can only be executed in Privileged modes.
 128:Drivers/CMSIS/Include/cmsis_gcc.h ****  */
 129:Drivers/CMSIS/Include/cmsis_gcc.h **** __STATIC_FORCEINLINE void __enable_irq(void)
 130:Drivers/CMSIS/Include/cmsis_gcc.h **** {
 131:Drivers/CMSIS/Include/cmsis_gcc.h ****   __ASM volatile ("cpsie i" : : : "memory");
 132:Drivers/CMSIS/Include/cmsis_gcc.h **** }
 133:Drivers/CMSIS/Include/cmsis_gcc.h **** 
 134:Drivers/CMSIS/Include/cmsis_gcc.h **** 
 135:Drivers/CMSIS/Include/cmsis_gcc.h **** /**
 136:Drivers/CMSIS/Include/cmsis_gcc.h ****   \brief   Disable IRQ Interrupts
ARM GAS  /tmp/cci0BpQy.s 			page 8


 137:Drivers/CMSIS/Include/cmsis_gcc.h ****   \details Disables IRQ interrupts by setting the I-bit in the CPSR.
 138:Drivers/CMSIS/Include/cmsis_gcc.h ****            Can only be executed in Privileged modes.
 139:Drivers/CMSIS/Include/cmsis_gcc.h ****  */
 140:Drivers/CMSIS/Include/cmsis_gcc.h **** __STATIC_FORCEINLINE void __disable_irq(void)
  82              		.loc 2 140 27 view .LVU10
  83              	.LBB5:
 141:Drivers/CMSIS/Include/cmsis_gcc.h **** {
 142:Drivers/CMSIS/Include/cmsis_gcc.h ****   __ASM volatile ("cpsid i" : : : "memory");
  84              		.loc 2 142 3 view .LVU11
  85              		.syntax unified
  86              	@ 142 "Drivers/CMSIS/Include/cmsis_gcc.h" 1
  87 0000 72B6     		cpsid i
  88              	@ 0 "" 2
  89              		.thumb
  90              		.syntax unified
  91              	.L6:
  92              	.LBE5:
  93              	.LBE4:
 186:Core/Src/main.c ****   while (1)
  94              		.loc 1 186 3 discriminator 1 view .LVU12
 187:Core/Src/main.c ****   {
 188:Core/Src/main.c ****   }
  95              		.loc 1 188 3 discriminator 1 view .LVU13
 186:Core/Src/main.c ****   while (1)
  96              		.loc 1 186 9 discriminator 1 view .LVU14
  97 0002 FEE7     		b	.L6
  98              		.cfi_endproc
  99              	.LFE71:
 101              		.section	.text.SystemClock_Config,"ax",%progbits
 102              		.align	1
 103              		.global	SystemClock_Config
 104              		.syntax unified
 105              		.thumb
 106              		.thumb_func
 107              		.fpu softvfp
 109              	SystemClock_Config:
 110              	.LFB70:
 139:Core/Src/main.c ****   RCC_OscInitTypeDef RCC_OscInitStruct = {0};
 111              		.loc 1 139 1 view -0
 112              		.cfi_startproc
 113              		@ args = 0, pretend = 0, frame = 64
 114              		@ frame_needed = 0, uses_anonymous_args = 0
 115 0000 00B5     		push	{lr}
 116              	.LCFI1:
 117              		.cfi_def_cfa_offset 4
 118              		.cfi_offset 14, -4
 119 0002 91B0     		sub	sp, sp, #68
 120              	.LCFI2:
 121              		.cfi_def_cfa_offset 72
 140:Core/Src/main.c ****   RCC_ClkInitTypeDef RCC_ClkInitStruct = {0};
 122              		.loc 1 140 3 view .LVU16
 140:Core/Src/main.c ****   RCC_ClkInitTypeDef RCC_ClkInitStruct = {0};
 123              		.loc 1 140 22 is_stmt 0 view .LVU17
 124 0004 2822     		movs	r2, #40
 125 0006 0021     		movs	r1, #0
 126 0008 06A8     		add	r0, sp, #24
 127 000a FFF7FEFF 		bl	memset
ARM GAS  /tmp/cci0BpQy.s 			page 9


 128              	.LVL5:
 141:Core/Src/main.c **** 
 129              		.loc 1 141 3 is_stmt 1 view .LVU18
 141:Core/Src/main.c **** 
 130              		.loc 1 141 22 is_stmt 0 view .LVU19
 131 000e 0023     		movs	r3, #0
 132 0010 0193     		str	r3, [sp, #4]
 133 0012 0293     		str	r3, [sp, #8]
 134 0014 0393     		str	r3, [sp, #12]
 135 0016 0493     		str	r3, [sp, #16]
 136 0018 0593     		str	r3, [sp, #20]
 146:Core/Src/main.c ****   RCC_OscInitStruct.HSEState = RCC_HSE_ON;
 137              		.loc 1 146 3 is_stmt 1 view .LVU20
 146:Core/Src/main.c ****   RCC_OscInitStruct.HSEState = RCC_HSE_ON;
 138              		.loc 1 146 36 is_stmt 0 view .LVU21
 139 001a 0122     		movs	r2, #1
 140 001c 0692     		str	r2, [sp, #24]
 147:Core/Src/main.c ****   RCC_OscInitStruct.HSEPredivValue = RCC_HSE_PREDIV_DIV1;
 141              		.loc 1 147 3 is_stmt 1 view .LVU22
 147:Core/Src/main.c ****   RCC_OscInitStruct.HSEPredivValue = RCC_HSE_PREDIV_DIV1;
 142              		.loc 1 147 30 is_stmt 0 view .LVU23
 143 001e 4FF48033 		mov	r3, #65536
 144 0022 0793     		str	r3, [sp, #28]
 148:Core/Src/main.c ****   RCC_OscInitStruct.HSIState = RCC_HSI_ON;
 145              		.loc 1 148 3 is_stmt 1 view .LVU24
 149:Core/Src/main.c ****   RCC_OscInitStruct.PLL.PLLState = RCC_PLL_ON;
 146              		.loc 1 149 3 view .LVU25
 149:Core/Src/main.c ****   RCC_OscInitStruct.PLL.PLLState = RCC_PLL_ON;
 147              		.loc 1 149 30 is_stmt 0 view .LVU26
 148 0024 0A92     		str	r2, [sp, #40]
 150:Core/Src/main.c ****   RCC_OscInitStruct.PLL.PLLSource = RCC_PLLSOURCE_HSE;
 149              		.loc 1 150 3 is_stmt 1 view .LVU27
 150:Core/Src/main.c ****   RCC_OscInitStruct.PLL.PLLSource = RCC_PLLSOURCE_HSE;
 150              		.loc 1 150 34 is_stmt 0 view .LVU28
 151 0026 0222     		movs	r2, #2
 152 0028 0D92     		str	r2, [sp, #52]
 151:Core/Src/main.c ****   RCC_OscInitStruct.PLL.PLLMUL = RCC_PLL_MUL2;
 153              		.loc 1 151 3 is_stmt 1 view .LVU29
 151:Core/Src/main.c ****   RCC_OscInitStruct.PLL.PLLMUL = RCC_PLL_MUL2;
 154              		.loc 1 151 35 is_stmt 0 view .LVU30
 155 002a 0E93     		str	r3, [sp, #56]
 152:Core/Src/main.c ****   if (HAL_RCC_OscConfig(&RCC_OscInitStruct) != HAL_OK)
 156              		.loc 1 152 3 is_stmt 1 view .LVU31
 153:Core/Src/main.c ****   {
 157              		.loc 1 153 3 view .LVU32
 153:Core/Src/main.c ****   {
 158              		.loc 1 153 7 is_stmt 0 view .LVU33
 159 002c 06A8     		add	r0, sp, #24
 160 002e FFF7FEFF 		bl	HAL_RCC_OscConfig
 161              	.LVL6:
 153:Core/Src/main.c ****   {
 162              		.loc 1 153 6 view .LVU34
 163 0032 80B9     		cbnz	r0, .L11
 160:Core/Src/main.c ****                               |RCC_CLOCKTYPE_PCLK1|RCC_CLOCKTYPE_PCLK2;
 164              		.loc 1 160 3 is_stmt 1 view .LVU35
 160:Core/Src/main.c ****                               |RCC_CLOCKTYPE_PCLK1|RCC_CLOCKTYPE_PCLK2;
 165              		.loc 1 160 31 is_stmt 0 view .LVU36
ARM GAS  /tmp/cci0BpQy.s 			page 10


 166 0034 0F23     		movs	r3, #15
 167 0036 0193     		str	r3, [sp, #4]
 162:Core/Src/main.c ****   RCC_ClkInitStruct.AHBCLKDivider = RCC_SYSCLK_DIV1;
 168              		.loc 1 162 3 is_stmt 1 view .LVU37
 162:Core/Src/main.c ****   RCC_ClkInitStruct.AHBCLKDivider = RCC_SYSCLK_DIV1;
 169              		.loc 1 162 34 is_stmt 0 view .LVU38
 170 0038 0223     		movs	r3, #2
 171 003a 0293     		str	r3, [sp, #8]
 163:Core/Src/main.c ****   RCC_ClkInitStruct.APB1CLKDivider = RCC_HCLK_DIV2;
 172              		.loc 1 163 3 is_stmt 1 view .LVU39
 163:Core/Src/main.c ****   RCC_ClkInitStruct.APB1CLKDivider = RCC_HCLK_DIV2;
 173              		.loc 1 163 35 is_stmt 0 view .LVU40
 174 003c 0021     		movs	r1, #0
 175 003e 0391     		str	r1, [sp, #12]
 164:Core/Src/main.c ****   RCC_ClkInitStruct.APB2CLKDivider = RCC_HCLK_DIV1;
 176              		.loc 1 164 3 is_stmt 1 view .LVU41
 164:Core/Src/main.c ****   RCC_ClkInitStruct.APB2CLKDivider = RCC_HCLK_DIV1;
 177              		.loc 1 164 36 is_stmt 0 view .LVU42
 178 0040 4FF48063 		mov	r3, #1024
 179 0044 0493     		str	r3, [sp, #16]
 165:Core/Src/main.c **** 
 180              		.loc 1 165 3 is_stmt 1 view .LVU43
 165:Core/Src/main.c **** 
 181              		.loc 1 165 36 is_stmt 0 view .LVU44
 182 0046 0591     		str	r1, [sp, #20]
 167:Core/Src/main.c ****   {
 183              		.loc 1 167 3 is_stmt 1 view .LVU45
 167:Core/Src/main.c ****   {
 184              		.loc 1 167 7 is_stmt 0 view .LVU46
 185 0048 01A8     		add	r0, sp, #4
 186 004a FFF7FEFF 		bl	HAL_RCC_ClockConfig
 187              	.LVL7:
 167:Core/Src/main.c ****   {
 188              		.loc 1 167 6 view .LVU47
 189 004e 20B9     		cbnz	r0, .L12
 171:Core/Src/main.c **** 
 190              		.loc 1 171 1 view .LVU48
 191 0050 11B0     		add	sp, sp, #68
 192              	.LCFI3:
 193              		.cfi_remember_state
 194              		.cfi_def_cfa_offset 4
 195              		@ sp needed
 196 0052 5DF804FB 		ldr	pc, [sp], #4
 197              	.L11:
 198              	.LCFI4:
 199              		.cfi_restore_state
 155:Core/Src/main.c ****   }
 200              		.loc 1 155 5 is_stmt 1 view .LVU49
 201 0056 FFF7FEFF 		bl	Error_Handler
 202              	.LVL8:
 203              	.L12:
 169:Core/Src/main.c ****   }
 204              		.loc 1 169 5 view .LVU50
 205 005a FFF7FEFF 		bl	Error_Handler
 206              	.LVL9:
 207              		.cfi_endproc
 208              	.LFE70:
ARM GAS  /tmp/cci0BpQy.s 			page 11


 210              		.section	.text.main,"ax",%progbits
 211              		.align	1
 212              		.global	main
 213              		.syntax unified
 214              		.thumb
 215              		.thumb_func
 216              		.fpu softvfp
 218              	main:
 219              	.LFB69:
  77:Core/Src/main.c **** 
 220              		.loc 1 77 1 view -0
 221              		.cfi_startproc
 222              		@ Volatile: function does not return.
 223              		@ args = 0, pretend = 0, frame = 0
 224              		@ frame_needed = 0, uses_anonymous_args = 0
 225 0000 08B5     		push	{r3, lr}
 226              	.LCFI5:
 227              		.cfi_def_cfa_offset 8
 228              		.cfi_offset 3, -8
 229              		.cfi_offset 14, -4
  86:Core/Src/main.c **** 
 230              		.loc 1 86 3 view .LVU52
 231 0002 FFF7FEFF 		bl	HAL_Init
 232              	.LVL10:
  93:Core/Src/main.c **** 
 233              		.loc 1 93 3 view .LVU53
 234 0006 FFF7FEFF 		bl	SystemClock_Config
 235              	.LVL11:
 100:Core/Src/main.c ****   MX_I2C2_Init();
 236              		.loc 1 100 3 view .LVU54
 237 000a FFF7FEFF 		bl	MX_GPIO_Init
 238              	.LVL12:
 101:Core/Src/main.c ****   MX_USART1_UART_Init();
 239              		.loc 1 101 3 view .LVU55
 240 000e FFF7FEFF 		bl	MX_I2C2_Init
 241              	.LVL13:
 102:Core/Src/main.c ****   MX_SPI1_Init();
 242              		.loc 1 102 3 view .LVU56
 243 0012 FFF7FEFF 		bl	MX_USART1_UART_Init
 244              	.LVL14:
 103:Core/Src/main.c ****   /* USER CODE BEGIN 2 */
 245              		.loc 1 103 3 view .LVU57
 246 0016 FFF7FEFF 		bl	MX_SPI1_Init
 247              	.LVL15:
 105:Core/Src/main.c ****   {
 248              		.loc 1 105 3 view .LVU58
 105:Core/Src/main.c ****   {
 249              		.loc 1 105 6 is_stmt 0 view .LVU59
 250 001a 0848     		ldr	r0, .L18
 251 001c FFF7FEFF 		bl	HAL_I2C_EnableListen_IT
 252              	.LVL16:
 105:Core/Src/main.c ****   {
 253              		.loc 1 105 5 view .LVU60
 254 0020 48B9     		cbnz	r0, .L17
 255              	.L15:
 118:Core/Src/main.c ****   {
 256              		.loc 1 118 3 is_stmt 1 view .LVU61
ARM GAS  /tmp/cci0BpQy.s 			page 12


 120:Core/Src/main.c ****         {
 257              		.loc 1 120 5 view .LVU62
 120:Core/Src/main.c ****         {
 258              		.loc 1 120 9 is_stmt 0 view .LVU63
 259 0022 074B     		ldr	r3, .L18+4
 260 0024 1B78     		ldrb	r3, [r3]	@ zero_extendqisi2
 120:Core/Src/main.c ****         {
 261              		.loc 1 120 8 view .LVU64
 262 0026 002B     		cmp	r3, #0
 263 0028 FBD0     		beq	.L15
 122:Core/Src/main.c ****             process_image_capture();
 264              		.loc 1 122 13 is_stmt 1 view .LVU65
 122:Core/Src/main.c ****             process_image_capture();
 265              		.loc 1 122 31 is_stmt 0 view .LVU66
 266 002a 054B     		ldr	r3, .L18+4
 267 002c 0022     		movs	r2, #0
 268 002e 1A70     		strb	r2, [r3]
 123:Core/Src/main.c ****         }
 269              		.loc 1 123 13 is_stmt 1 view .LVU67
 270 0030 FFF7FEFF 		bl	process_image_capture
 271              	.LVL17:
 272 0034 F5E7     		b	.L15
 273              	.L17:
 107:Core/Src/main.c ****   }
 274              		.loc 1 107 5 view .LVU68
 275 0036 FFF7FEFF 		bl	Error_Handler
 276              	.LVL18:
 277              	.L19:
 278 003a 00BF     		.align	2
 279              	.L18:
 280 003c 00000000 		.word	hi2c2
 281 0040 00000000 		.word	capture_requested
 282              		.cfi_endproc
 283              	.LFE69:
 285              		.text
 286              	.Letext0:
 287              		.file 3 "/usr/lib/gcc/arm-none-eabi/10.3.1/include/stdint.h"
 288              		.file 4 "Drivers/CMSIS/Device/ST/STM32F1xx/Include/stm32f103xb.h"
 289              		.file 5 "Drivers/STM32F1xx_HAL_Driver/Inc/stm32f1xx_hal_def.h"
 290              		.file 6 "Drivers/STM32F1xx_HAL_Driver/Inc/stm32f1xx_hal_rcc.h"
 291              		.file 7 "Drivers/STM32F1xx_HAL_Driver/Inc/stm32f1xx_hal_rcc_ex.h"
 292              		.file 8 "Drivers/STM32F1xx_HAL_Driver/Inc/stm32f1xx_hal_dma.h"
 293              		.file 9 "Drivers/STM32F1xx_HAL_Driver/Inc/stm32f1xx_hal_i2c.h"
 294              		.file 10 "Drivers/STM32F1xx_HAL_Driver/Inc/stm32f1xx_hal_uart.h"
 295              		.file 11 "Core/Inc/i2c.h"
 296              		.file 12 "Core/Inc/usart.h"
 297              		.file 13 "Core/Inc/i2c_slave.h"
 298              		.file 14 "Drivers/STM32F1xx_HAL_Driver/Inc/stm32f1xx_hal.h"
 299              		.file 15 "Core/Inc/gpio.h"
 300              		.file 16 "Core/Inc/spi.h"
 301              		.file 17 "Core/Inc/camera.h"
 302              		.file 18 "<built-in>"
ARM GAS  /tmp/cci0BpQy.s 			page 13


DEFINED SYMBOLS
                            *ABS*:0000000000000000 main.c
     /tmp/cci0BpQy.s:16     .text._write:0000000000000000 $t
     /tmp/cci0BpQy.s:24     .text._write:0000000000000000 _write
     /tmp/cci0BpQy.s:58     .text._write:0000000000000014 $d
     /tmp/cci0BpQy.s:63     .text.Error_Handler:0000000000000000 $t
     /tmp/cci0BpQy.s:70     .text.Error_Handler:0000000000000000 Error_Handler
     /tmp/cci0BpQy.s:102    .text.SystemClock_Config:0000000000000000 $t
     /tmp/cci0BpQy.s:109    .text.SystemClock_Config:0000000000000000 SystemClock_Config
     /tmp/cci0BpQy.s:211    .text.main:0000000000000000 $t
     /tmp/cci0BpQy.s:218    .text.main:0000000000000000 main
     /tmp/cci0BpQy.s:280    .text.main:000000000000003c $d

UNDEFINED SYMBOLS
HAL_UART_Transmit
huart1
memset
HAL_RCC_OscConfig
HAL_RCC_ClockConfig
HAL_Init
MX_GPIO_Init
MX_I2C2_Init
MX_USART1_UART_Init
MX_SPI1_Init
HAL_I2C_EnableListen_IT
process_image_capture
hi2c2
capture_requested
