ARM GAS  /tmp/cc7E6AkE.s 			page 1


   1              		.cpu cortex-m3
   2              		.eabi_attribute 20, 1
   3              		.eabi_attribute 21, 1
   4              		.eabi_attribute 23, 3
   5              		.eabi_attribute 24, 1
   6              		.eabi_attribute 25, 1
   7              		.eabi_attribute 26, 1
   8              		.eabi_attribute 30, 1
   9              		.eabi_attribute 34, 1
  10              		.eabi_attribute 18, 4
  11              		.file	"main.c"
  12              		.text
  13              	.Ltext0:
  14              		.cfi_sections	.debug_frame
  15              		.section	.text._write,"ax",%progbits
  16              		.align	1
  17              		.global	_write
  18              		.arch armv7-m
  19              		.syntax unified
  20              		.thumb
  21              		.thumb_func
  22              		.fpu softvfp
  24              	_write:
  25              	.LVL0:
  26              	.LFB68:
  27              		.file 1 "Core/Src/main.c"
   1:Core/Src/main.c **** /* USER CODE BEGIN Header */
   2:Core/Src/main.c **** /**
   3:Core/Src/main.c ****   ******************************************************************************
   4:Core/Src/main.c ****   * @file           : main.c
   5:Core/Src/main.c ****   * @brief          : Main program body
   6:Core/Src/main.c ****   * @date           : 04-07-2025
   7:Core/Src/main.c ****   * @author         : Sarthak Chaudhary
   8:Core/Src/main.c ****   *****************************************************************************
   9:Core/Src/main.c ****   * @attention
  10:Core/Src/main.c ****   *
  11:Core/Src/main.c ****   * Copyright (c) 2025 STMicroelectronics.
  12:Core/Src/main.c ****   * All rights reserved.
  13:Core/Src/main.c ****   *
  14:Core/Src/main.c ****   * This software is licensed under terms that can be found in the LICENSE file
  15:Core/Src/main.c ****   * in the root directory of this software component.
  16:Core/Src/main.c ****   * If no LICENSE file comes with this software, it is provided AS-IS.
  17:Core/Src/main.c ****   *
  18:Core/Src/main.c ****   ******************************************************************************
  19:Core/Src/main.c ****   */
  20:Core/Src/main.c **** /* USER CODE END Header */
  21:Core/Src/main.c **** /* Includes ------------------------------------------------------------------*/
  22:Core/Src/main.c **** #include "main.h"
  23:Core/Src/main.c **** #include "i2c.h"
  24:Core/Src/main.c **** #include "spi.h"
  25:Core/Src/main.c **** #include "usart.h"
  26:Core/Src/main.c **** #include "gpio.h"
  27:Core/Src/main.c **** 
  28:Core/Src/main.c **** /* Private includes ----------------------------------------------------------*/
  29:Core/Src/main.c **** /* USER CODE BEGIN Includes */
  30:Core/Src/main.c **** #include <stdio.h>
  31:Core/Src/main.c **** #include <inttypes.h>
ARM GAS  /tmp/cc7E6AkE.s 			page 2


  32:Core/Src/main.c **** #include "camera.h"
  33:Core/Src/main.c **** #include "i2c_slave.h"
  34:Core/Src/main.c **** #include "watchdog.h"
  35:Core/Src/main.c **** int _write(int file, char *data, int len) {
  28              		.loc 1 35 43 view -0
  29              		.cfi_startproc
  30              		@ args = 0, pretend = 0, frame = 0
  31              		@ frame_needed = 0, uses_anonymous_args = 0
  32              		.loc 1 35 43 is_stmt 0 view .LVU1
  33 0000 10B5     		push	{r4, lr}
  34              	.LCFI0:
  35              		.cfi_def_cfa_offset 8
  36              		.cfi_offset 4, -8
  37              		.cfi_offset 14, -4
  38 0002 1446     		mov	r4, r2
  36:Core/Src/main.c ****     HAL_UART_Transmit(&huart1, (uint8_t*)data, len, HAL_MAX_DELAY);
  39              		.loc 1 36 5 is_stmt 1 view .LVU2
  40 0004 4FF0FF33 		mov	r3, #-1
  41 0008 92B2     		uxth	r2, r2
  42              	.LVL1:
  43              		.loc 1 36 5 is_stmt 0 view .LVU3
  44 000a 0248     		ldr	r0, .L3
  45              	.LVL2:
  46              		.loc 1 36 5 view .LVU4
  47 000c FFF7FEFF 		bl	HAL_UART_Transmit
  48              	.LVL3:
  37:Core/Src/main.c ****     return len;
  49              		.loc 1 37 5 is_stmt 1 view .LVU5
  38:Core/Src/main.c **** }
  50              		.loc 1 38 1 is_stmt 0 view .LVU6
  51 0010 2046     		mov	r0, r4
  52 0012 10BD     		pop	{r4, pc}
  53              	.LVL4:
  54              	.L4:
  55              		.loc 1 38 1 view .LVU7
  56              		.align	2
  57              	.L3:
  58 0014 00000000 		.word	huart1
  59              		.cfi_endproc
  60              	.LFE68:
  62              		.section	.text.Error_Handler,"ax",%progbits
  63              		.align	1
  64              		.global	Error_Handler
  65              		.syntax unified
  66              		.thumb
  67              		.thumb_func
  68              		.fpu softvfp
  70              	Error_Handler:
  71              	.LFB71:
  39:Core/Src/main.c **** /* USER CODE END Includes */
  40:Core/Src/main.c **** 
  41:Core/Src/main.c **** /* Private typedef -----------------------------------------------------------*/
  42:Core/Src/main.c **** /* USER CODE BEGIN PTD */
  43:Core/Src/main.c **** 
  44:Core/Src/main.c **** /* USER CODE END PTD */
  45:Core/Src/main.c **** 
  46:Core/Src/main.c **** /* Private define ------------------------------------------------------------*/
ARM GAS  /tmp/cc7E6AkE.s 			page 3


  47:Core/Src/main.c **** /* USER CODE BEGIN PD */
  48:Core/Src/main.c **** 
  49:Core/Src/main.c **** /* USER CODE END PD */
  50:Core/Src/main.c **** 
  51:Core/Src/main.c **** /* Private macro -------------------------------------------------------------*/
  52:Core/Src/main.c **** /* USER CODE BEGIN PM */
  53:Core/Src/main.c **** 
  54:Core/Src/main.c **** /* USER CODE END PM */
  55:Core/Src/main.c **** 
  56:Core/Src/main.c **** /* Private variables ---------------------------------------------------------*/
  57:Core/Src/main.c **** 
  58:Core/Src/main.c **** /* USER CODE BEGIN PV */
  59:Core/Src/main.c **** 
  60:Core/Src/main.c **** /* USER CODE END PV */
  61:Core/Src/main.c **** 
  62:Core/Src/main.c **** /* Private function prototypes -----------------------------------------------*/
  63:Core/Src/main.c **** void SystemClock_Config(void);
  64:Core/Src/main.c **** /* USER CODE BEGIN PFP */
  65:Core/Src/main.c **** 
  66:Core/Src/main.c **** /* USER CODE END PFP */
  67:Core/Src/main.c **** 
  68:Core/Src/main.c **** /* Private user code ---------------------------------------------------------*/
  69:Core/Src/main.c **** /* USER CODE BEGIN 0 */
  70:Core/Src/main.c **** 
  71:Core/Src/main.c **** /* USER CODE END 0 */
  72:Core/Src/main.c **** 
  73:Core/Src/main.c **** /**
  74:Core/Src/main.c ****   * @brief  The application entry point.
  75:Core/Src/main.c ****   * @retval int
  76:Core/Src/main.c ****   */
  77:Core/Src/main.c **** int main(void)
  78:Core/Src/main.c **** {
  79:Core/Src/main.c **** 
  80:Core/Src/main.c ****   /* USER CODE BEGIN 1 */
  81:Core/Src/main.c **** 
  82:Core/Src/main.c ****   /* USER CODE END 1 */
  83:Core/Src/main.c **** 
  84:Core/Src/main.c ****   /* MCU Configuration--------------------------------------------------------*/
  85:Core/Src/main.c **** 
  86:Core/Src/main.c ****   /* Reset of all peripherals, Initializes the Flash interface and the Systick. */
  87:Core/Src/main.c ****   HAL_Init();
  88:Core/Src/main.c **** 
  89:Core/Src/main.c ****   /* USER CODE BEGIN Init */
  90:Core/Src/main.c **** 
  91:Core/Src/main.c ****   /* USER CODE END Init */
  92:Core/Src/main.c **** 
  93:Core/Src/main.c ****   /* Configure the system clock */
  94:Core/Src/main.c ****   SystemClock_Config();
  95:Core/Src/main.c **** 
  96:Core/Src/main.c ****   /* USER CODE BEGIN SysInit */
  97:Core/Src/main.c **** 
  98:Core/Src/main.c ****   /* USER CODE END SysInit */
  99:Core/Src/main.c **** 
 100:Core/Src/main.c ****   /* Initialize all configured peripherals */
 101:Core/Src/main.c ****   MX_GPIO_Init();
 102:Core/Src/main.c ****   MX_I2C2_Init();
 103:Core/Src/main.c ****   MX_USART1_UART_Init();
ARM GAS  /tmp/cc7E6AkE.s 			page 4


 104:Core/Src/main.c ****   MX_SPI1_Init();
 105:Core/Src/main.c ****   /* USER CODE BEGIN 2 */
 106:Core/Src/main.c ****   uint32_t last_i2c_check_time = 0;
 107:Core/Src/main.c ****   extern uint32_t last_i2c_activity;  // Ensure declared in .c file
 108:Core/Src/main.c **** 
 109:Core/Src/main.c ****   printf("slave got started..........\r\n");
 110:Core/Src/main.c ****   if(HAL_I2C_EnableListen_IT(&hi2c2)!=HAL_OK)
 111:Core/Src/main.c ****   {
 112:Core/Src/main.c ****     Error_Handler();
 113:Core/Src/main.c ****   }
 114:Core/Src/main.c ****   watchdog_init();
 115:Core/Src/main.c **** 
 116:Core/Src/main.c ****   /* USER CODE END 2 */
 117:Core/Src/main.c **** 
 118:Core/Src/main.c ****   /* Infinite loop */
 119:Core/Src/main.c ****   /* USER CODE BEGIN WHILE */
 120:Core/Src/main.c ****    while (1)
 121:Core/Src/main.c ****   {
 122:Core/Src/main.c **** 
 123:Core/Src/main.c ****     if (capture_requested)
 124:Core/Src/main.c ****     {
 125:Core/Src/main.c ****       arducam_set_jpeg_mode();
 126:Core/Src/main.c ****       HAL_Delay(2000);
 127:Core/Src/main.c ****       process_image_capture();
 128:Core/Src/main.c ****       capture_requested = 0;
 129:Core/Src/main.c ****     }
 130:Core/Src/main.c **** 
 131:Core/Src/main.c ****     if (HAL_GetTick() - last_i2c_check_time > 1000)  // every 1s
 132:Core/Src/main.c ****     {
 133:Core/Src/main.c ****       last_i2c_check_time = HAL_GetTick();
 134:Core/Src/main.c **** 
 135:Core/Src/main.c ****       if ((HAL_GetTick() - last_i2c_activity > 3000) &&
 136:Core/Src/main.c ****           (__HAL_I2C_GET_FLAG(&hi2c2, I2C_FLAG_BUSY)))
 137:Core/Src/main.c ****       {
 138:Core/Src/main.c ****         printf("I2C timeout detected! Resetting I2C2...\r\n");
 139:Core/Src/main.c **** 
 140:Core/Src/main.c ****         __HAL_RCC_I2C2_FORCE_RESET();
 141:Core/Src/main.c ****         HAL_Delay(2);
 142:Core/Src/main.c ****         __HAL_RCC_I2C2_RELEASE_RESET();
 143:Core/Src/main.c ****         MX_I2C2_Init();  
 144:Core/Src/main.c ****         HAL_I2C_EnableListen_IT(&hi2c2);
 145:Core/Src/main.c **** 
 146:Core/Src/main.c ****         capture_requested = 0;
 147:Core/Src/main.c ****         prestore_image_requested = 0;
 148:Core/Src/main.c ****         send_all_packets = 0;
 149:Core/Src/main.c ****         current_packet_index = 0;
 150:Core/Src/main.c **** 
 151:Core/Src/main.c ****         // Reset watchdog period after bus recovery
 152:Core/Src/main.c ****         watchdog_set_time_period(WD_DELAY_1_S);
 153:Core/Src/main.c ****       }
 154:Core/Src/main.c ****     }
 155:Core/Src/main.c ****   }
 156:Core/Src/main.c **** 
 157:Core/Src/main.c ****  
 158:Core/Src/main.c ****      
 159:Core/Src/main.c **** 
 160:Core/Src/main.c ****   //   /* USER CODE END WHILE */
ARM GAS  /tmp/cc7E6AkE.s 			page 5


 161:Core/Src/main.c **** 
 162:Core/Src/main.c ****   //   /* USER CODE BEGIN 3 */
 163:Core/Src/main.c **** 
 164:Core/Src/main.c ****  
 165:Core/Src/main.c ****   /* USER CODE END 3 */
 166:Core/Src/main.c **** }
 167:Core/Src/main.c **** 
 168:Core/Src/main.c **** /**
 169:Core/Src/main.c ****   * @brief System Clock Configuration
 170:Core/Src/main.c ****   * @retval None
 171:Core/Src/main.c ****   */
 172:Core/Src/main.c **** void SystemClock_Config(void)
 173:Core/Src/main.c **** {
 174:Core/Src/main.c ****   RCC_OscInitTypeDef RCC_OscInitStruct = {0};
 175:Core/Src/main.c ****   RCC_ClkInitTypeDef RCC_ClkInitStruct = {0};
 176:Core/Src/main.c **** 
 177:Core/Src/main.c ****   /** Initializes the RCC Oscillators according to the specified parameters
 178:Core/Src/main.c ****   * in the RCC_OscInitTypeDef structure.
 179:Core/Src/main.c ****   */
 180:Core/Src/main.c ****   RCC_OscInitStruct.OscillatorType = RCC_OSCILLATORTYPE_HSE;
 181:Core/Src/main.c ****   RCC_OscInitStruct.HSEState = RCC_HSE_ON;
 182:Core/Src/main.c ****   RCC_OscInitStruct.HSEPredivValue = RCC_HSE_PREDIV_DIV1;
 183:Core/Src/main.c ****   RCC_OscInitStruct.HSIState = RCC_HSI_ON;
 184:Core/Src/main.c ****   RCC_OscInitStruct.PLL.PLLState = RCC_PLL_ON;
 185:Core/Src/main.c ****   RCC_OscInitStruct.PLL.PLLSource = RCC_PLLSOURCE_HSE;
 186:Core/Src/main.c ****   RCC_OscInitStruct.PLL.PLLMUL = RCC_PLL_MUL2;
 187:Core/Src/main.c ****   if (HAL_RCC_OscConfig(&RCC_OscInitStruct) != HAL_OK)
 188:Core/Src/main.c ****   {
 189:Core/Src/main.c ****     Error_Handler();
 190:Core/Src/main.c ****   }
 191:Core/Src/main.c **** 
 192:Core/Src/main.c ****   /** Initializes the CPU, AHB and APB buses clocks
 193:Core/Src/main.c ****   */
 194:Core/Src/main.c ****   RCC_ClkInitStruct.ClockType = RCC_CLOCKTYPE_HCLK|RCC_CLOCKTYPE_SYSCLK
 195:Core/Src/main.c ****                               |RCC_CLOCKTYPE_PCLK1|RCC_CLOCKTYPE_PCLK2;
 196:Core/Src/main.c ****   RCC_ClkInitStruct.SYSCLKSource = RCC_SYSCLKSOURCE_PLLCLK;
 197:Core/Src/main.c ****   RCC_ClkInitStruct.AHBCLKDivider = RCC_SYSCLK_DIV1;
 198:Core/Src/main.c ****   RCC_ClkInitStruct.APB1CLKDivider = RCC_HCLK_DIV2;
 199:Core/Src/main.c ****   RCC_ClkInitStruct.APB2CLKDivider = RCC_HCLK_DIV1;
 200:Core/Src/main.c **** 
 201:Core/Src/main.c ****   if (HAL_RCC_ClockConfig(&RCC_ClkInitStruct, FLASH_LATENCY_0) != HAL_OK)
 202:Core/Src/main.c ****   {
 203:Core/Src/main.c ****     Error_Handler();
 204:Core/Src/main.c ****   }
 205:Core/Src/main.c **** }
 206:Core/Src/main.c **** 
 207:Core/Src/main.c **** /* USER CODE BEGIN 4 */
 208:Core/Src/main.c **** 
 209:Core/Src/main.c **** /* USER CODE END 4 */
 210:Core/Src/main.c **** 
 211:Core/Src/main.c **** /**
 212:Core/Src/main.c ****   * @brief  This function is executed in case of error occurrence.
 213:Core/Src/main.c ****   * @retval None
 214:Core/Src/main.c ****   */
 215:Core/Src/main.c **** void Error_Handler(void)
 216:Core/Src/main.c **** {
  72              		.loc 1 216 1 is_stmt 1 view -0
ARM GAS  /tmp/cc7E6AkE.s 			page 6


  73              		.cfi_startproc
  74              		@ Volatile: function does not return.
  75              		@ args = 0, pretend = 0, frame = 0
  76              		@ frame_needed = 0, uses_anonymous_args = 0
  77              		@ link register save eliminated.
 217:Core/Src/main.c ****   /* USER CODE BEGIN Error_Handler_Debug */
 218:Core/Src/main.c ****   /* User can add his own implementation to report the HAL error return state */
 219:Core/Src/main.c ****   __disable_irq();
  78              		.loc 1 219 3 view .LVU9
  79              	.LBB4:
  80              	.LBI4:
  81              		.file 2 "Drivers/CMSIS/Include/cmsis_gcc.h"
   1:Drivers/CMSIS/Include/cmsis_gcc.h **** /**************************************************************************//**
   2:Drivers/CMSIS/Include/cmsis_gcc.h ****  * @file     cmsis_gcc.h
   3:Drivers/CMSIS/Include/cmsis_gcc.h ****  * @brief    CMSIS compiler GCC header file
   4:Drivers/CMSIS/Include/cmsis_gcc.h ****  * @version  V5.0.4
   5:Drivers/CMSIS/Include/cmsis_gcc.h ****  * @date     09. April 2018
   6:Drivers/CMSIS/Include/cmsis_gcc.h ****  ******************************************************************************/
   7:Drivers/CMSIS/Include/cmsis_gcc.h **** /*
   8:Drivers/CMSIS/Include/cmsis_gcc.h ****  * Copyright (c) 2009-2018 Arm Limited. All rights reserved.
   9:Drivers/CMSIS/Include/cmsis_gcc.h ****  *
  10:Drivers/CMSIS/Include/cmsis_gcc.h ****  * SPDX-License-Identifier: Apache-2.0
  11:Drivers/CMSIS/Include/cmsis_gcc.h ****  *
  12:Drivers/CMSIS/Include/cmsis_gcc.h ****  * Licensed under the Apache License, Version 2.0 (the License); you may
  13:Drivers/CMSIS/Include/cmsis_gcc.h ****  * not use this file except in compliance with the License.
  14:Drivers/CMSIS/Include/cmsis_gcc.h ****  * You may obtain a copy of the License at
  15:Drivers/CMSIS/Include/cmsis_gcc.h ****  *
  16:Drivers/CMSIS/Include/cmsis_gcc.h ****  * www.apache.org/licenses/LICENSE-2.0
  17:Drivers/CMSIS/Include/cmsis_gcc.h ****  *
  18:Drivers/CMSIS/Include/cmsis_gcc.h ****  * Unless required by applicable law or agreed to in writing, software
  19:Drivers/CMSIS/Include/cmsis_gcc.h ****  * distributed under the License is distributed on an AS IS BASIS, WITHOUT
  20:Drivers/CMSIS/Include/cmsis_gcc.h ****  * WARRANTIES OR CONDITIONS OF ANY KIND, either express or implied.
  21:Drivers/CMSIS/Include/cmsis_gcc.h ****  * See the License for the specific language governing permissions and
  22:Drivers/CMSIS/Include/cmsis_gcc.h ****  * limitations under the License.
  23:Drivers/CMSIS/Include/cmsis_gcc.h ****  */
  24:Drivers/CMSIS/Include/cmsis_gcc.h **** 
  25:Drivers/CMSIS/Include/cmsis_gcc.h **** #ifndef __CMSIS_GCC_H
  26:Drivers/CMSIS/Include/cmsis_gcc.h **** #define __CMSIS_GCC_H
  27:Drivers/CMSIS/Include/cmsis_gcc.h **** 
  28:Drivers/CMSIS/Include/cmsis_gcc.h **** /* ignore some GCC warnings */
  29:Drivers/CMSIS/Include/cmsis_gcc.h **** #pragma GCC diagnostic push
  30:Drivers/CMSIS/Include/cmsis_gcc.h **** #pragma GCC diagnostic ignored "-Wsign-conversion"
  31:Drivers/CMSIS/Include/cmsis_gcc.h **** #pragma GCC diagnostic ignored "-Wconversion"
  32:Drivers/CMSIS/Include/cmsis_gcc.h **** #pragma GCC diagnostic ignored "-Wunused-parameter"
  33:Drivers/CMSIS/Include/cmsis_gcc.h **** 
  34:Drivers/CMSIS/Include/cmsis_gcc.h **** /* Fallback for __has_builtin */
  35:Drivers/CMSIS/Include/cmsis_gcc.h **** #ifndef __has_builtin
  36:Drivers/CMSIS/Include/cmsis_gcc.h ****   #define __has_builtin(x) (0)
  37:Drivers/CMSIS/Include/cmsis_gcc.h **** #endif
  38:Drivers/CMSIS/Include/cmsis_gcc.h **** 
  39:Drivers/CMSIS/Include/cmsis_gcc.h **** /* CMSIS compiler specific defines */
  40:Drivers/CMSIS/Include/cmsis_gcc.h **** #ifndef   __ASM
  41:Drivers/CMSIS/Include/cmsis_gcc.h ****   #define __ASM                                  __asm
  42:Drivers/CMSIS/Include/cmsis_gcc.h **** #endif
  43:Drivers/CMSIS/Include/cmsis_gcc.h **** #ifndef   __INLINE
  44:Drivers/CMSIS/Include/cmsis_gcc.h ****   #define __INLINE                               inline
  45:Drivers/CMSIS/Include/cmsis_gcc.h **** #endif
ARM GAS  /tmp/cc7E6AkE.s 			page 7


  46:Drivers/CMSIS/Include/cmsis_gcc.h **** #ifndef   __STATIC_INLINE
  47:Drivers/CMSIS/Include/cmsis_gcc.h ****   #define __STATIC_INLINE                        static inline
  48:Drivers/CMSIS/Include/cmsis_gcc.h **** #endif
  49:Drivers/CMSIS/Include/cmsis_gcc.h **** #ifndef   __STATIC_FORCEINLINE                 
  50:Drivers/CMSIS/Include/cmsis_gcc.h ****   #define __STATIC_FORCEINLINE                   __attribute__((always_inline)) static inline
  51:Drivers/CMSIS/Include/cmsis_gcc.h **** #endif                                           
  52:Drivers/CMSIS/Include/cmsis_gcc.h **** #ifndef   __NO_RETURN
  53:Drivers/CMSIS/Include/cmsis_gcc.h ****   #define __NO_RETURN                            __attribute__((__noreturn__))
  54:Drivers/CMSIS/Include/cmsis_gcc.h **** #endif
  55:Drivers/CMSIS/Include/cmsis_gcc.h **** #ifndef   __USED
  56:Drivers/CMSIS/Include/cmsis_gcc.h ****   #define __USED                                 __attribute__((used))
  57:Drivers/CMSIS/Include/cmsis_gcc.h **** #endif
  58:Drivers/CMSIS/Include/cmsis_gcc.h **** #ifndef   __WEAK
  59:Drivers/CMSIS/Include/cmsis_gcc.h ****   #define __WEAK                                 __attribute__((weak))
  60:Drivers/CMSIS/Include/cmsis_gcc.h **** #endif
  61:Drivers/CMSIS/Include/cmsis_gcc.h **** #ifndef   __PACKED
  62:Drivers/CMSIS/Include/cmsis_gcc.h ****   #define __PACKED                               __attribute__((packed, aligned(1)))
  63:Drivers/CMSIS/Include/cmsis_gcc.h **** #endif
  64:Drivers/CMSIS/Include/cmsis_gcc.h **** #ifndef   __PACKED_STRUCT
  65:Drivers/CMSIS/Include/cmsis_gcc.h ****   #define __PACKED_STRUCT                        struct __attribute__((packed, aligned(1)))
  66:Drivers/CMSIS/Include/cmsis_gcc.h **** #endif
  67:Drivers/CMSIS/Include/cmsis_gcc.h **** #ifndef   __PACKED_UNION
  68:Drivers/CMSIS/Include/cmsis_gcc.h ****   #define __PACKED_UNION                         union __attribute__((packed, aligned(1)))
  69:Drivers/CMSIS/Include/cmsis_gcc.h **** #endif
  70:Drivers/CMSIS/Include/cmsis_gcc.h **** #ifndef   __UNALIGNED_UINT32        /* deprecated */
  71:Drivers/CMSIS/Include/cmsis_gcc.h ****   #pragma GCC diagnostic push
  72:Drivers/CMSIS/Include/cmsis_gcc.h ****   #pragma GCC diagnostic ignored "-Wpacked"
  73:Drivers/CMSIS/Include/cmsis_gcc.h ****   #pragma GCC diagnostic ignored "-Wattributes"
  74:Drivers/CMSIS/Include/cmsis_gcc.h ****   struct __attribute__((packed)) T_UINT32 { uint32_t v; };
  75:Drivers/CMSIS/Include/cmsis_gcc.h ****   #pragma GCC diagnostic pop
  76:Drivers/CMSIS/Include/cmsis_gcc.h ****   #define __UNALIGNED_UINT32(x)                  (((struct T_UINT32 *)(x))->v)
  77:Drivers/CMSIS/Include/cmsis_gcc.h **** #endif
  78:Drivers/CMSIS/Include/cmsis_gcc.h **** #ifndef   __UNALIGNED_UINT16_WRITE
  79:Drivers/CMSIS/Include/cmsis_gcc.h ****   #pragma GCC diagnostic push
  80:Drivers/CMSIS/Include/cmsis_gcc.h ****   #pragma GCC diagnostic ignored "-Wpacked"
  81:Drivers/CMSIS/Include/cmsis_gcc.h ****   #pragma GCC diagnostic ignored "-Wattributes"
  82:Drivers/CMSIS/Include/cmsis_gcc.h ****   __PACKED_STRUCT T_UINT16_WRITE { uint16_t v; };
  83:Drivers/CMSIS/Include/cmsis_gcc.h ****   #pragma GCC diagnostic pop
  84:Drivers/CMSIS/Include/cmsis_gcc.h ****   #define __UNALIGNED_UINT16_WRITE(addr, val)    (void)((((struct T_UINT16_WRITE *)(void *)(addr))-
  85:Drivers/CMSIS/Include/cmsis_gcc.h **** #endif
  86:Drivers/CMSIS/Include/cmsis_gcc.h **** #ifndef   __UNALIGNED_UINT16_READ
  87:Drivers/CMSIS/Include/cmsis_gcc.h ****   #pragma GCC diagnostic push
  88:Drivers/CMSIS/Include/cmsis_gcc.h ****   #pragma GCC diagnostic ignored "-Wpacked"
  89:Drivers/CMSIS/Include/cmsis_gcc.h ****   #pragma GCC diagnostic ignored "-Wattributes"
  90:Drivers/CMSIS/Include/cmsis_gcc.h ****   __PACKED_STRUCT T_UINT16_READ { uint16_t v; };
  91:Drivers/CMSIS/Include/cmsis_gcc.h ****   #pragma GCC diagnostic pop
  92:Drivers/CMSIS/Include/cmsis_gcc.h ****   #define __UNALIGNED_UINT16_READ(addr)          (((const struct T_UINT16_READ *)(const void *)(add
  93:Drivers/CMSIS/Include/cmsis_gcc.h **** #endif
  94:Drivers/CMSIS/Include/cmsis_gcc.h **** #ifndef   __UNALIGNED_UINT32_WRITE
  95:Drivers/CMSIS/Include/cmsis_gcc.h ****   #pragma GCC diagnostic push
  96:Drivers/CMSIS/Include/cmsis_gcc.h ****   #pragma GCC diagnostic ignored "-Wpacked"
  97:Drivers/CMSIS/Include/cmsis_gcc.h ****   #pragma GCC diagnostic ignored "-Wattributes"
  98:Drivers/CMSIS/Include/cmsis_gcc.h ****   __PACKED_STRUCT T_UINT32_WRITE { uint32_t v; };
  99:Drivers/CMSIS/Include/cmsis_gcc.h ****   #pragma GCC diagnostic pop
 100:Drivers/CMSIS/Include/cmsis_gcc.h ****   #define __UNALIGNED_UINT32_WRITE(addr, val)    (void)((((struct T_UINT32_WRITE *)(void *)(addr))-
 101:Drivers/CMSIS/Include/cmsis_gcc.h **** #endif
 102:Drivers/CMSIS/Include/cmsis_gcc.h **** #ifndef   __UNALIGNED_UINT32_READ
ARM GAS  /tmp/cc7E6AkE.s 			page 8


 103:Drivers/CMSIS/Include/cmsis_gcc.h ****   #pragma GCC diagnostic push
 104:Drivers/CMSIS/Include/cmsis_gcc.h ****   #pragma GCC diagnostic ignored "-Wpacked"
 105:Drivers/CMSIS/Include/cmsis_gcc.h ****   #pragma GCC diagnostic ignored "-Wattributes"
 106:Drivers/CMSIS/Include/cmsis_gcc.h ****   __PACKED_STRUCT T_UINT32_READ { uint32_t v; };
 107:Drivers/CMSIS/Include/cmsis_gcc.h ****   #pragma GCC diagnostic pop
 108:Drivers/CMSIS/Include/cmsis_gcc.h ****   #define __UNALIGNED_UINT32_READ(addr)          (((const struct T_UINT32_READ *)(const void *)(add
 109:Drivers/CMSIS/Include/cmsis_gcc.h **** #endif
 110:Drivers/CMSIS/Include/cmsis_gcc.h **** #ifndef   __ALIGNED
 111:Drivers/CMSIS/Include/cmsis_gcc.h ****   #define __ALIGNED(x)                           __attribute__((aligned(x)))
 112:Drivers/CMSIS/Include/cmsis_gcc.h **** #endif
 113:Drivers/CMSIS/Include/cmsis_gcc.h **** #ifndef   __RESTRICT
 114:Drivers/CMSIS/Include/cmsis_gcc.h ****   #define __RESTRICT                             __restrict
 115:Drivers/CMSIS/Include/cmsis_gcc.h **** #endif
 116:Drivers/CMSIS/Include/cmsis_gcc.h **** 
 117:Drivers/CMSIS/Include/cmsis_gcc.h **** 
 118:Drivers/CMSIS/Include/cmsis_gcc.h **** /* ###########################  Core Function Access  ########################### */
 119:Drivers/CMSIS/Include/cmsis_gcc.h **** /** \ingroup  CMSIS_Core_FunctionInterface
 120:Drivers/CMSIS/Include/cmsis_gcc.h ****     \defgroup CMSIS_Core_RegAccFunctions CMSIS Core Register Access Functions
 121:Drivers/CMSIS/Include/cmsis_gcc.h ****   @{
 122:Drivers/CMSIS/Include/cmsis_gcc.h ****  */
 123:Drivers/CMSIS/Include/cmsis_gcc.h **** 
 124:Drivers/CMSIS/Include/cmsis_gcc.h **** /**
 125:Drivers/CMSIS/Include/cmsis_gcc.h ****   \brief   Enable IRQ Interrupts
 126:Drivers/CMSIS/Include/cmsis_gcc.h ****   \details Enables IRQ interrupts by clearing the I-bit in the CPSR.
 127:Drivers/CMSIS/Include/cmsis_gcc.h ****            Can only be executed in Privileged modes.
 128:Drivers/CMSIS/Include/cmsis_gcc.h ****  */
 129:Drivers/CMSIS/Include/cmsis_gcc.h **** __STATIC_FORCEINLINE void __enable_irq(void)
 130:Drivers/CMSIS/Include/cmsis_gcc.h **** {
 131:Drivers/CMSIS/Include/cmsis_gcc.h ****   __ASM volatile ("cpsie i" : : : "memory");
 132:Drivers/CMSIS/Include/cmsis_gcc.h **** }
 133:Drivers/CMSIS/Include/cmsis_gcc.h **** 
 134:Drivers/CMSIS/Include/cmsis_gcc.h **** 
 135:Drivers/CMSIS/Include/cmsis_gcc.h **** /**
 136:Drivers/CMSIS/Include/cmsis_gcc.h ****   \brief   Disable IRQ Interrupts
 137:Drivers/CMSIS/Include/cmsis_gcc.h ****   \details Disables IRQ interrupts by setting the I-bit in the CPSR.
 138:Drivers/CMSIS/Include/cmsis_gcc.h ****            Can only be executed in Privileged modes.
 139:Drivers/CMSIS/Include/cmsis_gcc.h ****  */
 140:Drivers/CMSIS/Include/cmsis_gcc.h **** __STATIC_FORCEINLINE void __disable_irq(void)
  82              		.loc 2 140 27 view .LVU10
  83              	.LBB5:
 141:Drivers/CMSIS/Include/cmsis_gcc.h **** {
 142:Drivers/CMSIS/Include/cmsis_gcc.h ****   __ASM volatile ("cpsid i" : : : "memory");
  84              		.loc 2 142 3 view .LVU11
  85              		.syntax unified
  86              	@ 142 "Drivers/CMSIS/Include/cmsis_gcc.h" 1
  87 0000 72B6     		cpsid i
  88              	@ 0 "" 2
  89              		.thumb
  90              		.syntax unified
  91              	.L6:
  92              	.LBE5:
  93              	.LBE4:
 220:Core/Src/main.c ****   while (1)
  94              		.loc 1 220 3 discriminator 1 view .LVU12
 221:Core/Src/main.c ****   {
 222:Core/Src/main.c ****   }
  95              		.loc 1 222 3 discriminator 1 view .LVU13
ARM GAS  /tmp/cc7E6AkE.s 			page 9


 220:Core/Src/main.c ****   while (1)
  96              		.loc 1 220 9 discriminator 1 view .LVU14
  97 0002 FEE7     		b	.L6
  98              		.cfi_endproc
  99              	.LFE71:
 101              		.section	.text.SystemClock_Config,"ax",%progbits
 102              		.align	1
 103              		.global	SystemClock_Config
 104              		.syntax unified
 105              		.thumb
 106              		.thumb_func
 107              		.fpu softvfp
 109              	SystemClock_Config:
 110              	.LFB70:
 173:Core/Src/main.c ****   RCC_OscInitTypeDef RCC_OscInitStruct = {0};
 111              		.loc 1 173 1 view -0
 112              		.cfi_startproc
 113              		@ args = 0, pretend = 0, frame = 64
 114              		@ frame_needed = 0, uses_anonymous_args = 0
 115 0000 00B5     		push	{lr}
 116              	.LCFI1:
 117              		.cfi_def_cfa_offset 4
 118              		.cfi_offset 14, -4
 119 0002 91B0     		sub	sp, sp, #68
 120              	.LCFI2:
 121              		.cfi_def_cfa_offset 72
 174:Core/Src/main.c ****   RCC_ClkInitTypeDef RCC_ClkInitStruct = {0};
 122              		.loc 1 174 3 view .LVU16
 174:Core/Src/main.c ****   RCC_ClkInitTypeDef RCC_ClkInitStruct = {0};
 123              		.loc 1 174 22 is_stmt 0 view .LVU17
 124 0004 2822     		movs	r2, #40
 125 0006 0021     		movs	r1, #0
 126 0008 06A8     		add	r0, sp, #24
 127 000a FFF7FEFF 		bl	memset
 128              	.LVL5:
 175:Core/Src/main.c **** 
 129              		.loc 1 175 3 is_stmt 1 view .LVU18
 175:Core/Src/main.c **** 
 130              		.loc 1 175 22 is_stmt 0 view .LVU19
 131 000e 0023     		movs	r3, #0
 132 0010 0193     		str	r3, [sp, #4]
 133 0012 0293     		str	r3, [sp, #8]
 134 0014 0393     		str	r3, [sp, #12]
 135 0016 0493     		str	r3, [sp, #16]
 136 0018 0593     		str	r3, [sp, #20]
 180:Core/Src/main.c ****   RCC_OscInitStruct.HSEState = RCC_HSE_ON;
 137              		.loc 1 180 3 is_stmt 1 view .LVU20
 180:Core/Src/main.c ****   RCC_OscInitStruct.HSEState = RCC_HSE_ON;
 138              		.loc 1 180 36 is_stmt 0 view .LVU21
 139 001a 0122     		movs	r2, #1
 140 001c 0692     		str	r2, [sp, #24]
 181:Core/Src/main.c ****   RCC_OscInitStruct.HSEPredivValue = RCC_HSE_PREDIV_DIV1;
 141              		.loc 1 181 3 is_stmt 1 view .LVU22
 181:Core/Src/main.c ****   RCC_OscInitStruct.HSEPredivValue = RCC_HSE_PREDIV_DIV1;
 142              		.loc 1 181 30 is_stmt 0 view .LVU23
 143 001e 4FF48033 		mov	r3, #65536
 144 0022 0793     		str	r3, [sp, #28]
ARM GAS  /tmp/cc7E6AkE.s 			page 10


 182:Core/Src/main.c ****   RCC_OscInitStruct.HSIState = RCC_HSI_ON;
 145              		.loc 1 182 3 is_stmt 1 view .LVU24
 183:Core/Src/main.c ****   RCC_OscInitStruct.PLL.PLLState = RCC_PLL_ON;
 146              		.loc 1 183 3 view .LVU25
 183:Core/Src/main.c ****   RCC_OscInitStruct.PLL.PLLState = RCC_PLL_ON;
 147              		.loc 1 183 30 is_stmt 0 view .LVU26
 148 0024 0A92     		str	r2, [sp, #40]
 184:Core/Src/main.c ****   RCC_OscInitStruct.PLL.PLLSource = RCC_PLLSOURCE_HSE;
 149              		.loc 1 184 3 is_stmt 1 view .LVU27
 184:Core/Src/main.c ****   RCC_OscInitStruct.PLL.PLLSource = RCC_PLLSOURCE_HSE;
 150              		.loc 1 184 34 is_stmt 0 view .LVU28
 151 0026 0222     		movs	r2, #2
 152 0028 0D92     		str	r2, [sp, #52]
 185:Core/Src/main.c ****   RCC_OscInitStruct.PLL.PLLMUL = RCC_PLL_MUL2;
 153              		.loc 1 185 3 is_stmt 1 view .LVU29
 185:Core/Src/main.c ****   RCC_OscInitStruct.PLL.PLLMUL = RCC_PLL_MUL2;
 154              		.loc 1 185 35 is_stmt 0 view .LVU30
 155 002a 0E93     		str	r3, [sp, #56]
 186:Core/Src/main.c ****   if (HAL_RCC_OscConfig(&RCC_OscInitStruct) != HAL_OK)
 156              		.loc 1 186 3 is_stmt 1 view .LVU31
 187:Core/Src/main.c ****   {
 157              		.loc 1 187 3 view .LVU32
 187:Core/Src/main.c ****   {
 158              		.loc 1 187 7 is_stmt 0 view .LVU33
 159 002c 06A8     		add	r0, sp, #24
 160 002e FFF7FEFF 		bl	HAL_RCC_OscConfig
 161              	.LVL6:
 187:Core/Src/main.c ****   {
 162              		.loc 1 187 6 view .LVU34
 163 0032 80B9     		cbnz	r0, .L11
 194:Core/Src/main.c ****                               |RCC_CLOCKTYPE_PCLK1|RCC_CLOCKTYPE_PCLK2;
 164              		.loc 1 194 3 is_stmt 1 view .LVU35
 194:Core/Src/main.c ****                               |RCC_CLOCKTYPE_PCLK1|RCC_CLOCKTYPE_PCLK2;
 165              		.loc 1 194 31 is_stmt 0 view .LVU36
 166 0034 0F23     		movs	r3, #15
 167 0036 0193     		str	r3, [sp, #4]
 196:Core/Src/main.c ****   RCC_ClkInitStruct.AHBCLKDivider = RCC_SYSCLK_DIV1;
 168              		.loc 1 196 3 is_stmt 1 view .LVU37
 196:Core/Src/main.c ****   RCC_ClkInitStruct.AHBCLKDivider = RCC_SYSCLK_DIV1;
 169              		.loc 1 196 34 is_stmt 0 view .LVU38
 170 0038 0223     		movs	r3, #2
 171 003a 0293     		str	r3, [sp, #8]
 197:Core/Src/main.c ****   RCC_ClkInitStruct.APB1CLKDivider = RCC_HCLK_DIV2;
 172              		.loc 1 197 3 is_stmt 1 view .LVU39
 197:Core/Src/main.c ****   RCC_ClkInitStruct.APB1CLKDivider = RCC_HCLK_DIV2;
 173              		.loc 1 197 35 is_stmt 0 view .LVU40
 174 003c 0021     		movs	r1, #0
 175 003e 0391     		str	r1, [sp, #12]
 198:Core/Src/main.c ****   RCC_ClkInitStruct.APB2CLKDivider = RCC_HCLK_DIV1;
 176              		.loc 1 198 3 is_stmt 1 view .LVU41
 198:Core/Src/main.c ****   RCC_ClkInitStruct.APB2CLKDivider = RCC_HCLK_DIV1;
 177              		.loc 1 198 36 is_stmt 0 view .LVU42
 178 0040 4FF48063 		mov	r3, #1024
 179 0044 0493     		str	r3, [sp, #16]
 199:Core/Src/main.c **** 
 180              		.loc 1 199 3 is_stmt 1 view .LVU43
 199:Core/Src/main.c **** 
ARM GAS  /tmp/cc7E6AkE.s 			page 11


 181              		.loc 1 199 36 is_stmt 0 view .LVU44
 182 0046 0591     		str	r1, [sp, #20]
 201:Core/Src/main.c ****   {
 183              		.loc 1 201 3 is_stmt 1 view .LVU45
 201:Core/Src/main.c ****   {
 184              		.loc 1 201 7 is_stmt 0 view .LVU46
 185 0048 01A8     		add	r0, sp, #4
 186 004a FFF7FEFF 		bl	HAL_RCC_ClockConfig
 187              	.LVL7:
 201:Core/Src/main.c ****   {
 188              		.loc 1 201 6 view .LVU47
 189 004e 20B9     		cbnz	r0, .L12
 205:Core/Src/main.c **** 
 190              		.loc 1 205 1 view .LVU48
 191 0050 11B0     		add	sp, sp, #68
 192              	.LCFI3:
 193              		.cfi_remember_state
 194              		.cfi_def_cfa_offset 4
 195              		@ sp needed
 196 0052 5DF804FB 		ldr	pc, [sp], #4
 197              	.L11:
 198              	.LCFI4:
 199              		.cfi_restore_state
 189:Core/Src/main.c ****   }
 200              		.loc 1 189 5 is_stmt 1 view .LVU49
 201 0056 FFF7FEFF 		bl	Error_Handler
 202              	.LVL8:
 203              	.L12:
 203:Core/Src/main.c ****   }
 204              		.loc 1 203 5 view .LVU50
 205 005a FFF7FEFF 		bl	Error_Handler
 206              	.LVL9:
 207              		.cfi_endproc
 208              	.LFE70:
 210              		.section	.rodata.main.str1.4,"aMS",%progbits,1
 211              		.align	2
 212              	.LC0:
 213 0000 736C6176 		.ascii	"slave got started..........\015\000"
 213      6520676F 
 213      74207374 
 213      61727465 
 213      642E2E2E 
 214 001d 000000   		.align	2
 215              	.LC1:
 216 0020 49324320 		.ascii	"I2C timeout detected! Resetting I2C2...\015\000"
 216      74696D65 
 216      6F757420 
 216      64657465 
 216      63746564 
 217              		.section	.text.main,"ax",%progbits
 218              		.align	1
 219              		.global	main
 220              		.syntax unified
 221              		.thumb
 222              		.thumb_func
 223              		.fpu softvfp
 225              	main:
ARM GAS  /tmp/cc7E6AkE.s 			page 12


 226              	.LFB69:
  78:Core/Src/main.c **** 
 227              		.loc 1 78 1 view -0
 228              		.cfi_startproc
 229              		@ args = 0, pretend = 0, frame = 0
 230              		@ frame_needed = 0, uses_anonymous_args = 0
 231 0000 38B5     		push	{r3, r4, r5, lr}
 232              	.LCFI5:
 233              		.cfi_def_cfa_offset 16
 234              		.cfi_offset 3, -16
 235              		.cfi_offset 4, -12
 236              		.cfi_offset 5, -8
 237              		.cfi_offset 14, -4
  87:Core/Src/main.c **** 
 238              		.loc 1 87 3 view .LVU52
 239 0002 FFF7FEFF 		bl	HAL_Init
 240              	.LVL10:
  94:Core/Src/main.c **** 
 241              		.loc 1 94 3 view .LVU53
 242 0006 FFF7FEFF 		bl	SystemClock_Config
 243              	.LVL11:
 101:Core/Src/main.c ****   MX_I2C2_Init();
 244              		.loc 1 101 3 view .LVU54
 245 000a FFF7FEFF 		bl	MX_GPIO_Init
 246              	.LVL12:
 102:Core/Src/main.c ****   MX_USART1_UART_Init();
 247              		.loc 1 102 3 view .LVU55
 248 000e FFF7FEFF 		bl	MX_I2C2_Init
 249              	.LVL13:
 103:Core/Src/main.c ****   MX_SPI1_Init();
 250              		.loc 1 103 3 view .LVU56
 251 0012 FFF7FEFF 		bl	MX_USART1_UART_Init
 252              	.LVL14:
 104:Core/Src/main.c ****   /* USER CODE BEGIN 2 */
 253              		.loc 1 104 3 view .LVU57
 254 0016 FFF7FEFF 		bl	MX_SPI1_Init
 255              	.LVL15:
 106:Core/Src/main.c ****   extern uint32_t last_i2c_activity;  // Ensure declared in .c file
 256              		.loc 1 106 3 view .LVU58
 107:Core/Src/main.c **** 
 257              		.loc 1 107 3 view .LVU59
 109:Core/Src/main.c ****   if(HAL_I2C_EnableListen_IT(&hi2c2)!=HAL_OK)
 258              		.loc 1 109 3 view .LVU60
 259 001a 2B48     		ldr	r0, .L21
 260 001c FFF7FEFF 		bl	puts
 261              	.LVL16:
 110:Core/Src/main.c ****   {
 262              		.loc 1 110 3 view .LVU61
 110:Core/Src/main.c ****   {
 263              		.loc 1 110 6 is_stmt 0 view .LVU62
 264 0020 2A48     		ldr	r0, .L21+4
 265 0022 FFF7FEFF 		bl	HAL_I2C_EnableListen_IT
 266              	.LVL17:
 110:Core/Src/main.c ****   {
 267              		.loc 1 110 5 view .LVU63
 268 0026 08B1     		cbz	r0, .L14
 112:Core/Src/main.c ****   }
ARM GAS  /tmp/cc7E6AkE.s 			page 13


 269              		.loc 1 112 5 is_stmt 1 view .LVU64
 270 0028 FFF7FEFF 		bl	Error_Handler
 271              	.LVL18:
 272              	.L14:
 114:Core/Src/main.c **** 
 273              		.loc 1 114 3 view .LVU65
 274 002c FFF7FEFF 		bl	watchdog_init
 275              	.LVL19:
 106:Core/Src/main.c ****   extern uint32_t last_i2c_activity;  // Ensure declared in .c file
 276              		.loc 1 106 12 is_stmt 0 view .LVU66
 277 0030 0024     		movs	r4, #0
 278 0032 05E0     		b	.L17
 279              	.LVL20:
 280              	.L16:
 131:Core/Src/main.c ****     {
 281              		.loc 1 131 5 is_stmt 1 view .LVU67
 131:Core/Src/main.c ****     {
 282              		.loc 1 131 9 is_stmt 0 view .LVU68
 283 0034 FFF7FEFF 		bl	HAL_GetTick
 284              	.LVL21:
 131:Core/Src/main.c ****     {
 285              		.loc 1 131 23 view .LVU69
 286 0038 001B     		subs	r0, r0, r4
 131:Core/Src/main.c ****     {
 287              		.loc 1 131 8 view .LVU70
 288 003a B0F57A7F 		cmp	r0, #1000
 289 003e 0FD8     		bhi	.L20
 290              	.LVL22:
 291              	.L17:
 120:Core/Src/main.c ****   {
 292              		.loc 1 120 4 is_stmt 1 view .LVU71
 123:Core/Src/main.c ****     {
 293              		.loc 1 123 5 view .LVU72
 123:Core/Src/main.c ****     {
 294              		.loc 1 123 9 is_stmt 0 view .LVU73
 295 0040 234B     		ldr	r3, .L21+8
 296 0042 1B78     		ldrb	r3, [r3]	@ zero_extendqisi2
 123:Core/Src/main.c ****     {
 297              		.loc 1 123 8 view .LVU74
 298 0044 002B     		cmp	r3, #0
 299 0046 F5D0     		beq	.L16
 125:Core/Src/main.c ****       HAL_Delay(2000);
 300              		.loc 1 125 7 is_stmt 1 view .LVU75
 301 0048 FFF7FEFF 		bl	arducam_set_jpeg_mode
 302              	.LVL23:
 126:Core/Src/main.c ****       process_image_capture();
 303              		.loc 1 126 7 view .LVU76
 304 004c 4FF4FA60 		mov	r0, #2000
 305 0050 FFF7FEFF 		bl	HAL_Delay
 306              	.LVL24:
 127:Core/Src/main.c ****       capture_requested = 0;
 307              		.loc 1 127 7 view .LVU77
 308 0054 FFF7FEFF 		bl	process_image_capture
 309              	.LVL25:
 128:Core/Src/main.c ****     }
 310              		.loc 1 128 7 view .LVU78
 128:Core/Src/main.c ****     }
ARM GAS  /tmp/cc7E6AkE.s 			page 14


 311              		.loc 1 128 25 is_stmt 0 view .LVU79
 312 0058 1D4B     		ldr	r3, .L21+8
 313 005a 0022     		movs	r2, #0
 314 005c 1A70     		strb	r2, [r3]
 315 005e E9E7     		b	.L16
 316              	.L20:
 133:Core/Src/main.c **** 
 317              		.loc 1 133 7 is_stmt 1 view .LVU80
 133:Core/Src/main.c **** 
 318              		.loc 1 133 29 is_stmt 0 view .LVU81
 319 0060 FFF7FEFF 		bl	HAL_GetTick
 320              	.LVL26:
 321 0064 0446     		mov	r4, r0
 322              	.LVL27:
 135:Core/Src/main.c ****           (__HAL_I2C_GET_FLAG(&hi2c2, I2C_FLAG_BUSY)))
 323              		.loc 1 135 7 is_stmt 1 view .LVU82
 135:Core/Src/main.c ****           (__HAL_I2C_GET_FLAG(&hi2c2, I2C_FLAG_BUSY)))
 324              		.loc 1 135 12 is_stmt 0 view .LVU83
 325 0066 FFF7FEFF 		bl	HAL_GetTick
 326              	.LVL28:
 135:Core/Src/main.c ****           (__HAL_I2C_GET_FLAG(&hi2c2, I2C_FLAG_BUSY)))
 327              		.loc 1 135 26 view .LVU84
 328 006a 1A4B     		ldr	r3, .L21+12
 329 006c 1B68     		ldr	r3, [r3]
 330 006e C01A     		subs	r0, r0, r3
 135:Core/Src/main.c ****           (__HAL_I2C_GET_FLAG(&hi2c2, I2C_FLAG_BUSY)))
 331              		.loc 1 135 10 view .LVU85
 332 0070 40F6B833 		movw	r3, #3000
 333 0074 9842     		cmp	r0, r3
 334 0076 E3D9     		bls	.L17
 136:Core/Src/main.c ****       {
 335              		.loc 1 136 12 discriminator 1 view .LVU86
 336 0078 144B     		ldr	r3, .L21+4
 337 007a 1B68     		ldr	r3, [r3]
 338 007c 9B69     		ldr	r3, [r3, #24]
 135:Core/Src/main.c ****           (__HAL_I2C_GET_FLAG(&hi2c2, I2C_FLAG_BUSY)))
 339              		.loc 1 135 54 discriminator 1 view .LVU87
 340 007e 13F0020F 		tst	r3, #2
 341 0082 DDD0     		beq	.L17
 138:Core/Src/main.c **** 
 342              		.loc 1 138 9 is_stmt 1 view .LVU88
 343 0084 1448     		ldr	r0, .L21+16
 344 0086 FFF7FEFF 		bl	puts
 345              	.LVL29:
 140:Core/Src/main.c ****         HAL_Delay(2);
 346              		.loc 1 140 9 view .LVU89
 347 008a 144D     		ldr	r5, .L21+20
 348 008c 2B69     		ldr	r3, [r5, #16]
 349 008e 43F48003 		orr	r3, r3, #4194304
 350 0092 2B61     		str	r3, [r5, #16]
 141:Core/Src/main.c ****         __HAL_RCC_I2C2_RELEASE_RESET();
 351              		.loc 1 141 9 view .LVU90
 352 0094 0220     		movs	r0, #2
 353 0096 FFF7FEFF 		bl	HAL_Delay
 354              	.LVL30:
 142:Core/Src/main.c ****         MX_I2C2_Init();  
 355              		.loc 1 142 9 view .LVU91
ARM GAS  /tmp/cc7E6AkE.s 			page 15


 356 009a 2B69     		ldr	r3, [r5, #16]
 357 009c 23F48003 		bic	r3, r3, #4194304
 358 00a0 2B61     		str	r3, [r5, #16]
 143:Core/Src/main.c ****         HAL_I2C_EnableListen_IT(&hi2c2);
 359              		.loc 1 143 9 view .LVU92
 360 00a2 FFF7FEFF 		bl	MX_I2C2_Init
 361              	.LVL31:
 144:Core/Src/main.c **** 
 362              		.loc 1 144 9 view .LVU93
 363 00a6 0948     		ldr	r0, .L21+4
 364 00a8 FFF7FEFF 		bl	HAL_I2C_EnableListen_IT
 365              	.LVL32:
 146:Core/Src/main.c ****         prestore_image_requested = 0;
 366              		.loc 1 146 9 view .LVU94
 146:Core/Src/main.c ****         prestore_image_requested = 0;
 367              		.loc 1 146 27 is_stmt 0 view .LVU95
 368 00ac 0023     		movs	r3, #0
 369 00ae 084A     		ldr	r2, .L21+8
 370 00b0 1370     		strb	r3, [r2]
 147:Core/Src/main.c ****         send_all_packets = 0;
 371              		.loc 1 147 9 is_stmt 1 view .LVU96
 147:Core/Src/main.c ****         send_all_packets = 0;
 372              		.loc 1 147 34 is_stmt 0 view .LVU97
 373 00b2 0B4A     		ldr	r2, .L21+24
 374 00b4 1370     		strb	r3, [r2]
 148:Core/Src/main.c ****         current_packet_index = 0;
 375              		.loc 1 148 9 is_stmt 1 view .LVU98
 148:Core/Src/main.c ****         current_packet_index = 0;
 376              		.loc 1 148 26 is_stmt 0 view .LVU99
 377 00b6 0B4A     		ldr	r2, .L21+28
 378 00b8 1370     		strb	r3, [r2]
 149:Core/Src/main.c **** 
 379              		.loc 1 149 9 is_stmt 1 view .LVU100
 149:Core/Src/main.c **** 
 380              		.loc 1 149 30 is_stmt 0 view .LVU101
 381 00ba 0B4A     		ldr	r2, .L21+32
 382 00bc 1380     		strh	r3, [r2]	@ movhi
 152:Core/Src/main.c ****       }
 383              		.loc 1 152 9 is_stmt 1 view .LVU102
 384 00be 0420     		movs	r0, #4
 385 00c0 FFF7FEFF 		bl	watchdog_set_time_period
 386              	.LVL33:
 387 00c4 BCE7     		b	.L17
 388              	.L22:
 389 00c6 00BF     		.align	2
 390              	.L21:
 391 00c8 00000000 		.word	.LC0
 392 00cc 00000000 		.word	hi2c2
 393 00d0 00000000 		.word	capture_requested
 394 00d4 00000000 		.word	last_i2c_activity
 395 00d8 20000000 		.word	.LC1
 396 00dc 00100240 		.word	1073876992
 397 00e0 00000000 		.word	prestore_image_requested
 398 00e4 00000000 		.word	send_all_packets
 399 00e8 00000000 		.word	current_packet_index
 400              		.cfi_endproc
 401              	.LFE69:
ARM GAS  /tmp/cc7E6AkE.s 			page 16


 403              		.text
 404              	.Letext0:
 405              		.file 3 "/usr/lib/gcc/arm-none-eabi/10.3.1/include/stdint.h"
 406              		.file 4 "Drivers/CMSIS/Device/ST/STM32F1xx/Include/stm32f103xb.h"
 407              		.file 5 "Drivers/CMSIS/Device/ST/STM32F1xx/Include/stm32f1xx.h"
 408              		.file 6 "Drivers/STM32F1xx_HAL_Driver/Inc/stm32f1xx_hal_def.h"
 409              		.file 7 "Drivers/STM32F1xx_HAL_Driver/Inc/stm32f1xx_hal_rcc.h"
 410              		.file 8 "Drivers/STM32F1xx_HAL_Driver/Inc/stm32f1xx_hal_rcc_ex.h"
 411              		.file 9 "Drivers/STM32F1xx_HAL_Driver/Inc/stm32f1xx_hal_dma.h"
 412              		.file 10 "Drivers/STM32F1xx_HAL_Driver/Inc/stm32f1xx_hal_i2c.h"
 413              		.file 11 "Drivers/STM32F1xx_HAL_Driver/Inc/stm32f1xx_hal_uart.h"
 414              		.file 12 "Core/Inc/i2c.h"
 415              		.file 13 "Core/Inc/usart.h"
 416              		.file 14 "Core/Inc/i2c_slave.h"
 417              		.file 15 "libs/watchdog/watchdog.h"
 418              		.file 16 "Drivers/STM32F1xx_HAL_Driver/Inc/stm32f1xx_hal.h"
 419              		.file 17 "Core/Inc/gpio.h"
 420              		.file 18 "Core/Inc/spi.h"
 421              		.file 19 "<built-in>"
 422              		.file 20 "libs/camera/camera.h"
ARM GAS  /tmp/cc7E6AkE.s 			page 17

