ARM GAS  /tmp/ccKzwklo.s 			page 1


   1              		.cpu cortex-m3
   2              		.eabi_attribute 20, 1
   3              		.eabi_attribute 21, 1
   4              		.eabi_attribute 23, 3
   5              		.eabi_attribute 24, 1
   6              		.eabi_attribute 25, 1
   7              		.eabi_attribute 26, 1
   8              		.eabi_attribute 30, 1
   9              		.eabi_attribute 34, 1
  10              		.eabi_attribute 18, 4
  11              		.file	"ssdv.c"
  12              		.text
  13              	.Ltext0:
  14              		.cfi_sections	.debug_frame
  15              		.section	.text.irdiv,"ax",%progbits
  16              		.align	1
  17              		.arch armv7-m
  18              		.syntax unified
  19              		.thumb
  20              		.thumb_func
  21              		.fpu softvfp
  23              	irdiv:
  24              	.LVL0:
  25              	.LFB0:
  26              		.file 1 "libs/ssdv/ssdv.c"
   1:libs/ssdv/ssdv.c **** 
   2:libs/ssdv/ssdv.c **** /* SSDV - Slow Scan Digital Video                                        */
   3:libs/ssdv/ssdv.c **** /*=======================================================================*/
   4:libs/ssdv/ssdv.c **** /* Copyright 2011-2016 Philip Heron <phil@sanslogic.co.uk>               */
   5:libs/ssdv/ssdv.c **** /*                                                                       */
   6:libs/ssdv/ssdv.c **** /* This program is free software: you can redistribute it and/or modify  */
   7:libs/ssdv/ssdv.c **** /* it under the terms of the GNU General Public License as published by  */
   8:libs/ssdv/ssdv.c **** /* the Free Software Foundation, either version 3 of the License, or     */
   9:libs/ssdv/ssdv.c **** /* (at your option) any later version.                                   */
  10:libs/ssdv/ssdv.c **** /*                                                                       */
  11:libs/ssdv/ssdv.c **** /* This program is distributed in the hope that it will be useful,       */
  12:libs/ssdv/ssdv.c **** /* but WITHOUT ANY WARRANTY; without even the implied warranty of        */
  13:libs/ssdv/ssdv.c **** /* MERCHANTABILITY or FITNESS FOR A PARTICULAR PURPOSE.  See the         */
  14:libs/ssdv/ssdv.c **** /* GNU General Public License for more details.                          */
  15:libs/ssdv/ssdv.c **** /*                                                                       */
  16:libs/ssdv/ssdv.c **** /* You should have received a copy of the GNU General Public License     */
  17:libs/ssdv/ssdv.c **** /* along with this program.  If not, see <http://www.gnu.org/licenses/>. */
  18:libs/ssdv/ssdv.c **** 
  19:libs/ssdv/ssdv.c **** // #include <stdio.h>
  20:libs/ssdv/ssdv.c **** #include <stdint.h>
  21:libs/ssdv/ssdv.c **** #include <string.h>
  22:libs/ssdv/ssdv.c **** #include "ssdv.h"
  23:libs/ssdv/ssdv.c **** #include "rs8.h"
  24:libs/ssdv/ssdv.c **** 
  25:libs/ssdv/ssdv.c **** /* Recognised JPEG markers */
  26:libs/ssdv/ssdv.c **** enum {
  27:libs/ssdv/ssdv.c **** 	J_TEM = 0xFF01,
  28:libs/ssdv/ssdv.c **** 	J_SOF0 = 0xFFC0, J_SOF1,  J_SOF2,  J_SOF3,  J_DHT,   J_SOF5,  J_SOF6, J_SOF7,
  29:libs/ssdv/ssdv.c **** 	J_JPG,  J_SOF9,  J_SOF10, J_SOF11, J_DAC,   J_SOF13, J_SOF14, J_SOF15,
  30:libs/ssdv/ssdv.c **** 	J_RST0, J_RST1,  J_RST2,  J_RST3,  J_RST4,  J_RST5,  J_RST6,  J_RST7,
  31:libs/ssdv/ssdv.c **** 	J_SOI,  J_EOI,   J_SOS,   J_DQT,   J_DNL,   J_DRI,   J_DHP,   J_EXP,
  32:libs/ssdv/ssdv.c **** 	J_APP0, J_APP1,  J_APP2,  J_APP3,  J_APP4,  J_APP5,  J_APP6,  J_APP7,
ARM GAS  /tmp/ccKzwklo.s 			page 2


  33:libs/ssdv/ssdv.c **** 	J_APP8, J_APP9,  J_APP10, J_APP11, J_APP12, J_APP13, J_APP14, J_APP15,
  34:libs/ssdv/ssdv.c **** 	J_JPG0, J_JPG1,  J_JPG2,  J_JPG3,  J_JPG4,  J_JPG5,  J_JPG6,  J_SOF48,
  35:libs/ssdv/ssdv.c **** 	J_LSE,  J_JPG9,  J_JPG10, J_JPG11, J_JPG12, J_JPG13, J_COM,
  36:libs/ssdv/ssdv.c **** } jpeg_marker_t;
  37:libs/ssdv/ssdv.c **** 
  38:libs/ssdv/ssdv.c **** /* APP0 header data */
  39:libs/ssdv/ssdv.c **** static uint8_t const app0[14] = {
  40:libs/ssdv/ssdv.c **** 0x4A,0x46,0x49,0x46,0x00,0x01,0x01,0x01,0x00,0x48,0x00,0x48,0x00,0x00,
  41:libs/ssdv/ssdv.c **** };
  42:libs/ssdv/ssdv.c **** 
  43:libs/ssdv/ssdv.c **** /* SOS header data */
  44:libs/ssdv/ssdv.c **** static uint8_t const sos[10] = {
  45:libs/ssdv/ssdv.c **** 0x03,0x01,0x00,0x02,0x11,0x03,0x11,0x00,0x3F,0x00,
  46:libs/ssdv/ssdv.c **** };
  47:libs/ssdv/ssdv.c **** 
  48:libs/ssdv/ssdv.c **** /* Quantisation table scaling factors for each quality level 0-7 */
  49:libs/ssdv/ssdv.c **** static uint16_t const dqt_scales[8] = {
  50:libs/ssdv/ssdv.c **** 5000, 357, 172, 116, 100, 58, 28, 0
  51:libs/ssdv/ssdv.c **** };
  52:libs/ssdv/ssdv.c **** 
  53:libs/ssdv/ssdv.c **** /* Quantisation tables */
  54:libs/ssdv/ssdv.c **** static uint8_t const std_dqt0[65] = {
  55:libs/ssdv/ssdv.c **** 0x00,0x10,0x0C,0x0C,0x0E,0x0C,0x0A,0x10,0x0E,0x0E,0x0E,0x12,0x12,0x10,0x14,0x18,
  56:libs/ssdv/ssdv.c **** 0x28,0x1A,0x18,0x16,0x16,0x18,0x32,0x24,0x26,0x1E,0x28,0x3A,0x34,0x3E,0x3C,0x3A,
  57:libs/ssdv/ssdv.c **** 0x34,0x38,0x38,0x40,0x48,0x5C,0x4E,0x40,0x44,0x58,0x46,0x38,0x38,0x50,0x6E,0x52,
  58:libs/ssdv/ssdv.c **** 0x58,0x60,0x62,0x68,0x68,0x68,0x3E,0x4E,0x72,0x7A,0x70,0x64,0x78,0x5C,0x66,0x68,
  59:libs/ssdv/ssdv.c **** 0x64,
  60:libs/ssdv/ssdv.c **** };
  61:libs/ssdv/ssdv.c **** 
  62:libs/ssdv/ssdv.c **** static uint8_t const std_dqt1[65] = {
  63:libs/ssdv/ssdv.c **** 0x01,0x12,0x12,0x12,0x16,0x16,0x16,0x30,0x1A,0x1A,0x30,0x64,0x42,0x38,0x42,0x64,
  64:libs/ssdv/ssdv.c **** 0x64,0x64,0x64,0x64,0x64,0x64,0x64,0x64,0x64,0x64,0x64,0x64,0x64,0x64,0x64,0x64,
  65:libs/ssdv/ssdv.c **** 0x64,0x64,0x64,0x64,0x64,0x64,0x64,0x64,0x64,0x64,0x64,0x64,0x64,0x64,0x64,0x64,
  66:libs/ssdv/ssdv.c **** 0x64,0x64,0x64,0x64,0x64,0x64,0x64,0x64,0x64,0x64,0x64,0x64,0x64,0x64,0x64,0x64,
  67:libs/ssdv/ssdv.c **** 0x64,
  68:libs/ssdv/ssdv.c **** };
  69:libs/ssdv/ssdv.c **** 
  70:libs/ssdv/ssdv.c **** /* Standard Huffman tables */
  71:libs/ssdv/ssdv.c **** static uint8_t const std_dht00[29] = {
  72:libs/ssdv/ssdv.c **** 0x00,0x00,0x01,0x05,0x01,0x01,0x01,0x01,0x01,0x01,0x00,0x00,0x00,0x00,0x00,0x00,
  73:libs/ssdv/ssdv.c **** 0x00,0x00,0x01,0x02,0x03,0x04,0x05,0x06,0x07,0x08,0x09,0x0A,0x0B,
  74:libs/ssdv/ssdv.c **** };
  75:libs/ssdv/ssdv.c **** 
  76:libs/ssdv/ssdv.c **** static uint8_t const std_dht01[29] = {
  77:libs/ssdv/ssdv.c **** 0x01,0x00,0x03,0x01,0x01,0x01,0x01,0x01,0x01,0x01,0x01,0x01,0x00,0x00,0x00,0x00,
  78:libs/ssdv/ssdv.c **** 0x00,0x00,0x01,0x02,0x03,0x04,0x05,0x06,0x07,0x08,0x09,0x0A,0x0B,
  79:libs/ssdv/ssdv.c **** };
  80:libs/ssdv/ssdv.c **** 
  81:libs/ssdv/ssdv.c **** static uint8_t const std_dht10[179] = {
  82:libs/ssdv/ssdv.c **** 0x10,0x00,0x02,0x01,0x03,0x03,0x02,0x04,0x03,0x05,0x05,0x04,0x04,0x00,0x00,0x01,
  83:libs/ssdv/ssdv.c **** 0x7D,0x01,0x02,0x03,0x00,0x04,0x11,0x05,0x12,0x21,0x31,0x41,0x06,0x13,0x51,0x61,
  84:libs/ssdv/ssdv.c **** 0x07,0x22,0x71,0x14,0x32,0x81,0x91,0xA1,0x08,0x23,0x42,0xB1,0xC1,0x15,0x52,0xD1,
  85:libs/ssdv/ssdv.c **** 0xF0,0x24,0x33,0x62,0x72,0x82,0x09,0x0A,0x16,0x17,0x18,0x19,0x1A,0x25,0x26,0x27,
  86:libs/ssdv/ssdv.c **** 0x28,0x29,0x2A,0x34,0x35,0x36,0x37,0x38,0x39,0x3A,0x43,0x44,0x45,0x46,0x47,0x48,
  87:libs/ssdv/ssdv.c **** 0x49,0x4A,0x53,0x54,0x55,0x56,0x57,0x58,0x59,0x5A,0x63,0x64,0x65,0x66,0x67,0x68,
  88:libs/ssdv/ssdv.c **** 0x69,0x6A,0x73,0x74,0x75,0x76,0x77,0x78,0x79,0x7A,0x83,0x84,0x85,0x86,0x87,0x88,
  89:libs/ssdv/ssdv.c **** 0x89,0x8A,0x92,0x93,0x94,0x95,0x96,0x97,0x98,0x99,0x9A,0xA2,0xA3,0xA4,0xA5,0xA6,
ARM GAS  /tmp/ccKzwklo.s 			page 3


  90:libs/ssdv/ssdv.c **** 0xA7,0xA8,0xA9,0xAA,0xB2,0xB3,0xB4,0xB5,0xB6,0xB7,0xB8,0xB9,0xBA,0xC2,0xC3,0xC4,
  91:libs/ssdv/ssdv.c **** 0xC5,0xC6,0xC7,0xC8,0xC9,0xCA,0xD2,0xD3,0xD4,0xD5,0xD6,0xD7,0xD8,0xD9,0xDA,0xE1,
  92:libs/ssdv/ssdv.c **** 0xE2,0xE3,0xE4,0xE5,0xE6,0xE7,0xE8,0xE9,0xEA,0xF1,0xF2,0xF3,0xF4,0xF5,0xF6,0xF7,
  93:libs/ssdv/ssdv.c **** 0xF8,0xF9,0xFA,
  94:libs/ssdv/ssdv.c **** };
  95:libs/ssdv/ssdv.c **** 
  96:libs/ssdv/ssdv.c **** static uint8_t const std_dht11[179] = {
  97:libs/ssdv/ssdv.c **** 0x11,0x00,0x02,0x01,0x02,0x04,0x04,0x03,0x04,0x07,0x05,0x04,0x04,0x00,0x01,0x02,
  98:libs/ssdv/ssdv.c **** 0x77,0x00,0x01,0x02,0x03,0x11,0x04,0x05,0x21,0x31,0x06,0x12,0x41,0x51,0x07,0x61,
  99:libs/ssdv/ssdv.c **** 0x71,0x13,0x22,0x32,0x81,0x08,0x14,0x42,0x91,0xA1,0xB1,0xC1,0x09,0x23,0x33,0x52,
 100:libs/ssdv/ssdv.c **** 0xF0,0x15,0x62,0x72,0xD1,0x0A,0x16,0x24,0x34,0xE1,0x25,0xF1,0x17,0x18,0x19,0x1A,
 101:libs/ssdv/ssdv.c **** 0x26,0x27,0x28,0x29,0x2A,0x35,0x36,0x37,0x38,0x39,0x3A,0x43,0x44,0x45,0x46,0x47,
 102:libs/ssdv/ssdv.c **** 0x48,0x49,0x4A,0x53,0x54,0x55,0x56,0x57,0x58,0x59,0x5A,0x63,0x64,0x65,0x66,0x67,
 103:libs/ssdv/ssdv.c **** 0x68,0x69,0x6A,0x73,0x74,0x75,0x76,0x77,0x78,0x79,0x7A,0x82,0x83,0x84,0x85,0x86,
 104:libs/ssdv/ssdv.c **** 0x87,0x88,0x89,0x8A,0x92,0x93,0x94,0x95,0x96,0x97,0x98,0x99,0x9A,0xA2,0xA3,0xA4,
 105:libs/ssdv/ssdv.c **** 0xA5,0xA6,0xA7,0xA8,0xA9,0xAA,0xB2,0xB3,0xB4,0xB5,0xB6,0xB7,0xB8,0xB9,0xBA,0xC2,
 106:libs/ssdv/ssdv.c **** 0xC3,0xC4,0xC5,0xC6,0xC7,0xC8,0xC9,0xCA,0xD2,0xD3,0xD4,0xD5,0xD6,0xD7,0xD8,0xD9,
 107:libs/ssdv/ssdv.c **** 0xDA,0xE2,0xE3,0xE4,0xE5,0xE6,0xE7,0xE8,0xE9,0xEA,0xF2,0xF3,0xF4,0xF5,0xF6,0xF7,
 108:libs/ssdv/ssdv.c **** 0xF8,0xF9,0xFA,
 109:libs/ssdv/ssdv.c **** };
 110:libs/ssdv/ssdv.c **** 
 111:libs/ssdv/ssdv.c **** /* Helper for returning the current DHT table */
 112:libs/ssdv/ssdv.c **** #define SDHT (s->sdht[s->acpart ? 1 : 0][s->component ? 1 : 0])
 113:libs/ssdv/ssdv.c **** #define DDHT (s->ddht[s->acpart ? 1 : 0][s->component ? 1 : 0])
 114:libs/ssdv/ssdv.c **** 
 115:libs/ssdv/ssdv.c **** /* Helpers for looking up the current DQT value */
 116:libs/ssdv/ssdv.c **** #define SDQT (s->sdqt[s->component ? 1 : 0][1 + s->acpart])
 117:libs/ssdv/ssdv.c **** #define DDQT (s->ddqt[s->component ? 1 : 0][1 + s->acpart])
 118:libs/ssdv/ssdv.c **** 
 119:libs/ssdv/ssdv.c **** /* Helpers for converting between DQT tables */
 120:libs/ssdv/ssdv.c **** #define AADJ(i) (SDQT == DDQT ? (i) : irdiv(i, DDQT))
 121:libs/ssdv/ssdv.c **** #define UADJ(i) (SDQT == DDQT ? (i) : (i * SDQT))
 122:libs/ssdv/ssdv.c **** #define BADJ(i) (SDQT == DDQT ? (i) : irdiv(i * SDQT, DDQT))
 123:libs/ssdv/ssdv.c **** 
 124:libs/ssdv/ssdv.c **** /* Integer-only division with rounding */
 125:libs/ssdv/ssdv.c **** static int irdiv(int i, int div)
 126:libs/ssdv/ssdv.c **** {
  27              		.loc 1 126 1 view -0
  28              		.cfi_startproc
  29              		@ args = 0, pretend = 0, frame = 0
  30              		@ frame_needed = 0, uses_anonymous_args = 0
  31              		@ link register save eliminated.
 127:libs/ssdv/ssdv.c **** 	i = i * 2 / div;
  32              		.loc 1 127 2 view .LVU1
  33              		.loc 1 127 8 is_stmt 0 view .LVU2
  34 0000 4000     		lsls	r0, r0, #1
  35              	.LVL1:
  36              		.loc 1 127 4 view .LVU3
  37 0002 90FBF1F0 		sdiv	r0, r0, r1
  38              	.LVL2:
 128:libs/ssdv/ssdv.c **** 	if(i & 1) i += (i > 0 ? 1 : -1);
  39              		.loc 1 128 2 is_stmt 1 view .LVU4
  40              		.loc 1 128 4 is_stmt 0 view .LVU5
  41 0006 10F0010F 		tst	r0, #1
  42 000a 03D0     		beq	.L2
  43              		.loc 1 128 12 is_stmt 1 discriminator 1 view .LVU6
  44              		.loc 1 128 28 is_stmt 0 discriminator 1 view .LVU7
ARM GAS  /tmp/ccKzwklo.s 			page 4


  45 000c 0028     		cmp	r0, #0
  46 000e 05DD     		ble	.L4
  47              		.loc 1 128 28 view .LVU8
  48 0010 0123     		movs	r3, #1
  49              	.L3:
  50              		.loc 1 128 14 discriminator 5 view .LVU9
  51 0012 1844     		add	r0, r0, r3
  52              	.LVL3:
  53              	.L2:
 129:libs/ssdv/ssdv.c **** 	return(i / 2);
  54              		.loc 1 129 2 is_stmt 1 view .LVU10
  55              		.loc 1 129 11 is_stmt 0 view .LVU11
  56 0014 00EBD070 		add	r0, r0, r0, lsr #31
  57              	.LVL4:
 130:libs/ssdv/ssdv.c **** }
  58              		.loc 1 130 1 view .LVU12
  59 0018 4010     		asrs	r0, r0, #1
  60 001a 7047     		bx	lr
  61              	.LVL5:
  62              	.L4:
 128:libs/ssdv/ssdv.c **** 	if(i & 1) i += (i > 0 ? 1 : -1);
  63              		.loc 1 128 28 view .LVU13
  64 001c 4FF0FF33 		mov	r3, #-1
  65 0020 F7E7     		b	.L3
  66              		.cfi_endproc
  67              	.LFE0:
  69              		.section	.text.load_standard_dqt,"ax",%progbits
  70              		.align	1
  71              		.syntax unified
  72              		.thumb
  73              		.thumb_func
  74              		.fpu softvfp
  76              	load_standard_dqt:
  77              	.LVL6:
  78              	.LFB1:
 131:libs/ssdv/ssdv.c **** 
 132:libs/ssdv/ssdv.c **** /*
 133:libs/ssdv/ssdv.c **** static char *strbits(uint32_t value, uint8_t bits)
 134:libs/ssdv/ssdv.c **** {
 135:libs/ssdv/ssdv.c **** 	static char s[33];
 136:libs/ssdv/ssdv.c **** 	char *ss = s;
 137:libs/ssdv/ssdv.c **** 	while(bits--) *(ss++) = value & 1 << bits ? '1' : '0';
 138:libs/ssdv/ssdv.c **** 	*ss = '\0';
 139:libs/ssdv/ssdv.c **** 	return(s);
 140:libs/ssdv/ssdv.c **** }
 141:libs/ssdv/ssdv.c **** */
 142:libs/ssdv/ssdv.c **** 
 143:libs/ssdv/ssdv.c **** static void load_standard_dqt(uint8_t *dst, const uint8_t *table, uint8_t quality)
 144:libs/ssdv/ssdv.c **** {
  79              		.loc 1 144 1 is_stmt 1 view -0
  80              		.cfi_startproc
  81              		@ args = 0, pretend = 0, frame = 0
  82              		@ frame_needed = 0, uses_anonymous_args = 0
  83              		.loc 1 144 1 is_stmt 0 view .LVU15
  84 0000 10B5     		push	{r4, lr}
  85              	.LCFI0:
  86              		.cfi_def_cfa_offset 8
ARM GAS  /tmp/ccKzwklo.s 			page 5


  87              		.cfi_offset 4, -8
  88              		.cfi_offset 14, -4
 145:libs/ssdv/ssdv.c **** 	int i;
  89              		.loc 1 145 2 is_stmt 1 view .LVU16
 146:libs/ssdv/ssdv.c **** 	uint16_t scale_factor;
  90              		.loc 1 146 2 view .LVU17
 147:libs/ssdv/ssdv.c **** 	uint32_t temp;
  91              		.loc 1 147 2 view .LVU18
 148:libs/ssdv/ssdv.c **** 	
 149:libs/ssdv/ssdv.c **** 	/* Copy the table ID */
 150:libs/ssdv/ssdv.c **** 	*dst++ = *table++;
  92              		.loc 1 150 2 view .LVU19
  93              	.LVL7:
  94              		.loc 1 150 11 is_stmt 0 view .LVU20
  95 0002 11F8013B 		ldrb	r3, [r1], #1	@ zero_extendqisi2
  96              	.LVL8:
  97              		.loc 1 150 9 view .LVU21
  98 0006 00F8013B 		strb	r3, [r0], #1
  99              	.LVL9:
 151:libs/ssdv/ssdv.c **** 	
 152:libs/ssdv/ssdv.c **** 	/* Load the scaling factor */
 153:libs/ssdv/ssdv.c **** 	if(quality > 7) quality = 7;
 100              		.loc 1 153 2 is_stmt 1 view .LVU22
 101              		.loc 1 153 4 is_stmt 0 view .LVU23
 102 000a 072A     		cmp	r2, #7
 103 000c 00D9     		bls	.L6
 104              		.loc 1 153 26 view .LVU24
 105 000e 0722     		movs	r2, #7
 106              	.LVL10:
 107              	.L6:
 154:libs/ssdv/ssdv.c **** 	scale_factor = dqt_scales[quality];
 108              		.loc 1 154 2 is_stmt 1 view .LVU25
 109              		.loc 1 154 15 is_stmt 0 view .LVU26
 110 0010 0E4B     		ldr	r3, .L15
 111 0012 33F812E0 		ldrh	lr, [r3, r2, lsl #1]
 112              	.LVL11:
 155:libs/ssdv/ssdv.c **** 	
 156:libs/ssdv/ssdv.c **** 	/* Copy the remaining 64 coefficients, while applying the scaling factor */
 157:libs/ssdv/ssdv.c **** 	for(i = 0; i < 64; i++)
 113              		.loc 1 157 2 is_stmt 1 view .LVU27
 114              		.loc 1 157 8 is_stmt 0 view .LVU28
 115 0016 4FF0000C 		mov	ip, #0
 116              		.loc 1 157 2 view .LVU29
 117 001a 04E0     		b	.L7
 118              	.LVL12:
 119              	.L11:
 158:libs/ssdv/ssdv.c **** 	{
 159:libs/ssdv/ssdv.c **** 		temp = *table++;
 160:libs/ssdv/ssdv.c **** 		temp = (temp * scale_factor + 50) / 100;
 161:libs/ssdv/ssdv.c **** 		
 162:libs/ssdv/ssdv.c **** 		/* limit the values to the valid range */
 163:libs/ssdv/ssdv.c **** 		if(temp == 0) temp = 1;
 120              		.loc 1 163 22 view .LVU30
 121 001c 0123     		movs	r3, #1
 122              	.LVL13:
 123              	.L8:
 164:libs/ssdv/ssdv.c **** 		if(temp > 255) temp = 255;
ARM GAS  /tmp/ccKzwklo.s 			page 6


 165:libs/ssdv/ssdv.c **** 		
 166:libs/ssdv/ssdv.c **** 		*dst++ = temp;
 124              		.loc 1 166 3 is_stmt 1 discriminator 2 view .LVU31
 125              		.loc 1 166 10 is_stmt 0 discriminator 2 view .LVU32
 126 001e 00F8013B 		strb	r3, [r0], #1
 127              	.LVL14:
 157:libs/ssdv/ssdv.c **** 	{
 128              		.loc 1 157 21 is_stmt 1 discriminator 2 view .LVU33
 157:libs/ssdv/ssdv.c **** 	{
 129              		.loc 1 157 22 is_stmt 0 discriminator 2 view .LVU34
 130 0022 0CF1010C 		add	ip, ip, #1
 131              	.LVL15:
 132              	.L7:
 157:libs/ssdv/ssdv.c **** 	{
 133              		.loc 1 157 13 is_stmt 1 discriminator 1 view .LVU35
 157:libs/ssdv/ssdv.c **** 	{
 134              		.loc 1 157 2 is_stmt 0 discriminator 1 view .LVU36
 135 0026 BCF13F0F 		cmp	ip, #63
 136 002a 0EDC     		bgt	.L14
 159:libs/ssdv/ssdv.c **** 		temp = (temp * scale_factor + 50) / 100;
 137              		.loc 1 159 3 is_stmt 1 view .LVU37
 138              	.LVL16:
 159:libs/ssdv/ssdv.c **** 		temp = (temp * scale_factor + 50) / 100;
 139              		.loc 1 159 10 is_stmt 0 view .LVU38
 140 002c 11F8012B 		ldrb	r2, [r1], #1	@ zero_extendqisi2
 141              	.LVL17:
 160:libs/ssdv/ssdv.c **** 		
 142              		.loc 1 160 3 is_stmt 1 view .LVU39
 160:libs/ssdv/ssdv.c **** 		
 143              		.loc 1 160 16 is_stmt 0 view .LVU40
 144 0030 02FB0EF2 		mul	r2, r2, lr
 145              	.LVL18:
 160:libs/ssdv/ssdv.c **** 		
 146              		.loc 1 160 31 view .LVU41
 147 0034 3232     		adds	r2, r2, #50
 160:libs/ssdv/ssdv.c **** 		
 148              		.loc 1 160 8 view .LVU42
 149 0036 064B     		ldr	r3, .L15+4
 150 0038 A3FB0243 		umull	r4, r3, r3, r2
 151 003c 5B09     		lsrs	r3, r3, #5
 152              	.LVL19:
 163:libs/ssdv/ssdv.c **** 		if(temp > 255) temp = 255;
 153              		.loc 1 163 3 is_stmt 1 view .LVU43
 163:libs/ssdv/ssdv.c **** 		if(temp > 255) temp = 255;
 154              		.loc 1 163 5 is_stmt 0 view .LVU44
 155 003e 632A     		cmp	r2, #99
 156 0040 ECD9     		bls	.L11
 164:libs/ssdv/ssdv.c **** 		
 157              		.loc 1 164 3 is_stmt 1 view .LVU45
 164:libs/ssdv/ssdv.c **** 		
 158              		.loc 1 164 5 is_stmt 0 view .LVU46
 159 0042 FF2B     		cmp	r3, #255
 160 0044 EBD9     		bls	.L8
 164:libs/ssdv/ssdv.c **** 		
 161              		.loc 1 164 23 view .LVU47
 162 0046 FF23     		movs	r3, #255
 163              	.LVL20:
ARM GAS  /tmp/ccKzwklo.s 			page 7


 164:libs/ssdv/ssdv.c **** 		
 164              		.loc 1 164 23 view .LVU48
 165 0048 E9E7     		b	.L8
 166              	.LVL21:
 167              	.L14:
 167:libs/ssdv/ssdv.c **** 	}
 168:libs/ssdv/ssdv.c **** }
 168              		.loc 1 168 1 view .LVU49
 169 004a 10BD     		pop	{r4, pc}
 170              	.L16:
 171              		.align	2
 172              	.L15:
 173 004c 00000000 		.word	.LANCHOR0
 174 0050 1F85EB51 		.word	1374389535
 175              		.cfi_endproc
 176              	.LFE1:
 178              		.section	.text.sload_standard_dqt,"ax",%progbits
 179              		.align	1
 180              		.syntax unified
 181              		.thumb
 182              		.thumb_func
 183              		.fpu softvfp
 185              	sload_standard_dqt:
 186              	.LVL22:
 187              	.LFB2:
 169:libs/ssdv/ssdv.c **** 
 170:libs/ssdv/ssdv.c **** static void *sload_standard_dqt(ssdv_t *s, const uint8_t *table, uint8_t quality)
 171:libs/ssdv/ssdv.c **** {
 188              		.loc 1 171 1 is_stmt 1 view -0
 189              		.cfi_startproc
 190              		@ args = 0, pretend = 0, frame = 0
 191              		@ frame_needed = 0, uses_anonymous_args = 0
 192              		.loc 1 171 1 is_stmt 0 view .LVU51
 193 0000 38B5     		push	{r3, r4, r5, lr}
 194              	.LCFI1:
 195              		.cfi_def_cfa_offset 16
 196              		.cfi_offset 3, -16
 197              		.cfi_offset 4, -12
 198              		.cfi_offset 5, -8
 199              		.cfi_offset 14, -4
 172:libs/ssdv/ssdv.c **** 	uint8_t *r;
 200              		.loc 1 172 2 is_stmt 1 view .LVU52
 173:libs/ssdv/ssdv.c **** 	
 174:libs/ssdv/ssdv.c **** 	/* DQT is 65 bytes long, ensure there is space */
 175:libs/ssdv/ssdv.c **** 	if(s->stbl_len + 65 > TBL_LEN + HBUFF_LEN) return(NULL);
 201              		.loc 1 175 2 view .LVU53
 202              		.loc 1 175 6 is_stmt 0 view .LVU54
 203 0002 B0F8D032 		ldrh	r3, [r0, #720]
 204              		.loc 1 175 4 view .LVU55
 205 0006 B3F5F97F 		cmp	r3, #498
 206 000a 0ED2     		bcs	.L19
 207 000c 0546     		mov	r5, r0
 176:libs/ssdv/ssdv.c **** 	
 177:libs/ssdv/ssdv.c **** 	r = &s->stbls[s->stbl_len];
 208              		.loc 1 177 2 is_stmt 1 view .LVU56
 209              		.loc 1 177 4 is_stmt 0 view .LVU57
 210 000e 03F18004 		add	r4, r3, #128
ARM GAS  /tmp/ccKzwklo.s 			page 8


 211 0012 0444     		add	r4, r4, r0
 212 0014 0534     		adds	r4, r4, #5
 213              	.LVL23:
 178:libs/ssdv/ssdv.c **** 	load_standard_dqt(r, table, quality);
 214              		.loc 1 178 2 is_stmt 1 view .LVU58
 215 0016 2046     		mov	r0, r4
 216              	.LVL24:
 217              		.loc 1 178 2 is_stmt 0 view .LVU59
 218 0018 FFF7FEFF 		bl	load_standard_dqt
 219              	.LVL25:
 179:libs/ssdv/ssdv.c **** 	s->stbl_len += 65;
 220              		.loc 1 179 2 is_stmt 1 view .LVU60
 221              		.loc 1 179 14 is_stmt 0 view .LVU61
 222 001c B5F8D032 		ldrh	r3, [r5, #720]
 223 0020 4133     		adds	r3, r3, #65
 224 0022 A5F8D032 		strh	r3, [r5, #720]	@ movhi
 180:libs/ssdv/ssdv.c **** 	
 181:libs/ssdv/ssdv.c **** 	return(r);
 225              		.loc 1 181 2 is_stmt 1 view .LVU62
 226              	.LVL26:
 227              	.L17:
 182:libs/ssdv/ssdv.c **** }
 228              		.loc 1 182 1 is_stmt 0 view .LVU63
 229 0026 2046     		mov	r0, r4
 230 0028 38BD     		pop	{r3, r4, r5, pc}
 231              	.LVL27:
 232              	.L19:
 175:libs/ssdv/ssdv.c **** 	
 233              		.loc 1 175 51 view .LVU64
 234 002a 0024     		movs	r4, #0
 235 002c FBE7     		b	.L17
 236              		.cfi_endproc
 237              	.LFE2:
 239              		.section	.text.dload_standard_dqt,"ax",%progbits
 240              		.align	1
 241              		.syntax unified
 242              		.thumb
 243              		.thumb_func
 244              		.fpu softvfp
 246              	dload_standard_dqt:
 247              	.LVL28:
 248              	.LFB3:
 183:libs/ssdv/ssdv.c **** 
 184:libs/ssdv/ssdv.c **** static void *dload_standard_dqt(ssdv_t *s, const uint8_t *table, uint8_t quality)
 185:libs/ssdv/ssdv.c **** {
 249              		.loc 1 185 1 is_stmt 1 view -0
 250              		.cfi_startproc
 251              		@ args = 0, pretend = 0, frame = 0
 252              		@ frame_needed = 0, uses_anonymous_args = 0
 253              		.loc 1 185 1 is_stmt 0 view .LVU66
 254 0000 38B5     		push	{r3, r4, r5, lr}
 255              	.LCFI2:
 256              		.cfi_def_cfa_offset 16
 257              		.cfi_offset 3, -16
 258              		.cfi_offset 4, -12
 259              		.cfi_offset 5, -8
 260              		.cfi_offset 14, -4
ARM GAS  /tmp/ccKzwklo.s 			page 9


 186:libs/ssdv/ssdv.c **** 	uint8_t *r;
 261              		.loc 1 186 2 is_stmt 1 view .LVU67
 187:libs/ssdv/ssdv.c **** 	
 188:libs/ssdv/ssdv.c **** 	/* DQT is 65 bytes long, ensure there is space */
 189:libs/ssdv/ssdv.c **** 	if(s->dtbl_len + 65 > TBL_LEN + HBUFF_LEN) return(NULL);
 262              		.loc 1 189 2 view .LVU68
 263              		.loc 1 189 6 is_stmt 0 view .LVU69
 264 0002 B0F80C35 		ldrh	r3, [r0, #1292]
 265              		.loc 1 189 4 view .LVU70
 266 0006 B3F5F97F 		cmp	r3, #498
 267 000a 0ED2     		bcs	.L23
 268 000c 0546     		mov	r5, r0
 190:libs/ssdv/ssdv.c **** 	
 191:libs/ssdv/ssdv.c **** 	r = &s->dtbls[s->dtbl_len];
 269              		.loc 1 191 2 is_stmt 1 view .LVU71
 270              		.loc 1 191 4 is_stmt 0 view .LVU72
 271 000e 03F53474 		add	r4, r3, #720
 272 0012 0444     		add	r4, r4, r0
 273 0014 0234     		adds	r4, r4, #2
 274              	.LVL29:
 192:libs/ssdv/ssdv.c **** 	load_standard_dqt(r, table, quality);
 275              		.loc 1 192 2 is_stmt 1 view .LVU73
 276 0016 2046     		mov	r0, r4
 277              	.LVL30:
 278              		.loc 1 192 2 is_stmt 0 view .LVU74
 279 0018 FFF7FEFF 		bl	load_standard_dqt
 280              	.LVL31:
 193:libs/ssdv/ssdv.c **** 	s->dtbl_len += 65;
 281              		.loc 1 193 2 is_stmt 1 view .LVU75
 282              		.loc 1 193 14 is_stmt 0 view .LVU76
 283 001c B5F80C35 		ldrh	r3, [r5, #1292]
 284 0020 4133     		adds	r3, r3, #65
 285 0022 A5F80C35 		strh	r3, [r5, #1292]	@ movhi
 194:libs/ssdv/ssdv.c **** 	
 195:libs/ssdv/ssdv.c **** 	return(r);
 286              		.loc 1 195 2 is_stmt 1 view .LVU77
 287              	.LVL32:
 288              	.L21:
 196:libs/ssdv/ssdv.c **** }
 289              		.loc 1 196 1 is_stmt 0 view .LVU78
 290 0026 2046     		mov	r0, r4
 291 0028 38BD     		pop	{r3, r4, r5, pc}
 292              	.LVL33:
 293              	.L23:
 189:libs/ssdv/ssdv.c **** 	
 294              		.loc 1 189 51 view .LVU79
 295 002a 0024     		movs	r4, #0
 296 002c FBE7     		b	.L21
 297              		.cfi_endproc
 298              	.LFE3:
 300              		.section	.text.crc32,"ax",%progbits
 301              		.align	1
 302              		.syntax unified
 303              		.thumb
 304              		.thumb_func
 305              		.fpu softvfp
 307              	crc32:
ARM GAS  /tmp/ccKzwklo.s 			page 10


 308              	.LVL34:
 309              	.LFB6:
 197:libs/ssdv/ssdv.c **** 
 198:libs/ssdv/ssdv.c **** static void *stblcpy(ssdv_t *s, const void *src, size_t n)
 199:libs/ssdv/ssdv.c **** {
 200:libs/ssdv/ssdv.c **** 	void *r;
 201:libs/ssdv/ssdv.c **** 	if(s->stbl_len + n > TBL_LEN + HBUFF_LEN) return(NULL);
 202:libs/ssdv/ssdv.c **** 	r = memcpy(&s->stbls[s->stbl_len], src, n);
 203:libs/ssdv/ssdv.c **** 	s->stbl_len += n;
 204:libs/ssdv/ssdv.c **** 	return(r);
 205:libs/ssdv/ssdv.c **** }
 206:libs/ssdv/ssdv.c **** 
 207:libs/ssdv/ssdv.c **** static void *dtblcpy(ssdv_t *s, const void *src, size_t n)
 208:libs/ssdv/ssdv.c **** {
 209:libs/ssdv/ssdv.c **** 	void *r;
 210:libs/ssdv/ssdv.c **** 	if(s->dtbl_len + n > TBL_LEN) return(NULL);
 211:libs/ssdv/ssdv.c **** 	r = memcpy(&s->dtbls[s->dtbl_len], src, n);
 212:libs/ssdv/ssdv.c **** 	s->dtbl_len += n;
 213:libs/ssdv/ssdv.c **** 	return(r);
 214:libs/ssdv/ssdv.c **** }
 215:libs/ssdv/ssdv.c **** 
 216:libs/ssdv/ssdv.c **** static uint32_t crc32(void *data, size_t length)
 217:libs/ssdv/ssdv.c **** {
 310              		.loc 1 217 1 is_stmt 1 view -0
 311              		.cfi_startproc
 312              		@ args = 0, pretend = 0, frame = 0
 313              		@ frame_needed = 0, uses_anonymous_args = 0
 314              		.loc 1 217 1 is_stmt 0 view .LVU81
 315 0000 00B5     		push	{lr}
 316              	.LCFI3:
 317              		.cfi_def_cfa_offset 4
 318              		.cfi_offset 14, -4
 319 0002 8446     		mov	ip, r0
 218:libs/ssdv/ssdv.c **** 	uint32_t crc, x;
 320              		.loc 1 218 2 is_stmt 1 view .LVU82
 219:libs/ssdv/ssdv.c **** 	uint8_t i, *d;
 321              		.loc 1 219 2 view .LVU83
 220:libs/ssdv/ssdv.c **** 	
 221:libs/ssdv/ssdv.c **** 	for(d = data, crc = 0xFFFFFFFF; length; length--)
 322              		.loc 1 221 2 view .LVU84
 323              	.LVL35:
 324              		.loc 1 221 20 is_stmt 0 view .LVU85
 325 0004 4FF0FF3E 		mov	lr, #-1
 326              		.loc 1 221 2 view .LVU86
 327 0008 0DE0     		b	.L26
 328              	.LVL36:
 329              	.L28:
 222:libs/ssdv/ssdv.c **** 	{
 223:libs/ssdv/ssdv.c **** 		x = (crc ^ *(d++)) & 0xFF;
 224:libs/ssdv/ssdv.c **** 		for(i = 8; i > 0; i--)
 225:libs/ssdv/ssdv.c **** 		{
 226:libs/ssdv/ssdv.c **** 			if(x & 1) x = (x >> 1) ^ 0xEDB88320;
 227:libs/ssdv/ssdv.c **** 			else x >>= 1;
 330              		.loc 1 227 9 is_stmt 1 view .LVU87
 331              		.loc 1 227 11 is_stmt 0 view .LVU88
 332 000a 5208     		lsrs	r2, r2, #1
 333              	.LVL37:
ARM GAS  /tmp/ccKzwklo.s 			page 11


 334              	.L29:
 224:libs/ssdv/ssdv.c **** 		{
 335              		.loc 1 224 21 is_stmt 1 discriminator 2 view .LVU89
 224:libs/ssdv/ssdv.c **** 		{
 336              		.loc 1 224 22 is_stmt 0 discriminator 2 view .LVU90
 337 000c 013B     		subs	r3, r3, #1
 338              	.LVL38:
 224:libs/ssdv/ssdv.c **** 		{
 339              		.loc 1 224 22 discriminator 2 view .LVU91
 340 000e DBB2     		uxtb	r3, r3
 341              	.LVL39:
 342              	.L27:
 224:libs/ssdv/ssdv.c **** 		{
 343              		.loc 1 224 14 is_stmt 1 discriminator 1 view .LVU92
 224:libs/ssdv/ssdv.c **** 		{
 344              		.loc 1 224 3 is_stmt 0 discriminator 1 view .LVU93
 345 0010 33B1     		cbz	r3, .L33
 226:libs/ssdv/ssdv.c **** 			else x >>= 1;
 346              		.loc 1 226 4 is_stmt 1 view .LVU94
 226:libs/ssdv/ssdv.c **** 			else x >>= 1;
 347              		.loc 1 226 6 is_stmt 0 view .LVU95
 348 0012 12F0010F 		tst	r2, #1
 349 0016 F8D0     		beq	.L28
 226:libs/ssdv/ssdv.c **** 			else x >>= 1;
 350              		.loc 1 226 14 is_stmt 1 discriminator 1 view .LVU96
 226:libs/ssdv/ssdv.c **** 			else x >>= 1;
 351              		.loc 1 226 16 is_stmt 0 discriminator 1 view .LVU97
 352 0018 0948     		ldr	r0, .L35
 353 001a 80EA5202 		eor	r2, r0, r2, lsr #1
 354              	.LVL40:
 226:libs/ssdv/ssdv.c **** 			else x >>= 1;
 355              		.loc 1 226 16 discriminator 1 view .LVU98
 356 001e F5E7     		b	.L29
 357              	.L33:
 228:libs/ssdv/ssdv.c **** 		}
 229:libs/ssdv/ssdv.c **** 		crc = (crc >> 8) ^ x;
 358              		.loc 1 229 3 is_stmt 1 discriminator 2 view .LVU99
 359              		.loc 1 229 7 is_stmt 0 discriminator 2 view .LVU100
 360 0020 82EA1E2E 		eor	lr, r2, lr, lsr #8
 361              	.LVL41:
 221:libs/ssdv/ssdv.c **** 	{
 362              		.loc 1 221 42 is_stmt 1 discriminator 2 view .LVU101
 221:libs/ssdv/ssdv.c **** 	{
 363              		.loc 1 221 48 is_stmt 0 discriminator 2 view .LVU102
 364 0024 0139     		subs	r1, r1, #1
 365              	.LVL42:
 366              	.L26:
 221:libs/ssdv/ssdv.c **** 	{
 367              		.loc 1 221 34 is_stmt 1 discriminator 1 view .LVU103
 221:libs/ssdv/ssdv.c **** 	{
 368              		.loc 1 221 2 is_stmt 0 discriminator 1 view .LVU104
 369 0026 31B1     		cbz	r1, .L34
 223:libs/ssdv/ssdv.c **** 		for(i = 8; i > 0; i--)
 370              		.loc 1 223 3 is_stmt 1 view .LVU105
 371              	.LVL43:
 223:libs/ssdv/ssdv.c **** 		for(i = 8; i > 0; i--)
 372              		.loc 1 223 14 is_stmt 0 view .LVU106
ARM GAS  /tmp/ccKzwklo.s 			page 12


 373 0028 1CF8012B 		ldrb	r2, [ip], #1	@ zero_extendqisi2
 374              	.LVL44:
 223:libs/ssdv/ssdv.c **** 		for(i = 8; i > 0; i--)
 375              		.loc 1 223 12 view .LVU107
 376 002c 82EA0E02 		eor	r2, r2, lr
 223:libs/ssdv/ssdv.c **** 		for(i = 8; i > 0; i--)
 377              		.loc 1 223 5 view .LVU108
 378 0030 D2B2     		uxtb	r2, r2
 379              	.LVL45:
 224:libs/ssdv/ssdv.c **** 		{
 380              		.loc 1 224 3 is_stmt 1 view .LVU109
 224:libs/ssdv/ssdv.c **** 		{
 381              		.loc 1 224 9 is_stmt 0 view .LVU110
 382 0032 0823     		movs	r3, #8
 224:libs/ssdv/ssdv.c **** 		{
 383              		.loc 1 224 3 view .LVU111
 384 0034 ECE7     		b	.L27
 385              	.LVL46:
 386              	.L34:
 230:libs/ssdv/ssdv.c **** 	}
 231:libs/ssdv/ssdv.c **** 	
 232:libs/ssdv/ssdv.c **** 	return(crc ^ 0xFFFFFFFF);
 387              		.loc 1 232 2 is_stmt 1 view .LVU112
 233:libs/ssdv/ssdv.c **** }
 388              		.loc 1 233 1 is_stmt 0 view .LVU113
 389 0036 6FEA0E00 		mvn	r0, lr
 390 003a 5DF804FB 		ldr	pc, [sp], #4
 391              	.L36:
 392 003e 00BF     		.align	2
 393              	.L35:
 394 0040 2083B8ED 		.word	-306674912
 395              		.cfi_endproc
 396              	.LFE6:
 398              		.section	.text.encode_callsign,"ax",%progbits
 399              		.align	1
 400              		.syntax unified
 401              		.thumb
 402              		.thumb_func
 403              		.fpu softvfp
 405              	encode_callsign:
 406              	.LVL47:
 407              	.LFB7:
 234:libs/ssdv/ssdv.c **** 
 235:libs/ssdv/ssdv.c **** static uint32_t encode_callsign(char *callsign)
 236:libs/ssdv/ssdv.c **** {
 408              		.loc 1 236 1 is_stmt 1 view -0
 409              		.cfi_startproc
 410              		@ args = 0, pretend = 0, frame = 0
 411              		@ frame_needed = 0, uses_anonymous_args = 0
 412              		.loc 1 236 1 is_stmt 0 view .LVU115
 413 0000 00B5     		push	{lr}
 414              	.LCFI4:
 415              		.cfi_def_cfa_offset 4
 416              		.cfi_offset 14, -4
 417 0002 8646     		mov	lr, r0
 237:libs/ssdv/ssdv.c **** 	uint32_t x;
 418              		.loc 1 237 2 is_stmt 1 view .LVU116
ARM GAS  /tmp/ccKzwklo.s 			page 13


 238:libs/ssdv/ssdv.c **** 	char *c;
 419              		.loc 1 238 2 view .LVU117
 239:libs/ssdv/ssdv.c **** 	
 240:libs/ssdv/ssdv.c **** 	/* Point c at the end of the callsign, maximum of 6 characters */
 241:libs/ssdv/ssdv.c **** 	for(x = 0, c = callsign; x < SSDV_MAX_CALLSIGN && *c; x++, c++);
 420              		.loc 1 241 2 view .LVU118
 421              	.LVL48:
 422              		.loc 1 241 15 is_stmt 0 view .LVU119
 423 0004 0346     		mov	r3, r0
 424              		.loc 1 241 8 view .LVU120
 425 0006 0022     		movs	r2, #0
 426              		.loc 1 241 2 view .LVU121
 427 0008 01E0     		b	.L38
 428              	.LVL49:
 429              	.L40:
 430              		.loc 1 241 65 is_stmt 1 discriminator 4 view .LVU122
 431              		.loc 1 241 56 discriminator 4 view .LVU123
 432              		.loc 1 241 57 is_stmt 0 discriminator 4 view .LVU124
 433 000a 0132     		adds	r2, r2, #1
 434              	.LVL50:
 435              		.loc 1 241 62 discriminator 4 view .LVU125
 436 000c 0133     		adds	r3, r3, #1
 437              	.LVL51:
 438              	.L38:
 439              		.loc 1 241 27 is_stmt 1 discriminator 1 view .LVU126
 440              		.loc 1 241 2 is_stmt 0 discriminator 1 view .LVU127
 441 000e 052A     		cmp	r2, #5
 442 0010 02D8     		bhi	.L39
 443              		.loc 1 241 52 discriminator 3 view .LVU128
 444 0012 1978     		ldrb	r1, [r3]	@ zero_extendqisi2
 445              		.loc 1 241 49 discriminator 3 view .LVU129
 446 0014 0029     		cmp	r1, #0
 447 0016 F8D1     		bne	.L40
 448              	.L39:
 242:libs/ssdv/ssdv.c **** 	
 243:libs/ssdv/ssdv.c **** 	/* Encode it backwards */
 244:libs/ssdv/ssdv.c **** 	x = 0;
 449              		.loc 1 244 2 is_stmt 1 view .LVU130
 450              	.LVL52:
 245:libs/ssdv/ssdv.c **** 	for(c--; c >= callsign; c--)
 451              		.loc 1 245 2 view .LVU131
 452              		.loc 1 245 7 is_stmt 0 view .LVU132
 453 0018 013B     		subs	r3, r3, #1
 454              	.LVL53:
 244:libs/ssdv/ssdv.c **** 	for(c--; c >= callsign; c--)
 455              		.loc 1 244 4 view .LVU133
 456 001a 0020     		movs	r0, #0
 457              	.LVL54:
 458              		.loc 1 245 2 view .LVU134
 459 001c 08E0     		b	.L41
 460              	.LVL55:
 461              	.L42:
 246:libs/ssdv/ssdv.c **** 	{
 247:libs/ssdv/ssdv.c **** 		x *= 40;
 248:libs/ssdv/ssdv.c **** 		if(*c >= 'A' && *c <= 'Z') x += *c - 'A' + 14;
 249:libs/ssdv/ssdv.c **** 		else if(*c >= 'a' && *c <= 'z') x += *c - 'a' + 14;
 462              		.loc 1 249 8 is_stmt 1 view .LVU135
ARM GAS  /tmp/ccKzwklo.s 			page 14


 463              		.loc 1 249 21 is_stmt 0 view .LVU136
 464 001e A2F16101 		sub	r1, r2, #97
 465 0022 C9B2     		uxtb	r1, r1
 466              		.loc 1 249 10 view .LVU137
 467 0024 1929     		cmp	r1, #25
 468 0026 14D8     		bhi	.L44
 469              		.loc 1 249 35 is_stmt 1 discriminator 1 view .LVU138
 470              		.loc 1 249 37 is_stmt 0 discriminator 1 view .LVU139
 471 0028 6244     		add	r2, r2, ip
 472 002a A2F15300 		sub	r0, r2, #83
 473              	.LVL56:
 474              	.L43:
 245:libs/ssdv/ssdv.c **** 	{
 475              		.loc 1 245 26 is_stmt 1 discriminator 2 view .LVU140
 245:libs/ssdv/ssdv.c **** 	{
 476              		.loc 1 245 27 is_stmt 0 discriminator 2 view .LVU141
 477 002e 013B     		subs	r3, r3, #1
 478              	.LVL57:
 479              	.L41:
 245:libs/ssdv/ssdv.c **** 	{
 480              		.loc 1 245 11 is_stmt 1 discriminator 1 view .LVU142
 245:libs/ssdv/ssdv.c **** 	{
 481              		.loc 1 245 2 is_stmt 0 discriminator 1 view .LVU143
 482 0030 7345     		cmp	r3, lr
 483 0032 17D3     		bcc	.L47
 247:libs/ssdv/ssdv.c **** 		if(*c >= 'A' && *c <= 'Z') x += *c - 'A' + 14;
 484              		.loc 1 247 3 is_stmt 1 view .LVU144
 247:libs/ssdv/ssdv.c **** 		if(*c >= 'A' && *c <= 'Z') x += *c - 'A' + 14;
 485              		.loc 1 247 5 is_stmt 0 view .LVU145
 486 0034 00EB8000 		add	r0, r0, r0, lsl #2
 487              	.LVL58:
 247:libs/ssdv/ssdv.c **** 		if(*c >= 'A' && *c <= 'Z') x += *c - 'A' + 14;
 488              		.loc 1 247 5 view .LVU146
 489 0038 4FEAC00C 		lsl	ip, r0, #3
 490 003c 6046     		mov	r0, ip
 491              	.LVL59:
 248:libs/ssdv/ssdv.c **** 		else if(*c >= 'a' && *c <= 'z') x += *c - 'a' + 14;
 492              		.loc 1 248 3 is_stmt 1 view .LVU147
 248:libs/ssdv/ssdv.c **** 		else if(*c >= 'a' && *c <= 'z') x += *c - 'a' + 14;
 493              		.loc 1 248 6 is_stmt 0 view .LVU148
 494 003e 1A78     		ldrb	r2, [r3]	@ zero_extendqisi2
 248:libs/ssdv/ssdv.c **** 		else if(*c >= 'a' && *c <= 'z') x += *c - 'a' + 14;
 495              		.loc 1 248 16 view .LVU149
 496 0040 A2F14101 		sub	r1, r2, #65
 497 0044 C9B2     		uxtb	r1, r1
 248:libs/ssdv/ssdv.c **** 		else if(*c >= 'a' && *c <= 'z') x += *c - 'a' + 14;
 498              		.loc 1 248 5 view .LVU150
 499 0046 1929     		cmp	r1, #25
 500 0048 E9D8     		bhi	.L42
 248:libs/ssdv/ssdv.c **** 		else if(*c >= 'a' && *c <= 'z') x += *c - 'a' + 14;
 501              		.loc 1 248 30 is_stmt 1 discriminator 1 view .LVU151
 248:libs/ssdv/ssdv.c **** 		else if(*c >= 'a' && *c <= 'z') x += *c - 'a' + 14;
 502              		.loc 1 248 32 is_stmt 0 discriminator 1 view .LVU152
 503 004a 02EB0C00 		add	r0, r2, ip
 504              	.LVL60:
 248:libs/ssdv/ssdv.c **** 		else if(*c >= 'a' && *c <= 'z') x += *c - 'a' + 14;
 505              		.loc 1 248 32 discriminator 1 view .LVU153
ARM GAS  /tmp/ccKzwklo.s 			page 15


 506 004e 3338     		subs	r0, r0, #51
 507              	.LVL61:
 248:libs/ssdv/ssdv.c **** 		else if(*c >= 'a' && *c <= 'z') x += *c - 'a' + 14;
 508              		.loc 1 248 32 discriminator 1 view .LVU154
 509 0050 EDE7     		b	.L43
 510              	.L44:
 250:libs/ssdv/ssdv.c **** 		else if(*c >= '0' && *c <= '9') x += *c - '0' + 1;
 511              		.loc 1 250 8 is_stmt 1 view .LVU155
 512              		.loc 1 250 21 is_stmt 0 view .LVU156
 513 0052 A2F13001 		sub	r1, r2, #48
 514 0056 C9B2     		uxtb	r1, r1
 515              		.loc 1 250 10 view .LVU157
 516 0058 0929     		cmp	r1, #9
 517 005a E8D8     		bhi	.L43
 518              		.loc 1 250 35 is_stmt 1 discriminator 1 view .LVU158
 519              		.loc 1 250 37 is_stmt 0 discriminator 1 view .LVU159
 520 005c 6244     		add	r2, r2, ip
 521 005e A2F12F00 		sub	r0, r2, #47
 522              	.LVL62:
 523              		.loc 1 250 37 discriminator 1 view .LVU160
 524 0062 E4E7     		b	.L43
 525              	.L47:
 251:libs/ssdv/ssdv.c **** 	}
 252:libs/ssdv/ssdv.c **** 	
 253:libs/ssdv/ssdv.c **** 	return(x);
 526              		.loc 1 253 2 is_stmt 1 view .LVU161
 254:libs/ssdv/ssdv.c **** }
 527              		.loc 1 254 1 is_stmt 0 view .LVU162
 528 0064 5DF804FB 		ldr	pc, [sp], #4
 529              		.cfi_endproc
 530              	.LFE7:
 532              		.section	.text.decode_callsign,"ax",%progbits
 533              		.align	1
 534              		.syntax unified
 535              		.thumb
 536              		.thumb_func
 537              		.fpu softvfp
 539              	decode_callsign:
 540              	.LVL63:
 541              	.LFB8:
 255:libs/ssdv/ssdv.c **** 
 256:libs/ssdv/ssdv.c **** static char *decode_callsign(char *callsign, uint32_t code)
 257:libs/ssdv/ssdv.c **** {
 542              		.loc 1 257 1 is_stmt 1 view -0
 543              		.cfi_startproc
 544              		@ args = 0, pretend = 0, frame = 0
 545              		@ frame_needed = 0, uses_anonymous_args = 0
 546              		@ link register save eliminated.
 258:libs/ssdv/ssdv.c **** 	char *c, s;
 547              		.loc 1 258 2 view .LVU164
 259:libs/ssdv/ssdv.c **** 	
 260:libs/ssdv/ssdv.c **** 	*callsign = '\0';
 548              		.loc 1 260 2 view .LVU165
 549              		.loc 1 260 12 is_stmt 0 view .LVU166
 550 0000 0023     		movs	r3, #0
 551 0002 0370     		strb	r3, [r0]
 261:libs/ssdv/ssdv.c **** 	
ARM GAS  /tmp/ccKzwklo.s 			page 16


 262:libs/ssdv/ssdv.c **** 	/* Is callsign valid? */
 263:libs/ssdv/ssdv.c **** 	if(code > 0xF423FFFF) return(callsign);
 552              		.loc 1 263 2 is_stmt 1 view .LVU167
 553              		.loc 1 263 4 is_stmt 0 view .LVU168
 554 0004 134B     		ldr	r3, .L57
 555 0006 9942     		cmp	r1, r3
 556 0008 23D8     		bhi	.L49
 264:libs/ssdv/ssdv.c **** 	
 265:libs/ssdv/ssdv.c **** 	for(c = callsign; code; c++)
 557              		.loc 1 265 8 view .LVU169
 558 000a 0246     		mov	r2, r0
 559 000c 08E0     		b	.L50
 560              	.LVL64:
 561              	.L51:
 266:libs/ssdv/ssdv.c **** 	{
 267:libs/ssdv/ssdv.c **** 		s = code % 40;
 268:libs/ssdv/ssdv.c **** 		if(s == 0) *c = '-';
 269:libs/ssdv/ssdv.c **** 		else if(s < 11) *c = '0' + s - 1;
 562              		.loc 1 269 8 is_stmt 1 view .LVU170
 563              		.loc 1 269 10 is_stmt 0 view .LVU171
 564 000e 0A2B     		cmp	r3, #10
 565 0010 15D8     		bhi	.L53
 566              		.loc 1 269 19 is_stmt 1 discriminator 1 view .LVU172
 567              		.loc 1 269 32 is_stmt 0 discriminator 1 view .LVU173
 568 0012 2F33     		adds	r3, r3, #47
 569              		.loc 1 269 22 discriminator 1 view .LVU174
 570 0014 1370     		strb	r3, [r2]
 571              	.L52:
 270:libs/ssdv/ssdv.c **** 		else if(s < 14) *c = '-';
 271:libs/ssdv/ssdv.c **** 		else *c = 'A' + s - 14;
 272:libs/ssdv/ssdv.c **** 		code /= 40;
 572              		.loc 1 272 3 is_stmt 1 discriminator 2 view .LVU175
 573              		.loc 1 272 8 is_stmt 0 discriminator 2 view .LVU176
 574 0016 104B     		ldr	r3, .L57+4
 575              	.LVL65:
 576              		.loc 1 272 8 discriminator 2 view .LVU177
 577 0018 A3FB0131 		umull	r3, r1, r3, r1
 578              	.LVL66:
 579              		.loc 1 272 8 discriminator 2 view .LVU178
 580 001c 4909     		lsrs	r1, r1, #5
 581              	.LVL67:
 265:libs/ssdv/ssdv.c **** 	{
 582              		.loc 1 265 26 is_stmt 1 discriminator 2 view .LVU179
 265:libs/ssdv/ssdv.c **** 	{
 583              		.loc 1 265 27 is_stmt 0 discriminator 2 view .LVU180
 584 001e 0132     		adds	r2, r2, #1
 585              	.LVL68:
 586              	.L50:
 265:libs/ssdv/ssdv.c **** 	{
 587              		.loc 1 265 20 is_stmt 1 discriminator 1 view .LVU181
 265:libs/ssdv/ssdv.c **** 	{
 588              		.loc 1 265 2 is_stmt 0 discriminator 1 view .LVU182
 589 0020 A9B1     		cbz	r1, .L56
 267:libs/ssdv/ssdv.c **** 		if(s == 0) *c = '-';
 590              		.loc 1 267 3 is_stmt 1 view .LVU183
 267:libs/ssdv/ssdv.c **** 		if(s == 0) *c = '-';
 591              		.loc 1 267 12 is_stmt 0 view .LVU184
ARM GAS  /tmp/ccKzwklo.s 			page 17


 592 0022 0D4B     		ldr	r3, .L57+4
 593 0024 A3FB01C3 		umull	ip, r3, r3, r1
 594 0028 5B09     		lsrs	r3, r3, #5
 595 002a 03EB8303 		add	r3, r3, r3, lsl #2
 596 002e A1EBC303 		sub	r3, r1, r3, lsl #3
 597              	.LVL69:
 268:libs/ssdv/ssdv.c **** 		else if(s < 11) *c = '0' + s - 1;
 598              		.loc 1 268 3 is_stmt 1 view .LVU185
 268:libs/ssdv/ssdv.c **** 		else if(s < 11) *c = '0' + s - 1;
 599              		.loc 1 268 5 is_stmt 0 view .LVU186
 600 0032 13F0FF03 		ands	r3, r3, #255
 601              	.LVL70:
 268:libs/ssdv/ssdv.c **** 		else if(s < 11) *c = '0' + s - 1;
 602              		.loc 1 268 5 view .LVU187
 603 0036 EAD1     		bne	.L51
 268:libs/ssdv/ssdv.c **** 		else if(s < 11) *c = '0' + s - 1;
 604              		.loc 1 268 14 is_stmt 1 discriminator 1 view .LVU188
 268:libs/ssdv/ssdv.c **** 		else if(s < 11) *c = '0' + s - 1;
 605              		.loc 1 268 17 is_stmt 0 discriminator 1 view .LVU189
 606 0038 2D23     		movs	r3, #45
 607 003a 1370     		strb	r3, [r2]
 608 003c EBE7     		b	.L52
 609              	.L53:
 270:libs/ssdv/ssdv.c **** 		else *c = 'A' + s - 14;
 610              		.loc 1 270 8 is_stmt 1 view .LVU190
 270:libs/ssdv/ssdv.c **** 		else *c = 'A' + s - 14;
 611              		.loc 1 270 10 is_stmt 0 view .LVU191
 612 003e 0D2B     		cmp	r3, #13
 613 0040 02D8     		bhi	.L54
 270:libs/ssdv/ssdv.c **** 		else *c = 'A' + s - 14;
 614              		.loc 1 270 19 is_stmt 1 discriminator 1 view .LVU192
 270:libs/ssdv/ssdv.c **** 		else *c = 'A' + s - 14;
 615              		.loc 1 270 22 is_stmt 0 discriminator 1 view .LVU193
 616 0042 2D23     		movs	r3, #45
 617 0044 1370     		strb	r3, [r2]
 618 0046 E6E7     		b	.L52
 619              	.L54:
 271:libs/ssdv/ssdv.c **** 		code /= 40;
 620              		.loc 1 271 8 is_stmt 1 view .LVU194
 271:libs/ssdv/ssdv.c **** 		code /= 40;
 621              		.loc 1 271 21 is_stmt 0 view .LVU195
 622 0048 3333     		adds	r3, r3, #51
 271:libs/ssdv/ssdv.c **** 		code /= 40;
 623              		.loc 1 271 11 view .LVU196
 624 004a 1370     		strb	r3, [r2]
 625 004c E3E7     		b	.L52
 626              	.LVL71:
 627              	.L56:
 273:libs/ssdv/ssdv.c **** 	}
 274:libs/ssdv/ssdv.c **** 	*c = '\0';
 628              		.loc 1 274 2 is_stmt 1 view .LVU197
 629              		.loc 1 274 5 is_stmt 0 view .LVU198
 630 004e 0023     		movs	r3, #0
 631 0050 1370     		strb	r3, [r2]
 275:libs/ssdv/ssdv.c **** 	
 276:libs/ssdv/ssdv.c **** 	return(callsign);
 632              		.loc 1 276 2 is_stmt 1 view .LVU199
ARM GAS  /tmp/ccKzwklo.s 			page 18


 633              	.LVL72:
 634              	.L49:
 277:libs/ssdv/ssdv.c **** }
 635              		.loc 1 277 1 is_stmt 0 view .LVU200
 636 0052 7047     		bx	lr
 637              	.L58:
 638              		.align	2
 639              	.L57:
 640 0054 FFFF23F4 		.word	-198967297
 641 0058 CDCCCCCC 		.word	-858993459
 642              		.cfi_endproc
 643              	.LFE8:
 645              		.section	.text.ssdv_outbits,"ax",%progbits
 646              		.align	1
 647              		.syntax unified
 648              		.thumb
 649              		.thumb_func
 650              		.fpu softvfp
 652              	ssdv_outbits:
 653              	.LVL73:
 654              	.LFB13:
 278:libs/ssdv/ssdv.c **** 
 279:libs/ssdv/ssdv.c **** static inline char jpeg_dht_lookup(ssdv_t *s, uint8_t *symbol, uint8_t *width)
 280:libs/ssdv/ssdv.c **** {
 281:libs/ssdv/ssdv.c **** 	uint16_t code = 0;
 282:libs/ssdv/ssdv.c **** 	uint8_t cw, n;
 283:libs/ssdv/ssdv.c **** 	uint8_t *dht, *ss;
 284:libs/ssdv/ssdv.c **** 	
 285:libs/ssdv/ssdv.c **** 	/* Select the appropriate huffman table */
 286:libs/ssdv/ssdv.c **** 	dht = SDHT;
 287:libs/ssdv/ssdv.c **** 	ss = &dht[17];
 288:libs/ssdv/ssdv.c **** 	
 289:libs/ssdv/ssdv.c **** 	for(cw = 1; cw <= 16; cw++)
 290:libs/ssdv/ssdv.c **** 	{
 291:libs/ssdv/ssdv.c **** 		/* Got enough bits? */
 292:libs/ssdv/ssdv.c **** 		if(cw > s->worklen) return(SSDV_FEED_ME);
 293:libs/ssdv/ssdv.c **** 		
 294:libs/ssdv/ssdv.c **** 		/* Compare against each code 'cw' bits wide */
 295:libs/ssdv/ssdv.c **** 		for(n = dht[cw]; n > 0; n--)
 296:libs/ssdv/ssdv.c **** 		{
 297:libs/ssdv/ssdv.c **** 			if(s->workbits >> (s->worklen - cw) == code)
 298:libs/ssdv/ssdv.c **** 			{
 299:libs/ssdv/ssdv.c **** 				/* Found a match */
 300:libs/ssdv/ssdv.c **** 				*symbol = *ss;
 301:libs/ssdv/ssdv.c **** 				*width = cw;
 302:libs/ssdv/ssdv.c **** 				return(SSDV_OK);
 303:libs/ssdv/ssdv.c **** 			}
 304:libs/ssdv/ssdv.c **** 			ss++; code++;
 305:libs/ssdv/ssdv.c **** 		}
 306:libs/ssdv/ssdv.c **** 		
 307:libs/ssdv/ssdv.c **** 		code <<= 1;
 308:libs/ssdv/ssdv.c **** 	}
 309:libs/ssdv/ssdv.c **** 	
 310:libs/ssdv/ssdv.c **** 	/* No match found - error */
 311:libs/ssdv/ssdv.c **** 	return(SSDV_ERROR);
 312:libs/ssdv/ssdv.c **** }
 313:libs/ssdv/ssdv.c **** 
ARM GAS  /tmp/ccKzwklo.s 			page 19


 314:libs/ssdv/ssdv.c **** static inline char jpeg_dht_lookup_symbol(ssdv_t *s, uint8_t symbol, uint16_t *bits, uint8_t *width
 315:libs/ssdv/ssdv.c **** {
 316:libs/ssdv/ssdv.c **** 	uint16_t code = 0;
 317:libs/ssdv/ssdv.c **** 	uint8_t cw, n;
 318:libs/ssdv/ssdv.c **** 	uint8_t *dht, *ss;
 319:libs/ssdv/ssdv.c **** 	
 320:libs/ssdv/ssdv.c **** 	dht = DDHT;
 321:libs/ssdv/ssdv.c **** 	ss = &dht[17];
 322:libs/ssdv/ssdv.c **** 	
 323:libs/ssdv/ssdv.c **** 	for(cw = 1; cw <= 16; cw++)
 324:libs/ssdv/ssdv.c **** 	{
 325:libs/ssdv/ssdv.c **** 		for(n = dht[cw]; n > 0; n--)
 326:libs/ssdv/ssdv.c **** 		{
 327:libs/ssdv/ssdv.c **** 			if(*ss == symbol)
 328:libs/ssdv/ssdv.c **** 			{
 329:libs/ssdv/ssdv.c **** 				/* Found a match */
 330:libs/ssdv/ssdv.c **** 				*bits = code;
 331:libs/ssdv/ssdv.c **** 				*width = cw;
 332:libs/ssdv/ssdv.c **** 				return(SSDV_OK);
 333:libs/ssdv/ssdv.c **** 			}
 334:libs/ssdv/ssdv.c **** 			ss++; code++;
 335:libs/ssdv/ssdv.c **** 		}
 336:libs/ssdv/ssdv.c **** 		
 337:libs/ssdv/ssdv.c **** 		code <<= 1;
 338:libs/ssdv/ssdv.c **** 	}
 339:libs/ssdv/ssdv.c **** 	
 340:libs/ssdv/ssdv.c **** 	/* No match found - error */
 341:libs/ssdv/ssdv.c **** 	return(SSDV_ERROR);
 342:libs/ssdv/ssdv.c **** }
 343:libs/ssdv/ssdv.c **** 
 344:libs/ssdv/ssdv.c **** static inline int jpeg_int(int bits, int width)
 345:libs/ssdv/ssdv.c **** {
 346:libs/ssdv/ssdv.c **** 	int b = (1 << width) - 1;
 347:libs/ssdv/ssdv.c **** 	if(bits <= b >> 1) bits = -(bits ^ b);
 348:libs/ssdv/ssdv.c **** 	return(bits);
 349:libs/ssdv/ssdv.c **** }
 350:libs/ssdv/ssdv.c **** 
 351:libs/ssdv/ssdv.c **** static inline void jpeg_encode_int(int value, int *bits, uint8_t *width)
 352:libs/ssdv/ssdv.c **** {
 353:libs/ssdv/ssdv.c **** 	*bits = value;
 354:libs/ssdv/ssdv.c **** 	
 355:libs/ssdv/ssdv.c **** 	/* Calculate the number of bits */
 356:libs/ssdv/ssdv.c **** 	if(value < 0) value = -value;
 357:libs/ssdv/ssdv.c **** 	for(*width = 0; value; value >>= 1) (*width)++;
 358:libs/ssdv/ssdv.c **** 	
 359:libs/ssdv/ssdv.c **** 	/* Fix negative values */
 360:libs/ssdv/ssdv.c **** 	if(*bits < 0) *bits = -*bits ^ ((1 << *width) - 1);
 361:libs/ssdv/ssdv.c **** }
 362:libs/ssdv/ssdv.c **** 
 363:libs/ssdv/ssdv.c **** /*****************************************************************************/
 364:libs/ssdv/ssdv.c **** 
 365:libs/ssdv/ssdv.c **** static char ssdv_outbits(ssdv_t *s, uint16_t bits, uint8_t length)
 366:libs/ssdv/ssdv.c **** {
 655              		.loc 1 366 1 is_stmt 1 view -0
 656              		.cfi_startproc
 657              		@ args = 0, pretend = 0, frame = 0
 658              		@ frame_needed = 0, uses_anonymous_args = 0
ARM GAS  /tmp/ccKzwklo.s 			page 20


 659              		@ link register save eliminated.
 367:libs/ssdv/ssdv.c **** 	uint8_t b;
 660              		.loc 1 367 2 view .LVU202
 368:libs/ssdv/ssdv.c **** 	
 369:libs/ssdv/ssdv.c **** 	if(length)
 661              		.loc 1 369 2 view .LVU203
 662              		.loc 1 369 4 is_stmt 0 view .LVU204
 663 0000 1346     		mov	r3, r2
 664 0002 8AB1     		cbz	r2, .L61
 370:libs/ssdv/ssdv.c **** 	{
 371:libs/ssdv/ssdv.c **** 		s->outbits <<= length;
 665              		.loc 1 371 3 is_stmt 1 view .LVU205
 666              		.loc 1 371 14 is_stmt 0 view .LVU206
 667 0004 426C     		ldr	r2, [r0, #68]
 668              	.LVL74:
 669              		.loc 1 371 14 view .LVU207
 670 0006 9A40     		lsls	r2, r2, r3
 671 0008 4264     		str	r2, [r0, #68]
 372:libs/ssdv/ssdv.c **** 		s->outbits |= bits & ((1 << length) - 1);
 672              		.loc 1 372 3 is_stmt 1 view .LVU208
 673              		.loc 1 372 28 is_stmt 0 view .LVU209
 674 000a 4FF0010C 		mov	ip, #1
 675 000e 0CFA03FC 		lsl	ip, ip, r3
 676              		.loc 1 372 39 view .LVU210
 677 0012 0CF1FF3C 		add	ip, ip, #-1
 678              		.loc 1 372 22 view .LVU211
 679 0016 01EA0C01 		and	r1, r1, ip
 680              	.LVL75:
 681              		.loc 1 372 14 view .LVU212
 682 001a 1143     		orrs	r1, r1, r2
 683 001c 4164     		str	r1, [r0, #68]
 373:libs/ssdv/ssdv.c **** 		s->outlen += length;
 684              		.loc 1 373 3 is_stmt 1 view .LVU213
 685              		.loc 1 373 13 is_stmt 0 view .LVU214
 686 001e 90F84820 		ldrb	r2, [r0, #72]	@ zero_extendqisi2
 687 0022 1344     		add	r3, r3, r2
 688 0024 80F84830 		strb	r3, [r0, #72]
 689              	.L61:
 374:libs/ssdv/ssdv.c **** 	}
 375:libs/ssdv/ssdv.c **** 	
 376:libs/ssdv/ssdv.c **** 	while(s->outlen >= 8 && s->out_len > 0)
 690              		.loc 1 376 7 is_stmt 1 view .LVU215
 691              		.loc 1 376 9 is_stmt 0 view .LVU216
 692 0028 90F84820 		ldrb	r2, [r0, #72]	@ zero_extendqisi2
 693              		.loc 1 376 7 view .LVU217
 694 002c 072A     		cmp	r2, #7
 695 002e 23D9     		bls	.L63
 696              		.loc 1 376 27 discriminator 1 view .LVU218
 697 0030 C36B     		ldr	r3, [r0, #60]
 698              		.loc 1 376 23 discriminator 1 view .LVU219
 699 0032 0BB3     		cbz	r3, .L63
 377:libs/ssdv/ssdv.c **** 	{
 378:libs/ssdv/ssdv.c **** 		b = s->outbits >> (s->outlen - 8);
 700              		.loc 1 378 3 is_stmt 1 view .LVU220
 701              		.loc 1 378 8 is_stmt 0 view .LVU221
 702 0034 436C     		ldr	r3, [r0, #68]
 703              		.loc 1 378 32 view .LVU222
ARM GAS  /tmp/ccKzwklo.s 			page 21


 704 0036 083A     		subs	r2, r2, #8
 705              		.loc 1 378 18 view .LVU223
 706 0038 D340     		lsrs	r3, r3, r2
 707              		.loc 1 378 5 view .LVU224
 708 003a DBB2     		uxtb	r3, r3
 709              	.LVL76:
 379:libs/ssdv/ssdv.c **** 		
 380:libs/ssdv/ssdv.c **** 		/* Put the byte into the output buffer */
 381:libs/ssdv/ssdv.c **** 		*(s->outp++) = b;
 710              		.loc 1 381 3 is_stmt 1 view .LVU225
 711              		.loc 1 381 6 is_stmt 0 view .LVU226
 712 003c 826B     		ldr	r2, [r0, #56]
 713              		.loc 1 381 12 view .LVU227
 714 003e 511C     		adds	r1, r2, #1
 715 0040 8163     		str	r1, [r0, #56]
 716              		.loc 1 381 16 view .LVU228
 717 0042 1370     		strb	r3, [r2]
 382:libs/ssdv/ssdv.c **** 		s->outlen -= 8;
 718              		.loc 1 382 3 is_stmt 1 view .LVU229
 719              		.loc 1 382 13 is_stmt 0 view .LVU230
 720 0044 90F848C0 		ldrb	ip, [r0, #72]	@ zero_extendqisi2
 721 0048 ACF10802 		sub	r2, ip, #8
 722 004c D2B2     		uxtb	r2, r2
 723 004e 80F84820 		strb	r2, [r0, #72]
 383:libs/ssdv/ssdv.c **** 		s->out_len--;
 724              		.loc 1 383 3 is_stmt 1 view .LVU231
 725              		.loc 1 383 4 is_stmt 0 view .LVU232
 726 0052 C16B     		ldr	r1, [r0, #60]
 727              		.loc 1 383 13 view .LVU233
 728 0054 0139     		subs	r1, r1, #1
 729 0056 C163     		str	r1, [r0, #60]
 384:libs/ssdv/ssdv.c **** 		
 385:libs/ssdv/ssdv.c **** 		/* Insert stuffing byte if needed */
 386:libs/ssdv/ssdv.c **** 		if(s->out_stuff && b == 0xFF)
 730              		.loc 1 386 3 is_stmt 1 view .LVU234
 731              		.loc 1 386 7 is_stmt 0 view .LVU235
 732 0058 90F84010 		ldrb	r1, [r0, #64]	@ zero_extendqisi2
 733              		.loc 1 386 5 view .LVU236
 734 005c 0029     		cmp	r1, #0
 735 005e E3D0     		beq	.L61
 736              		.loc 1 386 19 discriminator 1 view .LVU237
 737 0060 FF2B     		cmp	r3, #255
 738 0062 E1D1     		bne	.L61
 387:libs/ssdv/ssdv.c **** 		{
 388:libs/ssdv/ssdv.c **** 			s->outbits &= (1 << s->outlen) - 1;
 739              		.loc 1 388 4 is_stmt 1 view .LVU238
 740              		.loc 1 388 21 is_stmt 0 view .LVU239
 741 0064 0123     		movs	r3, #1
 742              	.LVL77:
 743              		.loc 1 388 21 view .LVU240
 744 0066 03FA02F2 		lsl	r2, r3, r2
 745              		.loc 1 388 35 view .LVU241
 746 006a 013A     		subs	r2, r2, #1
 747              		.loc 1 388 15 view .LVU242
 748 006c 436C     		ldr	r3, [r0, #68]
 749 006e 1A40     		ands	r2, r2, r3
 750 0070 4264     		str	r2, [r0, #68]
ARM GAS  /tmp/ccKzwklo.s 			page 22


 389:libs/ssdv/ssdv.c **** 			s->outlen += 8;
 751              		.loc 1 389 4 is_stmt 1 view .LVU243
 752              		.loc 1 389 14 is_stmt 0 view .LVU244
 753 0072 80F848C0 		strb	ip, [r0, #72]
 754 0076 D7E7     		b	.L61
 755              	.L63:
 390:libs/ssdv/ssdv.c **** 		}
 391:libs/ssdv/ssdv.c **** 	}
 392:libs/ssdv/ssdv.c **** 	
 393:libs/ssdv/ssdv.c **** 	return(s->out_len ? SSDV_OK : SSDV_BUFFER_FULL);
 756              		.loc 1 393 2 is_stmt 1 view .LVU245
 757              		.loc 1 393 10 is_stmt 0 view .LVU246
 758 0078 C36B     		ldr	r3, [r0, #60]
 759              		.loc 1 393 30 view .LVU247
 760 007a 0BB1     		cbz	r3, .L66
 761 007c 0020     		movs	r0, #0
 762              	.LVL78:
 763              		.loc 1 393 30 view .LVU248
 764 007e 7047     		bx	lr
 765              	.LVL79:
 766              	.L66:
 767              		.loc 1 393 30 view .LVU249
 768 0080 0320     		movs	r0, #3
 769              	.LVL80:
 394:libs/ssdv/ssdv.c **** }
 770              		.loc 1 394 1 view .LVU250
 771 0082 7047     		bx	lr
 772              		.cfi_endproc
 773              	.LFE13:
 775              		.section	.text.ssdv_outbits_sync,"ax",%progbits
 776              		.align	1
 777              		.syntax unified
 778              		.thumb
 779              		.thumb_func
 780              		.fpu softvfp
 782              	ssdv_outbits_sync:
 783              	.LVL81:
 784              	.LFB14:
 395:libs/ssdv/ssdv.c **** 
 396:libs/ssdv/ssdv.c **** static char ssdv_outbits_sync(ssdv_t *s)
 397:libs/ssdv/ssdv.c **** {
 785              		.loc 1 397 1 is_stmt 1 view -0
 786              		.cfi_startproc
 787              		@ args = 0, pretend = 0, frame = 0
 788              		@ frame_needed = 0, uses_anonymous_args = 0
 789              		.loc 1 397 1 is_stmt 0 view .LVU252
 790 0000 08B5     		push	{r3, lr}
 791              	.LCFI5:
 792              		.cfi_def_cfa_offset 8
 793              		.cfi_offset 3, -8
 794              		.cfi_offset 14, -4
 795 0002 0346     		mov	r3, r0
 398:libs/ssdv/ssdv.c **** 	uint8_t b = s->outlen % 8;
 796              		.loc 1 398 2 is_stmt 1 view .LVU253
 797              		.loc 1 398 15 is_stmt 0 view .LVU254
 798 0004 90F84820 		ldrb	r2, [r0, #72]	@ zero_extendqisi2
 799              	.LVL82:
ARM GAS  /tmp/ccKzwklo.s 			page 23


 399:libs/ssdv/ssdv.c **** 	if(b) return(ssdv_outbits(s, 0xFF, 8 - b));
 800              		.loc 1 399 2 is_stmt 1 view .LVU255
 801              		.loc 1 399 4 is_stmt 0 view .LVU256
 802 0008 12F00700 		ands	r0, r2, #7
 803              	.LVL83:
 804              		.loc 1 399 4 view .LVU257
 805 000c 00D1     		bne	.L70
 806              	.LVL84:
 807              	.L68:
 400:libs/ssdv/ssdv.c **** 	return(SSDV_OK);
 401:libs/ssdv/ssdv.c **** }
 808              		.loc 1 401 1 view .LVU258
 809 000e 08BD     		pop	{r3, pc}
 810              	.LVL85:
 811              	.L70:
 399:libs/ssdv/ssdv.c **** 	if(b) return(ssdv_outbits(s, 0xFF, 8 - b));
 812              		.loc 1 399 8 is_stmt 1 discriminator 1 view .LVU259
 399:libs/ssdv/ssdv.c **** 	if(b) return(ssdv_outbits(s, 0xFF, 8 - b));
 813              		.loc 1 399 15 is_stmt 0 discriminator 1 view .LVU260
 814 0010 C0F10802 		rsb	r2, r0, #8
 815              	.LVL86:
 399:libs/ssdv/ssdv.c **** 	if(b) return(ssdv_outbits(s, 0xFF, 8 - b));
 816              		.loc 1 399 15 discriminator 1 view .LVU261
 817 0014 D2B2     		uxtb	r2, r2
 818 0016 FF21     		movs	r1, #255
 819 0018 1846     		mov	r0, r3
 820 001a FFF7FEFF 		bl	ssdv_outbits
 821              	.LVL87:
 399:libs/ssdv/ssdv.c **** 	if(b) return(ssdv_outbits(s, 0xFF, 8 - b));
 822              		.loc 1 399 15 discriminator 1 view .LVU262
 823 001e F6E7     		b	.L68
 824              		.cfi_endproc
 825              	.LFE14:
 827              		.section	.text.ssdv_out_jpeg_int,"ax",%progbits
 828              		.align	1
 829              		.syntax unified
 830              		.thumb
 831              		.thumb_func
 832              		.fpu softvfp
 834              	ssdv_out_jpeg_int:
 835              	.LVL88:
 836              	.LFB15:
 402:libs/ssdv/ssdv.c **** 
 403:libs/ssdv/ssdv.c **** static char ssdv_out_jpeg_int(ssdv_t *s, uint8_t rle, int value)
 404:libs/ssdv/ssdv.c **** {
 837              		.loc 1 404 1 is_stmt 1 view -0
 838              		.cfi_startproc
 839              		@ args = 0, pretend = 0, frame = 0
 840              		@ frame_needed = 0, uses_anonymous_args = 0
 841              		.loc 1 404 1 is_stmt 0 view .LVU264
 842 0000 F8B5     		push	{r3, r4, r5, r6, r7, lr}
 843              	.LCFI6:
 844              		.cfi_def_cfa_offset 24
 845              		.cfi_offset 3, -24
 846              		.cfi_offset 4, -20
 847              		.cfi_offset 5, -16
 848              		.cfi_offset 6, -12
ARM GAS  /tmp/ccKzwklo.s 			page 24


 849              		.cfi_offset 7, -8
 850              		.cfi_offset 14, -4
 851 0002 0646     		mov	r6, r0
 405:libs/ssdv/ssdv.c **** 	uint16_t huffbits = 0;
 852              		.loc 1 405 2 is_stmt 1 view .LVU265
 853              	.LVL89:
 406:libs/ssdv/ssdv.c **** 	int intbits;
 854              		.loc 1 406 2 view .LVU266
 407:libs/ssdv/ssdv.c **** 	uint8_t hufflen = 0, intlen;
 855              		.loc 1 407 2 view .LVU267
 408:libs/ssdv/ssdv.c **** 	
 409:libs/ssdv/ssdv.c **** 	jpeg_encode_int(value, &intbits, &intlen);
 856              		.loc 1 409 2 view .LVU268
 857              	.LBB10:
 858              	.LBI10:
 351:libs/ssdv/ssdv.c **** {
 859              		.loc 1 351 20 view .LVU269
 860              	.LBB11:
 353:libs/ssdv/ssdv.c **** 	
 861              		.loc 1 353 2 view .LVU270
 356:libs/ssdv/ssdv.c **** 	for(*width = 0; value; value >>= 1) (*width)++;
 862              		.loc 1 356 2 view .LVU271
 356:libs/ssdv/ssdv.c **** 	for(*width = 0; value; value >>= 1) (*width)++;
 863              		.loc 1 356 4 is_stmt 0 view .LVU272
 864 0004 151E     		subs	r5, r2, #0
 865 0006 06DB     		blt	.L84
 866 0008 2B46     		mov	r3, r5
 867              	.LVL90:
 868              	.L72:
 357:libs/ssdv/ssdv.c **** 	
 869              		.loc 1 357 2 is_stmt 1 view .LVU273
 357:libs/ssdv/ssdv.c **** 	
 870              		.loc 1 357 13 is_stmt 0 view .LVU274
 871 000a 0024     		movs	r4, #0
 872              	.LVL91:
 873              	.L73:
 357:libs/ssdv/ssdv.c **** 	
 874              		.loc 1 357 18 is_stmt 1 view .LVU275
 357:libs/ssdv/ssdv.c **** 	
 875              		.loc 1 357 2 is_stmt 0 view .LVU276
 876 000c 2BB1     		cbz	r3, .L85
 357:libs/ssdv/ssdv.c **** 	
 877              		.loc 1 357 38 is_stmt 1 view .LVU277
 357:libs/ssdv/ssdv.c **** 	
 878              		.loc 1 357 46 is_stmt 0 view .LVU278
 879 000e 0134     		adds	r4, r4, #1
 880              	.LVL92:
 357:libs/ssdv/ssdv.c **** 	
 881              		.loc 1 357 46 view .LVU279
 882 0010 E4B2     		uxtb	r4, r4
 883              	.LVL93:
 357:libs/ssdv/ssdv.c **** 	
 884              		.loc 1 357 25 is_stmt 1 view .LVU280
 357:libs/ssdv/ssdv.c **** 	
 885              		.loc 1 357 31 is_stmt 0 view .LVU281
 886 0012 5B10     		asrs	r3, r3, #1
 887              	.LVL94:
ARM GAS  /tmp/ccKzwklo.s 			page 25


 357:libs/ssdv/ssdv.c **** 	
 888              		.loc 1 357 31 view .LVU282
 889 0014 FAE7     		b	.L73
 890              	.LVL95:
 891              	.L84:
 356:libs/ssdv/ssdv.c **** 	for(*width = 0; value; value >>= 1) (*width)++;
 892              		.loc 1 356 16 is_stmt 1 view .LVU283
 356:libs/ssdv/ssdv.c **** 	for(*width = 0; value; value >>= 1) (*width)++;
 893              		.loc 1 356 22 is_stmt 0 view .LVU284
 894 0016 6B42     		rsbs	r3, r5, #0
 895              	.LVL96:
 356:libs/ssdv/ssdv.c **** 	for(*width = 0; value; value >>= 1) (*width)++;
 896              		.loc 1 356 22 view .LVU285
 897 0018 F7E7     		b	.L72
 898              	.LVL97:
 899              	.L85:
 360:libs/ssdv/ssdv.c **** }
 900              		.loc 1 360 2 is_stmt 1 view .LVU286
 360:libs/ssdv/ssdv.c **** }
 901              		.loc 1 360 4 is_stmt 0 view .LVU287
 902 001a 002D     		cmp	r5, #0
 903 001c 1DDB     		blt	.L86
 904              	.LVL98:
 905              	.L75:
 360:libs/ssdv/ssdv.c **** }
 906              		.loc 1 360 4 view .LVU288
 907              	.LBE11:
 908              	.LBE10:
 410:libs/ssdv/ssdv.c **** 	jpeg_dht_lookup_symbol(s, (rle << 4) | (intlen & 0x0F), &huffbits, &hufflen);
 909              		.loc 1 410 2 is_stmt 1 view .LVU289
 910              		.loc 1 410 49 is_stmt 0 view .LVU290
 911 001e 04F00F0E 		and	lr, r4, #15
 912              		.loc 1 410 39 view .LVU291
 913 0022 4EEA011E 		orr	lr, lr, r1, lsl #4
 914              		.loc 1 410 2 view .LVU292
 915 0026 5FFA8EFE 		uxtb	lr, lr
 916              	.LVL99:
 917              	.LBB13:
 918              	.LBI13:
 314:libs/ssdv/ssdv.c **** {
 919              		.loc 1 314 20 is_stmt 1 view .LVU293
 920              	.LBB14:
 316:libs/ssdv/ssdv.c **** 	uint8_t cw, n;
 921              		.loc 1 316 2 view .LVU294
 317:libs/ssdv/ssdv.c **** 	uint8_t *dht, *ss;
 922              		.loc 1 317 2 view .LVU295
 318:libs/ssdv/ssdv.c **** 	
 923              		.loc 1 318 2 view .LVU296
 320:libs/ssdv/ssdv.c **** 	ss = &dht[17];
 924              		.loc 1 320 2 view .LVU297
 320:libs/ssdv/ssdv.c **** 	ss = &dht[17];
 925              		.loc 1 320 8 is_stmt 0 view .LVU298
 926 002a 96F85A30 		ldrb	r3, [r6, #90]	@ zero_extendqisi2
 927 002e 003B     		subs	r3, r3, #0
 928 0030 18BF     		it	ne
 929 0032 0123     		movne	r3, #1
 930 0034 96F85720 		ldrb	r2, [r6, #87]	@ zero_extendqisi2
ARM GAS  /tmp/ccKzwklo.s 			page 26


 931              	.LVL100:
 320:libs/ssdv/ssdv.c **** 	ss = &dht[17];
 932              		.loc 1 320 6 view .LVU299
 933 0038 5B00     		lsls	r3, r3, #1
 934 003a 002A     		cmp	r2, #0
 935 003c 18BF     		it	ne
 936 003e 0133     		addne	r3, r3, #1
 937 0040 03F59E73 		add	r3, r3, #316
 938 0044 06EB8303 		add	r3, r6, r3, lsl #2
 939 0048 5F68     		ldr	r7, [r3, #4]
 940              	.LVL101:
 321:libs/ssdv/ssdv.c **** 	
 941              		.loc 1 321 2 is_stmt 1 view .LVU300
 321:libs/ssdv/ssdv.c **** 	
 942              		.loc 1 321 5 is_stmt 0 view .LVU301
 943 004a 07F11100 		add	r0, r7, #17
 944              	.LVL102:
 323:libs/ssdv/ssdv.c **** 	{
 945              		.loc 1 323 2 is_stmt 1 view .LVU302
 323:libs/ssdv/ssdv.c **** 	{
 946              		.loc 1 323 9 is_stmt 0 view .LVU303
 947 004e 0122     		movs	r2, #1
 316:libs/ssdv/ssdv.c **** 	uint8_t cw, n;
 948              		.loc 1 316 11 view .LVU304
 949 0050 0021     		movs	r1, #0
 950              	.LVL103:
 951              	.L76:
 323:libs/ssdv/ssdv.c **** 	{
 952              		.loc 1 323 14 is_stmt 1 view .LVU305
 323:libs/ssdv/ssdv.c **** 	{
 953              		.loc 1 323 2 is_stmt 0 view .LVU306
 954 0052 102A     		cmp	r2, #16
 955 0054 1CD8     		bhi	.L87
 325:libs/ssdv/ssdv.c **** 		{
 956              		.loc 1 325 3 is_stmt 1 view .LVU307
 325:libs/ssdv/ssdv.c **** 		{
 957              		.loc 1 325 9 is_stmt 0 view .LVU308
 958 0056 BB5C     		ldrb	r3, [r7, r2]	@ zero_extendqisi2
 959              	.LVL104:
 325:libs/ssdv/ssdv.c **** 		{
 960              		.loc 1 325 3 view .LVU309
 961 0058 0AE0     		b	.L77
 962              	.LVL105:
 963              	.L86:
 325:libs/ssdv/ssdv.c **** 		{
 964              		.loc 1 325 3 view .LVU310
 965              	.LBE14:
 966              	.LBE13:
 967              	.LBB17:
 968              	.LBB12:
 360:libs/ssdv/ssdv.c **** }
 969              		.loc 1 360 16 is_stmt 1 view .LVU311
 360:libs/ssdv/ssdv.c **** }
 970              		.loc 1 360 24 is_stmt 0 view .LVU312
 971 005a 6D42     		rsbs	r5, r5, #0
 360:libs/ssdv/ssdv.c **** }
 972              		.loc 1 360 37 view .LVU313
ARM GAS  /tmp/ccKzwklo.s 			page 27


 973 005c 0123     		movs	r3, #1
 974              	.LVL106:
 360:libs/ssdv/ssdv.c **** }
 975              		.loc 1 360 37 view .LVU314
 976 005e A340     		lsls	r3, r3, r4
 360:libs/ssdv/ssdv.c **** }
 977              		.loc 1 360 48 view .LVU315
 978 0060 013B     		subs	r3, r3, #1
 360:libs/ssdv/ssdv.c **** }
 979              		.loc 1 360 31 view .LVU316
 980 0062 5D40     		eors	r5, r5, r3
 981              	.LVL107:
 360:libs/ssdv/ssdv.c **** }
 982              		.loc 1 360 31 view .LVU317
 983 0064 DBE7     		b	.L75
 984              	.LVL108:
 985              	.L89:
 360:libs/ssdv/ssdv.c **** }
 986              		.loc 1 360 31 view .LVU318
 987              	.LBE12:
 988              	.LBE17:
 989              	.LBB18:
 990              	.LBB15:
 334:libs/ssdv/ssdv.c **** 		}
 991              		.loc 1 334 4 is_stmt 1 view .LVU319
 334:libs/ssdv/ssdv.c **** 		}
 992              		.loc 1 334 6 is_stmt 0 view .LVU320
 993 0066 0130     		adds	r0, r0, #1
 994              	.LVL109:
 334:libs/ssdv/ssdv.c **** 		}
 995              		.loc 1 334 10 is_stmt 1 view .LVU321
 334:libs/ssdv/ssdv.c **** 		}
 996              		.loc 1 334 14 is_stmt 0 view .LVU322
 997 0068 0131     		adds	r1, r1, #1
 998              	.LVL110:
 334:libs/ssdv/ssdv.c **** 		}
 999              		.loc 1 334 14 view .LVU323
 1000 006a 89B2     		uxth	r1, r1
 1001              	.LVL111:
 325:libs/ssdv/ssdv.c **** 		{
 1002              		.loc 1 325 27 is_stmt 1 view .LVU324
 325:libs/ssdv/ssdv.c **** 		{
 1003              		.loc 1 325 28 is_stmt 0 view .LVU325
 1004 006c 013B     		subs	r3, r3, #1
 1005              	.LVL112:
 325:libs/ssdv/ssdv.c **** 		{
 1006              		.loc 1 325 28 view .LVU326
 1007 006e DBB2     		uxtb	r3, r3
 1008              	.LVL113:
 1009              	.L77:
 325:libs/ssdv/ssdv.c **** 		{
 1010              		.loc 1 325 20 is_stmt 1 view .LVU327
 325:libs/ssdv/ssdv.c **** 		{
 1011              		.loc 1 325 3 is_stmt 0 view .LVU328
 1012 0070 4BB1     		cbz	r3, .L88
 327:libs/ssdv/ssdv.c **** 			{
 1013              		.loc 1 327 4 is_stmt 1 view .LVU329
ARM GAS  /tmp/ccKzwklo.s 			page 28


 327:libs/ssdv/ssdv.c **** 			{
 1014              		.loc 1 327 7 is_stmt 0 view .LVU330
 1015 0072 90F800C0 		ldrb	ip, [r0]	@ zero_extendqisi2
 327:libs/ssdv/ssdv.c **** 			{
 1016              		.loc 1 327 6 view .LVU331
 1017 0076 E645     		cmp	lr, ip
 1018 0078 F5D1     		bne	.L89
 1019              	.LVL114:
 1020              	.L78:
 327:libs/ssdv/ssdv.c **** 			{
 1021              		.loc 1 327 6 view .LVU332
 1022              	.LBE15:
 1023              	.LBE18:
 411:libs/ssdv/ssdv.c **** 		
 412:libs/ssdv/ssdv.c **** 	ssdv_outbits(s, huffbits, hufflen);
 1024              		.loc 1 412 2 is_stmt 1 view .LVU333
 1025 007a 3046     		mov	r0, r6
 1026 007c FFF7FEFF 		bl	ssdv_outbits
 1027              	.LVL115:
 413:libs/ssdv/ssdv.c **** 	if(intlen) ssdv_outbits(s, intbits, intlen);
 1028              		.loc 1 413 2 view .LVU334
 1029              		.loc 1 413 4 is_stmt 0 view .LVU335
 1030 0080 4CB9     		cbnz	r4, .L90
 1031              	.L81:
 414:libs/ssdv/ssdv.c **** 	
 415:libs/ssdv/ssdv.c **** 	return(SSDV_OK);
 1032              		.loc 1 415 2 is_stmt 1 view .LVU336
 1033              	.LVL116:
 416:libs/ssdv/ssdv.c **** }
 1034              		.loc 1 416 1 is_stmt 0 view .LVU337
 1035 0082 0020     		movs	r0, #0
 1036 0084 F8BD     		pop	{r3, r4, r5, r6, r7, pc}
 1037              	.LVL117:
 1038              	.L88:
 1039              	.LBB19:
 1040              	.LBB16:
 337:libs/ssdv/ssdv.c **** 	}
 1041              		.loc 1 337 3 is_stmt 1 view .LVU338
 337:libs/ssdv/ssdv.c **** 	}
 1042              		.loc 1 337 8 is_stmt 0 view .LVU339
 1043 0086 4900     		lsls	r1, r1, #1
 1044              	.LVL118:
 337:libs/ssdv/ssdv.c **** 	}
 1045              		.loc 1 337 8 view .LVU340
 1046 0088 89B2     		uxth	r1, r1
 1047              	.LVL119:
 323:libs/ssdv/ssdv.c **** 	{
 1048              		.loc 1 323 24 is_stmt 1 view .LVU341
 323:libs/ssdv/ssdv.c **** 	{
 1049              		.loc 1 323 26 is_stmt 0 view .LVU342
 1050 008a 0132     		adds	r2, r2, #1
 1051              	.LVL120:
 323:libs/ssdv/ssdv.c **** 	{
 1052              		.loc 1 323 26 view .LVU343
 1053 008c D2B2     		uxtb	r2, r2
 1054              	.LVL121:
 323:libs/ssdv/ssdv.c **** 	{
ARM GAS  /tmp/ccKzwklo.s 			page 29


 1055              		.loc 1 323 26 view .LVU344
 1056 008e E0E7     		b	.L76
 1057              	.LVL122:
 1058              	.L87:
 323:libs/ssdv/ssdv.c **** 	{
 1059              		.loc 1 323 26 view .LVU345
 1060              	.LBE16:
 1061              	.LBE19:
 407:libs/ssdv/ssdv.c **** 	
 1062              		.loc 1 407 10 view .LVU346
 1063 0090 0022     		movs	r2, #0
 1064              	.LVL123:
 405:libs/ssdv/ssdv.c **** 	int intbits;
 1065              		.loc 1 405 11 view .LVU347
 1066 0092 1146     		mov	r1, r2
 1067              	.LVL124:
 405:libs/ssdv/ssdv.c **** 	int intbits;
 1068              		.loc 1 405 11 view .LVU348
 1069 0094 F1E7     		b	.L78
 1070              	.LVL125:
 1071              	.L90:
 413:libs/ssdv/ssdv.c **** 	
 1072              		.loc 1 413 13 is_stmt 1 discriminator 1 view .LVU349
 1073 0096 2246     		mov	r2, r4
 1074 0098 A9B2     		uxth	r1, r5
 1075 009a 3046     		mov	r0, r6
 1076 009c FFF7FEFF 		bl	ssdv_outbits
 1077              	.LVL126:
 1078 00a0 EFE7     		b	.L81
 1079              		.cfi_endproc
 1080              	.LFE15:
 1082              		.section	.text.ssdv_process,"ax",%progbits
 1083              		.align	1
 1084              		.syntax unified
 1085              		.thumb
 1086              		.thumb_func
 1087              		.fpu softvfp
 1089              	ssdv_process:
 1090              	.LVL127:
 1091              	.LFB16:
 417:libs/ssdv/ssdv.c **** 
 418:libs/ssdv/ssdv.c **** static char ssdv_process(ssdv_t *s)
 419:libs/ssdv/ssdv.c **** {
 1092              		.loc 1 419 1 view -0
 1093              		.cfi_startproc
 1094              		@ args = 0, pretend = 0, frame = 0
 1095              		@ frame_needed = 0, uses_anonymous_args = 0
 1096              		.loc 1 419 1 is_stmt 0 view .LVU351
 1097 0000 2DE9F041 		push	{r4, r5, r6, r7, r8, lr}
 1098              	.LCFI7:
 1099              		.cfi_def_cfa_offset 24
 1100              		.cfi_offset 4, -24
 1101              		.cfi_offset 5, -20
 1102              		.cfi_offset 6, -16
 1103              		.cfi_offset 7, -12
 1104              		.cfi_offset 8, -8
 1105              		.cfi_offset 14, -4
ARM GAS  /tmp/ccKzwklo.s 			page 30


 1106 0004 0446     		mov	r4, r0
 420:libs/ssdv/ssdv.c **** 	if(s->state == S_HUFF)
 1107              		.loc 1 420 2 is_stmt 1 view .LVU352
 1108              		.loc 1 420 6 is_stmt 0 view .LVU353
 1109 0006 90F84930 		ldrb	r3, [r0, #73]	@ zero_extendqisi2
 1110              		.loc 1 420 4 view .LVU354
 1111 000a 032B     		cmp	r3, #3
 1112 000c 32D0     		beq	.L143
 421:libs/ssdv/ssdv.c **** 	{
 422:libs/ssdv/ssdv.c **** 		uint8_t symbol, width;
 423:libs/ssdv/ssdv.c **** 		int r;
 424:libs/ssdv/ssdv.c **** 		
 425:libs/ssdv/ssdv.c **** 		if(s->mcupart == 0 && s->acpart == 0 && s->next_reset_mcu > s->reset_mcu)
 426:libs/ssdv/ssdv.c **** 		{
 427:libs/ssdv/ssdv.c **** 			s->reset_mcu = s->next_reset_mcu;
 428:libs/ssdv/ssdv.c **** 		}
 429:libs/ssdv/ssdv.c **** 		
 430:libs/ssdv/ssdv.c **** 		/* Lookup the code, return if error or not enough bits yet */
 431:libs/ssdv/ssdv.c **** 		if((r = jpeg_dht_lookup(s, &symbol, &width)) != SSDV_OK)
 432:libs/ssdv/ssdv.c **** 		{
 433:libs/ssdv/ssdv.c **** 			return(r);
 434:libs/ssdv/ssdv.c **** 		}
 435:libs/ssdv/ssdv.c **** 		
 436:libs/ssdv/ssdv.c **** 		if(s->acpart == 0) /* DC */
 437:libs/ssdv/ssdv.c **** 		{
 438:libs/ssdv/ssdv.c **** 			if(symbol == 0x00)
 439:libs/ssdv/ssdv.c **** 			{
 440:libs/ssdv/ssdv.c **** 				/* No change in DC from last block */
 441:libs/ssdv/ssdv.c **** 				if(s->reset_mcu == s->mcu_id && (s->mcupart == 0 || s->mcupart >= s->ycparts))
 442:libs/ssdv/ssdv.c **** 				{
 443:libs/ssdv/ssdv.c **** 					if(s->mode == S_ENCODING)
 444:libs/ssdv/ssdv.c **** 					{
 445:libs/ssdv/ssdv.c **** 						ssdv_out_jpeg_int(s, 0, s->adc[s->component]);
 446:libs/ssdv/ssdv.c **** 					}
 447:libs/ssdv/ssdv.c **** 					else
 448:libs/ssdv/ssdv.c **** 					{
 449:libs/ssdv/ssdv.c **** 						ssdv_out_jpeg_int(s, 0, 0 - s->dc[s->component]);
 450:libs/ssdv/ssdv.c **** 						s->dc[s->component] = 0;
 451:libs/ssdv/ssdv.c **** 					}
 452:libs/ssdv/ssdv.c **** 				}
 453:libs/ssdv/ssdv.c **** 				else ssdv_out_jpeg_int(s, 0, 0);
 454:libs/ssdv/ssdv.c **** 				
 455:libs/ssdv/ssdv.c **** 				/* skip to the next AC part immediately */
 456:libs/ssdv/ssdv.c **** 				s->acpart++;
 457:libs/ssdv/ssdv.c **** 			}
 458:libs/ssdv/ssdv.c **** 			else
 459:libs/ssdv/ssdv.c **** 			{
 460:libs/ssdv/ssdv.c **** 				/* DC value follows, 'symbol' bits wide */
 461:libs/ssdv/ssdv.c **** 				s->state = S_INT;
 462:libs/ssdv/ssdv.c **** 				s->needbits = symbol;
 463:libs/ssdv/ssdv.c **** 			}
 464:libs/ssdv/ssdv.c **** 		}
 465:libs/ssdv/ssdv.c **** 		else /* AC */
 466:libs/ssdv/ssdv.c **** 		{
 467:libs/ssdv/ssdv.c **** 			s->acrle = 0;
 468:libs/ssdv/ssdv.c **** 			if(symbol == 0x00)
 469:libs/ssdv/ssdv.c **** 			{
ARM GAS  /tmp/ccKzwklo.s 			page 31


 470:libs/ssdv/ssdv.c **** 				/* EOB -- all remaining AC parts are zero */
 471:libs/ssdv/ssdv.c **** 				ssdv_out_jpeg_int(s, 0, 0);
 472:libs/ssdv/ssdv.c **** 				s->acpart = 64;
 473:libs/ssdv/ssdv.c **** 			}
 474:libs/ssdv/ssdv.c **** 			else if(symbol == 0xF0)
 475:libs/ssdv/ssdv.c **** 			{
 476:libs/ssdv/ssdv.c **** 				/* The next 16 AC parts are zero */
 477:libs/ssdv/ssdv.c **** 				ssdv_out_jpeg_int(s, 15, 0);
 478:libs/ssdv/ssdv.c **** 				s->acpart += 16;
 479:libs/ssdv/ssdv.c **** 			}
 480:libs/ssdv/ssdv.c **** 			else
 481:libs/ssdv/ssdv.c **** 			{
 482:libs/ssdv/ssdv.c **** 				/* Next bits are an integer value */
 483:libs/ssdv/ssdv.c **** 				s->state = S_INT;
 484:libs/ssdv/ssdv.c **** 				s->acrle = symbol >> 4;
 485:libs/ssdv/ssdv.c **** 				s->acpart += s->acrle;
 486:libs/ssdv/ssdv.c **** 				s->needbits = symbol & 0x0F;
 487:libs/ssdv/ssdv.c **** 			}
 488:libs/ssdv/ssdv.c **** 		}
 489:libs/ssdv/ssdv.c **** 		
 490:libs/ssdv/ssdv.c **** 		/* Clear processed bits */
 491:libs/ssdv/ssdv.c **** 		s->worklen -= width;
 492:libs/ssdv/ssdv.c **** 		s->workbits &= (1 << s->worklen) - 1;
 493:libs/ssdv/ssdv.c **** 	}
 494:libs/ssdv/ssdv.c **** 	else if(s->state == S_INT)
 1113              		.loc 1 494 7 is_stmt 1 view .LVU355
 1114              		.loc 1 494 9 is_stmt 0 view .LVU356
 1115 000e 042B     		cmp	r3, #4
 1116 0010 00F0EB80 		beq	.L144
 1117              	.LVL128:
 1118              	.L110:
 495:libs/ssdv/ssdv.c **** 	{
 496:libs/ssdv/ssdv.c **** 		int i;
 497:libs/ssdv/ssdv.c **** 		
 498:libs/ssdv/ssdv.c **** 		/* Not enough bits yet? */
 499:libs/ssdv/ssdv.c **** 		if(s->worklen < s->needbits) return(SSDV_FEED_ME);
 500:libs/ssdv/ssdv.c **** 		
 501:libs/ssdv/ssdv.c **** 		/* Decode the integer */
 502:libs/ssdv/ssdv.c **** 		i = jpeg_int(s->workbits >> (s->worklen - s->needbits), s->needbits);
 503:libs/ssdv/ssdv.c **** 		
 504:libs/ssdv/ssdv.c **** 		if(s->acpart == 0) /* DC */
 505:libs/ssdv/ssdv.c **** 		{
 506:libs/ssdv/ssdv.c **** 			if(s->reset_mcu == s->mcu_id && (s->mcupart == 0 || s->mcupart >= s->ycparts))
 507:libs/ssdv/ssdv.c **** 			{
 508:libs/ssdv/ssdv.c **** 				if(s->mode == S_ENCODING)
 509:libs/ssdv/ssdv.c **** 				{
 510:libs/ssdv/ssdv.c **** 					/* Output absolute DC value */
 511:libs/ssdv/ssdv.c **** 					s->dc[s->component] += UADJ(i);
 512:libs/ssdv/ssdv.c **** 					s->adc[s->component] = AADJ(s->dc[s->component]);
 513:libs/ssdv/ssdv.c **** 					ssdv_out_jpeg_int(s, 0, s->adc[s->component]);
 514:libs/ssdv/ssdv.c **** 				}
 515:libs/ssdv/ssdv.c **** 				else
 516:libs/ssdv/ssdv.c **** 				{
 517:libs/ssdv/ssdv.c **** 					/* Output relative DC value */
 518:libs/ssdv/ssdv.c **** 					ssdv_out_jpeg_int(s, 0, i - s->dc[s->component]);
 519:libs/ssdv/ssdv.c **** 					s->dc[s->component] = i;
 520:libs/ssdv/ssdv.c **** 				}
ARM GAS  /tmp/ccKzwklo.s 			page 32


 521:libs/ssdv/ssdv.c **** 			}
 522:libs/ssdv/ssdv.c **** 			else
 523:libs/ssdv/ssdv.c **** 			{
 524:libs/ssdv/ssdv.c **** 				if(s->mode == S_DECODING)
 525:libs/ssdv/ssdv.c **** 				{
 526:libs/ssdv/ssdv.c **** 					s->dc[s->component] += UADJ(i);
 527:libs/ssdv/ssdv.c **** 					ssdv_out_jpeg_int(s, 0, i);
 528:libs/ssdv/ssdv.c **** 				}
 529:libs/ssdv/ssdv.c **** 				else
 530:libs/ssdv/ssdv.c **** 				{
 531:libs/ssdv/ssdv.c **** 					/* Output relative DC value */
 532:libs/ssdv/ssdv.c **** 					s->dc[s->component] += UADJ(i);
 533:libs/ssdv/ssdv.c **** 					
 534:libs/ssdv/ssdv.c **** 					/* Calculate closest adjusted DC value */
 535:libs/ssdv/ssdv.c **** 					i = AADJ(s->dc[s->component]);
 536:libs/ssdv/ssdv.c **** 					ssdv_out_jpeg_int(s, 0, i - s->adc[s->component]);
 537:libs/ssdv/ssdv.c **** 					s->adc[s->component] = i;
 538:libs/ssdv/ssdv.c **** 				}
 539:libs/ssdv/ssdv.c **** 			}
 540:libs/ssdv/ssdv.c **** 		}
 541:libs/ssdv/ssdv.c **** 		else /* AC */
 542:libs/ssdv/ssdv.c **** 		{
 543:libs/ssdv/ssdv.c **** 			if((i = BADJ(i)))
 544:libs/ssdv/ssdv.c **** 			{
 545:libs/ssdv/ssdv.c **** 				s->accrle += s->acrle;
 546:libs/ssdv/ssdv.c **** 				while(s->accrle >= 16)
 547:libs/ssdv/ssdv.c **** 				{
 548:libs/ssdv/ssdv.c **** 					ssdv_out_jpeg_int(s, 15, 0);
 549:libs/ssdv/ssdv.c **** 					s->accrle -= 16;
 550:libs/ssdv/ssdv.c **** 				}
 551:libs/ssdv/ssdv.c **** 				ssdv_out_jpeg_int(s, s->accrle, i);
 552:libs/ssdv/ssdv.c **** 				s->accrle = 0;
 553:libs/ssdv/ssdv.c **** 			}
 554:libs/ssdv/ssdv.c **** 			else
 555:libs/ssdv/ssdv.c **** 			{
 556:libs/ssdv/ssdv.c **** 				/* AC value got reduced to 0 in the DQT conversion */
 557:libs/ssdv/ssdv.c **** 				if(s->acpart >= 63)
 558:libs/ssdv/ssdv.c **** 				{
 559:libs/ssdv/ssdv.c **** 					ssdv_out_jpeg_int(s, 0, 0);
 560:libs/ssdv/ssdv.c **** 					s->accrle = 0;
 561:libs/ssdv/ssdv.c **** 				}
 562:libs/ssdv/ssdv.c **** 				else s->accrle += s->acrle + 1;
 563:libs/ssdv/ssdv.c **** 			}
 564:libs/ssdv/ssdv.c **** 		}
 565:libs/ssdv/ssdv.c **** 		
 566:libs/ssdv/ssdv.c **** 		/* Next AC part to expect */
 567:libs/ssdv/ssdv.c **** 		s->acpart++;
 568:libs/ssdv/ssdv.c **** 		
 569:libs/ssdv/ssdv.c **** 		/* Next bits are a huffman code */
 570:libs/ssdv/ssdv.c **** 		s->state = S_HUFF;
 571:libs/ssdv/ssdv.c **** 		
 572:libs/ssdv/ssdv.c **** 		/* Clear processed bits */
 573:libs/ssdv/ssdv.c **** 		s->worklen -= s->needbits;
 574:libs/ssdv/ssdv.c **** 		s->workbits &= (1 << s->worklen) - 1;
 575:libs/ssdv/ssdv.c **** 	}
 576:libs/ssdv/ssdv.c **** 	
 577:libs/ssdv/ssdv.c **** 	if(s->acpart >= 64)
ARM GAS  /tmp/ccKzwklo.s 			page 33


 1119              		.loc 1 577 2 is_stmt 1 view .LVU357
 1120              		.loc 1 577 6 is_stmt 0 view .LVU358
 1121 0014 94F85A30 		ldrb	r3, [r4, #90]	@ zero_extendqisi2
 1122              		.loc 1 577 4 view .LVU359
 1123 0018 3F2B     		cmp	r3, #63
 1124 001a 24D9     		bls	.L128
 578:libs/ssdv/ssdv.c **** 	{
 579:libs/ssdv/ssdv.c **** 		s->mcupart++;
 1125              		.loc 1 579 3 is_stmt 1 view .LVU360
 1126              		.loc 1 579 4 is_stmt 0 view .LVU361
 1127 001c 94F85930 		ldrb	r3, [r4, #89]	@ zero_extendqisi2
 1128              		.loc 1 579 13 view .LVU362
 1129 0020 0133     		adds	r3, r3, #1
 1130 0022 DBB2     		uxtb	r3, r3
 1131 0024 84F85930 		strb	r3, [r4, #89]
 580:libs/ssdv/ssdv.c **** 		
 581:libs/ssdv/ssdv.c **** 		if(s->greyscale && s->mcupart == s->ycparts)
 1132              		.loc 1 581 3 is_stmt 1 view .LVU363
 1133              		.loc 1 581 7 is_stmt 0 view .LVU364
 1134 0028 94F85620 		ldrb	r2, [r4, #86]	@ zero_extendqisi2
 1135              		.loc 1 581 5 view .LVU365
 1136 002c 22B1     		cbz	r2, .L129
 1137              		.loc 1 581 37 discriminator 1 view .LVU366
 1138 002e 94F85820 		ldrb	r2, [r4, #88]	@ zero_extendqisi2
 1139              		.loc 1 581 19 discriminator 1 view .LVU367
 1140 0032 9342     		cmp	r3, r2
 1141 0034 00F00682 		beq	.L130
 1142              	.L129:
 582:libs/ssdv/ssdv.c **** 		{
 583:libs/ssdv/ssdv.c **** 			/* For greyscale input images, pad the 2x1 MCUs with empty colour blocks */
 584:libs/ssdv/ssdv.c **** 			for(; s->mcupart < s->ycparts + 2; s->mcupart++)
 585:libs/ssdv/ssdv.c **** 			{
 586:libs/ssdv/ssdv.c **** 				s->component = s->mcupart - s->ycparts + 1;
 587:libs/ssdv/ssdv.c **** 				s->acpart = 0; ssdv_out_jpeg_int(s, 0, 0); /* DC */
 588:libs/ssdv/ssdv.c **** 				s->acpart = 1; ssdv_out_jpeg_int(s, 0, 0); /* AC */
 589:libs/ssdv/ssdv.c **** 			}
 590:libs/ssdv/ssdv.c **** 		}
 591:libs/ssdv/ssdv.c **** 		
 592:libs/ssdv/ssdv.c **** 		/* Reached the end of this MCU */
 593:libs/ssdv/ssdv.c **** 		if(s->mcupart == s->ycparts + 2)
 1143              		.loc 1 593 3 is_stmt 1 view .LVU368
 1144              		.loc 1 593 7 is_stmt 0 view .LVU369
 1145 0038 94F85920 		ldrb	r2, [r4, #89]	@ zero_extendqisi2
 1146              		.loc 1 593 21 view .LVU370
 1147 003c 94F85830 		ldrb	r3, [r4, #88]	@ zero_extendqisi2
 1148              		.loc 1 593 31 view .LVU371
 1149 0040 0233     		adds	r3, r3, #2
 1150              		.loc 1 593 5 view .LVU372
 1151 0042 9A42     		cmp	r2, r3
 1152 0044 00F02182 		beq	.L145
 1153              	.L132:
 594:libs/ssdv/ssdv.c **** 		{
 595:libs/ssdv/ssdv.c **** 			s->mcupart = 0;
 596:libs/ssdv/ssdv.c **** 			s->mcu_id++;
 597:libs/ssdv/ssdv.c **** 			
 598:libs/ssdv/ssdv.c **** 			/* Test for the end of image */
 599:libs/ssdv/ssdv.c **** 			if(s->mcu_id >= s->mcu_count)
ARM GAS  /tmp/ccKzwklo.s 			page 34


 600:libs/ssdv/ssdv.c **** 			{
 601:libs/ssdv/ssdv.c **** 				/* Flush any remaining bits */
 602:libs/ssdv/ssdv.c **** 				ssdv_outbits_sync(s);
 603:libs/ssdv/ssdv.c **** 				return(SSDV_EOI);
 604:libs/ssdv/ssdv.c **** 			}
 605:libs/ssdv/ssdv.c **** 			
 606:libs/ssdv/ssdv.c **** 			/* Set the packet MCU marker - encoder only */
 607:libs/ssdv/ssdv.c **** 			if(s->mode == S_ENCODING && s->packet_mcu_id == 0xFFFF)
 608:libs/ssdv/ssdv.c **** 			{
 609:libs/ssdv/ssdv.c **** 				/* The first MCU of each packet should be byte aligned */
 610:libs/ssdv/ssdv.c **** 				ssdv_outbits_sync(s);
 611:libs/ssdv/ssdv.c **** 				
 612:libs/ssdv/ssdv.c **** 				s->next_reset_mcu = s->mcu_id;
 613:libs/ssdv/ssdv.c **** 				s->packet_mcu_id = s->mcu_id;
 614:libs/ssdv/ssdv.c **** 				s->packet_mcu_offset = s->pkt_size_payload - s->out_len + ((s->outlen + 7) / 8);
 615:libs/ssdv/ssdv.c **** 			}
 616:libs/ssdv/ssdv.c **** 			
 617:libs/ssdv/ssdv.c **** 			/* Test for a reset marker */
 618:libs/ssdv/ssdv.c **** 			if(s->dri > 0 && s->mcu_id > 0 && s->mcu_id % s->dri == 0)
 619:libs/ssdv/ssdv.c **** 			{
 620:libs/ssdv/ssdv.c **** 				s->state = S_MARKER;
 621:libs/ssdv/ssdv.c **** 				return(SSDV_FEED_ME);
 622:libs/ssdv/ssdv.c **** 			}
 623:libs/ssdv/ssdv.c **** 		}
 624:libs/ssdv/ssdv.c **** 		
 625:libs/ssdv/ssdv.c **** 		if(s->mcupart < s->ycparts) s->component = 0;
 1154              		.loc 1 625 3 is_stmt 1 view .LVU373
 1155              		.loc 1 625 7 is_stmt 0 view .LVU374
 1156 0048 94F85930 		ldrb	r3, [r4, #89]	@ zero_extendqisi2
 1157              		.loc 1 625 20 view .LVU375
 1158 004c 94F85820 		ldrb	r2, [r4, #88]	@ zero_extendqisi2
 1159              		.loc 1 625 5 view .LVU376
 1160 0050 9342     		cmp	r3, r2
 1161 0052 80F05882 		bcs	.L136
 1162              		.loc 1 625 31 is_stmt 1 discriminator 1 view .LVU377
 1163              		.loc 1 625 44 is_stmt 0 discriminator 1 view .LVU378
 1164 0056 0023     		movs	r3, #0
 1165 0058 84F85730 		strb	r3, [r4, #87]
 1166              	.L137:
 626:libs/ssdv/ssdv.c **** 		else s->component = s->mcupart - s->ycparts + 1;
 627:libs/ssdv/ssdv.c **** 		
 628:libs/ssdv/ssdv.c **** 		s->acpart = 0;
 1167              		.loc 1 628 3 is_stmt 1 view .LVU379
 1168              		.loc 1 628 13 is_stmt 0 view .LVU380
 1169 005c 0023     		movs	r3, #0
 1170 005e 84F85A30 		strb	r3, [r4, #90]
 629:libs/ssdv/ssdv.c **** 		s->accrle = 0;
 1171              		.loc 1 629 3 is_stmt 1 view .LVU381
 1172              		.loc 1 629 13 is_stmt 0 view .LVU382
 1173 0062 84F87530 		strb	r3, [r4, #117]
 1174              	.L128:
 630:libs/ssdv/ssdv.c **** 	}
 631:libs/ssdv/ssdv.c **** 	
 632:libs/ssdv/ssdv.c **** 	if(s->out_len == 0) return(SSDV_BUFFER_FULL);
 1175              		.loc 1 632 2 is_stmt 1 view .LVU383
 1176              		.loc 1 632 6 is_stmt 0 view .LVU384
 1177 0066 E36B     		ldr	r3, [r4, #60]
ARM GAS  /tmp/ccKzwklo.s 			page 35


 1178              		.loc 1 632 4 view .LVU385
 1179 0068 002B     		cmp	r3, #0
 1180 006a 00F05482 		beq	.L141
 633:libs/ssdv/ssdv.c **** 	
 634:libs/ssdv/ssdv.c **** 	return(SSDV_OK);
 1181              		.loc 1 634 8 view .LVU386
 1182 006e 0020     		movs	r0, #0
 1183              	.L100:
 635:libs/ssdv/ssdv.c **** }
 1184              		.loc 1 635 1 view .LVU387
 1185 0070 BDE8F081 		pop	{r4, r5, r6, r7, r8, pc}
 1186              	.LVL129:
 1187              	.L143:
 1188              		.loc 1 635 1 view .LVU388
 1189 0074 0026     		movs	r6, #0
 1190 0076 B646     		mov	lr, r6
 1191              	.LBB26:
 422:libs/ssdv/ssdv.c **** 		int r;
 1192              		.loc 1 422 3 is_stmt 1 view .LVU389
 423:libs/ssdv/ssdv.c **** 		
 1193              		.loc 1 423 3 view .LVU390
 425:libs/ssdv/ssdv.c **** 		{
 1194              		.loc 1 425 3 view .LVU391
 425:libs/ssdv/ssdv.c **** 		{
 1195              		.loc 1 425 22 is_stmt 0 view .LVU392
 1196 0078 836D     		ldr	r3, [r0, #88]
 1197 007a 23F07F43 		bic	r3, r3, #-16777216
 1198 007e 23F0FF03 		bic	r3, r3, #255
 425:libs/ssdv/ssdv.c **** 		{
 1199              		.loc 1 425 5 view .LVU393
 1200 0082 2BB9     		cbnz	r3, .L93
 425:libs/ssdv/ssdv.c **** 		{
 1201              		.loc 1 425 44 discriminator 1 view .LVU394
 1202 0084 D0F88030 		ldr	r3, [r0, #128]
 425:libs/ssdv/ssdv.c **** 		{
 1203              		.loc 1 425 64 discriminator 1 view .LVU395
 1204 0088 C26F     		ldr	r2, [r0, #124]
 425:libs/ssdv/ssdv.c **** 		{
 1205              		.loc 1 425 40 discriminator 1 view .LVU396
 1206 008a 9342     		cmp	r3, r2
 1207 008c 00D9     		bls	.L93
 427:libs/ssdv/ssdv.c **** 		}
 1208              		.loc 1 427 4 is_stmt 1 view .LVU397
 427:libs/ssdv/ssdv.c **** 		}
 1209              		.loc 1 427 17 is_stmt 0 view .LVU398
 1210 008e C367     		str	r3, [r0, #124]
 1211              	.L93:
 431:libs/ssdv/ssdv.c **** 		{
 1212              		.loc 1 431 3 is_stmt 1 view .LVU399
 1213              	.LVL130:
 1214              	.LBB27:
 1215              	.LBI27:
 279:libs/ssdv/ssdv.c **** {
 1216              		.loc 1 279 20 view .LVU400
 1217              	.LBB28:
 281:libs/ssdv/ssdv.c **** 	uint8_t cw, n;
 1218              		.loc 1 281 2 view .LVU401
ARM GAS  /tmp/ccKzwklo.s 			page 36


 282:libs/ssdv/ssdv.c **** 	uint8_t *dht, *ss;
 1219              		.loc 1 282 2 view .LVU402
 283:libs/ssdv/ssdv.c **** 	
 1220              		.loc 1 283 2 view .LVU403
 286:libs/ssdv/ssdv.c **** 	ss = &dht[17];
 1221              		.loc 1 286 2 view .LVU404
 286:libs/ssdv/ssdv.c **** 	ss = &dht[17];
 1222              		.loc 1 286 8 is_stmt 0 view .LVU405
 1223 0090 94F85A30 		ldrb	r3, [r4, #90]	@ zero_extendqisi2
 1224 0094 003B     		subs	r3, r3, #0
 1225 0096 18BF     		it	ne
 1226 0098 0123     		movne	r3, #1
 1227 009a 94F85720 		ldrb	r2, [r4, #87]	@ zero_extendqisi2
 286:libs/ssdv/ssdv.c **** 	ss = &dht[17];
 1228              		.loc 1 286 6 view .LVU406
 1229 009e 5B00     		lsls	r3, r3, #1
 1230 00a0 002A     		cmp	r2, #0
 1231 00a2 18BF     		it	ne
 1232 00a4 0133     		addne	r3, r3, #1
 1233 00a6 AE33     		adds	r3, r3, #174
 1234 00a8 54F82370 		ldr	r7, [r4, r3, lsl #2]
 1235              	.LVL131:
 287:libs/ssdv/ssdv.c **** 	
 1236              		.loc 1 287 2 is_stmt 1 view .LVU407
 287:libs/ssdv/ssdv.c **** 	
 1237              		.loc 1 287 5 is_stmt 0 view .LVU408
 1238 00ac 07F11100 		add	r0, r7, #17
 1239              	.LVL132:
 289:libs/ssdv/ssdv.c **** 	{
 1240              		.loc 1 289 2 is_stmt 1 view .LVU409
 289:libs/ssdv/ssdv.c **** 	{
 1241              		.loc 1 289 9 is_stmt 0 view .LVU410
 1242 00b0 0125     		movs	r5, #1
 281:libs/ssdv/ssdv.c **** 	uint8_t cw, n;
 1243              		.loc 1 281 11 view .LVU411
 1244 00b2 0023     		movs	r3, #0
 1245              	.LVL133:
 1246              	.L94:
 289:libs/ssdv/ssdv.c **** 	{
 1247              		.loc 1 289 14 is_stmt 1 view .LVU412
 289:libs/ssdv/ssdv.c **** 	{
 1248              		.loc 1 289 2 is_stmt 0 view .LVU413
 1249 00b4 102D     		cmp	r5, #16
 1250 00b6 39D8     		bhi	.L146
 292:libs/ssdv/ssdv.c **** 		
 1251              		.loc 1 292 3 is_stmt 1 view .LVU414
 292:libs/ssdv/ssdv.c **** 		
 1252              		.loc 1 292 12 is_stmt 0 view .LVU415
 1253 00b8 94F83080 		ldrb	r8, [r4, #48]	@ zero_extendqisi2
 292:libs/ssdv/ssdv.c **** 		
 1254              		.loc 1 292 5 view .LVU416
 1255 00bc A845     		cmp	r8, r5
 1256 00be 38D3     		bcc	.L138
 295:libs/ssdv/ssdv.c **** 		{
 1257              		.loc 1 295 3 is_stmt 1 view .LVU417
 295:libs/ssdv/ssdv.c **** 		{
 1258              		.loc 1 295 9 is_stmt 0 view .LVU418
ARM GAS  /tmp/ccKzwklo.s 			page 37


 1259 00c0 7A5D     		ldrb	r2, [r7, r5]	@ zero_extendqisi2
 1260              	.LVL134:
 1261              	.L96:
 295:libs/ssdv/ssdv.c **** 		{
 1262              		.loc 1 295 20 is_stmt 1 view .LVU419
 295:libs/ssdv/ssdv.c **** 		{
 1263              		.loc 1 295 3 is_stmt 0 view .LVU420
 1264 00c2 72B3     		cbz	r2, .L147
 297:libs/ssdv/ssdv.c **** 			{
 1265              		.loc 1 297 4 is_stmt 1 view .LVU421
 297:libs/ssdv/ssdv.c **** 			{
 1266              		.loc 1 297 8 is_stmt 0 view .LVU422
 1267 00c4 E16A     		ldr	r1, [r4, #44]
 297:libs/ssdv/ssdv.c **** 			{
 1268              		.loc 1 297 34 view .LVU423
 1269 00c6 A8EB050C 		sub	ip, r8, r5
 297:libs/ssdv/ssdv.c **** 			{
 1270              		.loc 1 297 19 view .LVU424
 1271 00ca 21FA0CF1 		lsr	r1, r1, ip
 297:libs/ssdv/ssdv.c **** 			{
 1272              		.loc 1 297 6 view .LVU425
 1273 00ce 9942     		cmp	r1, r3
 1274 00d0 05D0     		beq	.L148
 304:libs/ssdv/ssdv.c **** 		}
 1275              		.loc 1 304 4 is_stmt 1 view .LVU426
 304:libs/ssdv/ssdv.c **** 		}
 1276              		.loc 1 304 6 is_stmt 0 view .LVU427
 1277 00d2 0130     		adds	r0, r0, #1
 1278              	.LVL135:
 304:libs/ssdv/ssdv.c **** 		}
 1279              		.loc 1 304 10 is_stmt 1 view .LVU428
 304:libs/ssdv/ssdv.c **** 		}
 1280              		.loc 1 304 14 is_stmt 0 view .LVU429
 1281 00d4 0133     		adds	r3, r3, #1
 1282              	.LVL136:
 304:libs/ssdv/ssdv.c **** 		}
 1283              		.loc 1 304 14 view .LVU430
 1284 00d6 9BB2     		uxth	r3, r3
 1285              	.LVL137:
 295:libs/ssdv/ssdv.c **** 		{
 1286              		.loc 1 295 27 is_stmt 1 view .LVU431
 295:libs/ssdv/ssdv.c **** 		{
 1287              		.loc 1 295 28 is_stmt 0 view .LVU432
 1288 00d8 013A     		subs	r2, r2, #1
 1289              	.LVL138:
 295:libs/ssdv/ssdv.c **** 		{
 1290              		.loc 1 295 28 view .LVU433
 1291 00da D2B2     		uxtb	r2, r2
 1292              	.LVL139:
 295:libs/ssdv/ssdv.c **** 		{
 1293              		.loc 1 295 28 view .LVU434
 1294 00dc F1E7     		b	.L96
 1295              	.L148:
 300:libs/ssdv/ssdv.c **** 				*width = cw;
 1296              		.loc 1 300 5 is_stmt 1 view .LVU435
 300:libs/ssdv/ssdv.c **** 				*width = cw;
 1297              		.loc 1 300 15 is_stmt 0 view .LVU436
ARM GAS  /tmp/ccKzwklo.s 			page 38


 1298 00de 0678     		ldrb	r6, [r0]	@ zero_extendqisi2
 1299              	.LVL140:
 301:libs/ssdv/ssdv.c **** 				return(SSDV_OK);
 1300              		.loc 1 301 5 is_stmt 1 view .LVU437
 302:libs/ssdv/ssdv.c **** 			}
 1301              		.loc 1 302 5 view .LVU438
 302:libs/ssdv/ssdv.c **** 			}
 1302              		.loc 1 302 11 is_stmt 0 view .LVU439
 1303 00e0 0020     		movs	r0, #0
 1304              	.LVL141:
 1305              	.L95:
 302:libs/ssdv/ssdv.c **** 			}
 1306              		.loc 1 302 11 view .LVU440
 1307              	.LBE28:
 1308              	.LBE27:
 431:libs/ssdv/ssdv.c **** 		{
 1309              		.loc 1 431 5 view .LVU441
 1310 00e2 0028     		cmp	r0, #0
 1311 00e4 C4D1     		bne	.L100
 436:libs/ssdv/ssdv.c **** 		{
 1312              		.loc 1 436 3 is_stmt 1 view .LVU442
 436:libs/ssdv/ssdv.c **** 		{
 1313              		.loc 1 436 7 is_stmt 0 view .LVU443
 1314 00e6 94F85A30 		ldrb	r3, [r4, #90]	@ zero_extendqisi2
 436:libs/ssdv/ssdv.c **** 		{
 1315              		.loc 1 436 5 view .LVU444
 1316 00ea 002B     		cmp	r3, #0
 1317 00ec 48D1     		bne	.L101
 438:libs/ssdv/ssdv.c **** 			{
 1318              		.loc 1 438 4 is_stmt 1 view .LVU445
 438:libs/ssdv/ssdv.c **** 			{
 1319              		.loc 1 438 6 is_stmt 0 view .LVU446
 1320 00ee 002E     		cmp	r6, #0
 1321 00f0 40D1     		bne	.L102
 441:libs/ssdv/ssdv.c **** 				{
 1322              		.loc 1 441 5 is_stmt 1 view .LVU447
 441:libs/ssdv/ssdv.c **** 				{
 1323              		.loc 1 441 9 is_stmt 0 view .LVU448
 1324 00f2 E26F     		ldr	r2, [r4, #124]
 441:libs/ssdv/ssdv.c **** 				{
 1325              		.loc 1 441 25 view .LVU449
 1326 00f4 E38A     		ldrh	r3, [r4, #22]
 441:libs/ssdv/ssdv.c **** 				{
 1327              		.loc 1 441 7 view .LVU450
 1328 00f6 9A42     		cmp	r2, r3
 1329 00f8 31D1     		bne	.L103
 441:libs/ssdv/ssdv.c **** 				{
 1330              		.loc 1 441 39 discriminator 1 view .LVU451
 1331 00fa 94F85930 		ldrb	r3, [r4, #89]	@ zero_extendqisi2
 441:libs/ssdv/ssdv.c **** 				{
 1332              		.loc 1 441 34 discriminator 1 view .LVU452
 1333 00fe 1BB1     		cbz	r3, .L104
 441:libs/ssdv/ssdv.c **** 				{
 1334              		.loc 1 441 72 discriminator 2 view .LVU453
 1335 0100 94F85820 		ldrb	r2, [r4, #88]	@ zero_extendqisi2
 441:libs/ssdv/ssdv.c **** 				{
 1336              		.loc 1 441 54 discriminator 2 view .LVU454
ARM GAS  /tmp/ccKzwklo.s 			page 39


 1337 0104 9342     		cmp	r3, r2
 1338 0106 2AD3     		bcc	.L103
 1339              	.L104:
 443:libs/ssdv/ssdv.c **** 					{
 1340              		.loc 1 443 6 is_stmt 1 view .LVU455
 443:libs/ssdv/ssdv.c **** 					{
 1341              		.loc 1 443 10 is_stmt 0 view .LVU456
 1342 0108 94F87830 		ldrb	r3, [r4, #120]	@ zero_extendqisi2
 443:libs/ssdv/ssdv.c **** 					{
 1343              		.loc 1 443 8 view .LVU457
 1344 010c A3B9     		cbnz	r3, .L105
 445:libs/ssdv/ssdv.c **** 					}
 1345              		.loc 1 445 7 is_stmt 1 view .LVU458
 445:libs/ssdv/ssdv.c **** 					}
 1346              		.loc 1 445 39 is_stmt 0 view .LVU459
 1347 010e 94F85730 		ldrb	r3, [r4, #87]	@ zero_extendqisi2
 445:libs/ssdv/ssdv.c **** 					}
 1348              		.loc 1 445 7 view .LVU460
 1349 0112 1A33     		adds	r3, r3, #26
 1350 0114 54F82320 		ldr	r2, [r4, r3, lsl #2]
 1351 0118 0021     		movs	r1, #0
 1352 011a 2046     		mov	r0, r4
 1353              	.LVL142:
 445:libs/ssdv/ssdv.c **** 					}
 1354              		.loc 1 445 7 view .LVU461
 1355 011c FFF7FEFF 		bl	ssdv_out_jpeg_int
 1356              	.LVL143:
 1357 0120 22E0     		b	.L106
 1358              	.LVL144:
 1359              	.L147:
 1360              	.LBB30:
 1361              	.LBB29:
 307:libs/ssdv/ssdv.c **** 	}
 1362              		.loc 1 307 3 is_stmt 1 view .LVU462
 307:libs/ssdv/ssdv.c **** 	}
 1363              		.loc 1 307 8 is_stmt 0 view .LVU463
 1364 0122 5B00     		lsls	r3, r3, #1
 1365              	.LVL145:
 307:libs/ssdv/ssdv.c **** 	}
 1366              		.loc 1 307 8 view .LVU464
 1367 0124 9BB2     		uxth	r3, r3
 1368              	.LVL146:
 289:libs/ssdv/ssdv.c **** 	{
 1369              		.loc 1 289 24 is_stmt 1 view .LVU465
 289:libs/ssdv/ssdv.c **** 	{
 1370              		.loc 1 289 26 is_stmt 0 view .LVU466
 1371 0126 0135     		adds	r5, r5, #1
 1372              	.LVL147:
 289:libs/ssdv/ssdv.c **** 	{
 1373              		.loc 1 289 26 view .LVU467
 1374 0128 EDB2     		uxtb	r5, r5
 1375              	.LVL148:
 289:libs/ssdv/ssdv.c **** 	{
 1376              		.loc 1 289 26 view .LVU468
 1377 012a C3E7     		b	.L94
 1378              	.LVL149:
 1379              	.L146:
ARM GAS  /tmp/ccKzwklo.s 			page 40


 289:libs/ssdv/ssdv.c **** 	{
 1380              		.loc 1 289 26 view .LVU469
 1381 012c 7546     		mov	r5, lr
 1382              	.LVL150:
 311:libs/ssdv/ssdv.c **** }
 1383              		.loc 1 311 8 view .LVU470
 1384 012e FF20     		movs	r0, #255
 1385              	.LVL151:
 311:libs/ssdv/ssdv.c **** }
 1386              		.loc 1 311 8 view .LVU471
 1387 0130 D7E7     		b	.L95
 1388              	.LVL152:
 1389              	.L138:
 311:libs/ssdv/ssdv.c **** }
 1390              		.loc 1 311 8 view .LVU472
 1391 0132 7546     		mov	r5, lr
 1392              	.LVL153:
 292:libs/ssdv/ssdv.c **** 		
 1393              		.loc 1 292 29 view .LVU473
 1394 0134 0120     		movs	r0, #1
 1395              	.LVL154:
 292:libs/ssdv/ssdv.c **** 		
 1396              		.loc 1 292 29 view .LVU474
 1397 0136 D4E7     		b	.L95
 1398              	.LVL155:
 1399              	.L105:
 292:libs/ssdv/ssdv.c **** 		
 1400              		.loc 1 292 29 view .LVU475
 1401              	.LBE29:
 1402              	.LBE30:
 449:libs/ssdv/ssdv.c **** 						s->dc[s->component] = 0;
 1403              		.loc 1 449 7 is_stmt 1 view .LVU476
 449:libs/ssdv/ssdv.c **** 						s->dc[s->component] = 0;
 1404              		.loc 1 449 42 is_stmt 0 view .LVU477
 1405 0138 94F85730 		ldrb	r3, [r4, #87]	@ zero_extendqisi2
 449:libs/ssdv/ssdv.c **** 						s->dc[s->component] = 0;
 1406              		.loc 1 449 40 view .LVU478
 1407 013c 1633     		adds	r3, r3, #22
 1408 013e 04EB8303 		add	r3, r4, r3, lsl #2
 1409 0142 5A68     		ldr	r2, [r3, #4]
 449:libs/ssdv/ssdv.c **** 						s->dc[s->component] = 0;
 1410              		.loc 1 449 7 view .LVU479
 1411 0144 5242     		rsbs	r2, r2, #0
 1412 0146 0021     		movs	r1, #0
 1413 0148 2046     		mov	r0, r4
 1414              	.LVL156:
 449:libs/ssdv/ssdv.c **** 						s->dc[s->component] = 0;
 1415              		.loc 1 449 7 view .LVU480
 1416 014a FFF7FEFF 		bl	ssdv_out_jpeg_int
 1417              	.LVL157:
 450:libs/ssdv/ssdv.c **** 					}
 1418              		.loc 1 450 7 is_stmt 1 view .LVU481
 450:libs/ssdv/ssdv.c **** 					}
 1419              		.loc 1 450 14 is_stmt 0 view .LVU482
 1420 014e 94F85730 		ldrb	r3, [r4, #87]	@ zero_extendqisi2
 450:libs/ssdv/ssdv.c **** 					}
 1421              		.loc 1 450 27 view .LVU483
ARM GAS  /tmp/ccKzwklo.s 			page 41


 1422 0152 1633     		adds	r3, r3, #22
 1423 0154 04EB8303 		add	r3, r4, r3, lsl #2
 1424 0158 0022     		movs	r2, #0
 1425 015a 5A60     		str	r2, [r3, #4]
 1426 015c 04E0     		b	.L106
 1427              	.LVL158:
 1428              	.L103:
 453:libs/ssdv/ssdv.c **** 				
 1429              		.loc 1 453 10 is_stmt 1 view .LVU484
 1430 015e 0022     		movs	r2, #0
 1431 0160 1146     		mov	r1, r2
 1432 0162 2046     		mov	r0, r4
 1433              	.LVL159:
 453:libs/ssdv/ssdv.c **** 				
 1434              		.loc 1 453 10 is_stmt 0 view .LVU485
 1435 0164 FFF7FEFF 		bl	ssdv_out_jpeg_int
 1436              	.LVL160:
 1437              	.L106:
 456:libs/ssdv/ssdv.c **** 			}
 1438              		.loc 1 456 5 is_stmt 1 view .LVU486
 456:libs/ssdv/ssdv.c **** 			}
 1439              		.loc 1 456 6 is_stmt 0 view .LVU487
 1440 0168 94F85A30 		ldrb	r3, [r4, #90]	@ zero_extendqisi2
 456:libs/ssdv/ssdv.c **** 			}
 1441              		.loc 1 456 14 view .LVU488
 1442 016c 0133     		adds	r3, r3, #1
 1443 016e 84F85A30 		strb	r3, [r4, #90]
 1444 0172 19E0     		b	.L107
 1445              	.LVL161:
 1446              	.L102:
 461:libs/ssdv/ssdv.c **** 				s->needbits = symbol;
 1447              		.loc 1 461 5 is_stmt 1 view .LVU489
 461:libs/ssdv/ssdv.c **** 				s->needbits = symbol;
 1448              		.loc 1 461 14 is_stmt 0 view .LVU490
 1449 0174 0423     		movs	r3, #4
 1450 0176 84F84930 		strb	r3, [r4, #73]
 462:libs/ssdv/ssdv.c **** 			}
 1451              		.loc 1 462 5 is_stmt 1 view .LVU491
 462:libs/ssdv/ssdv.c **** 			}
 1452              		.loc 1 462 17 is_stmt 0 view .LVU492
 1453 017a 84F88460 		strb	r6, [r4, #132]
 1454 017e 13E0     		b	.L107
 1455              	.L101:
 467:libs/ssdv/ssdv.c **** 			if(symbol == 0x00)
 1456              		.loc 1 467 4 is_stmt 1 view .LVU493
 467:libs/ssdv/ssdv.c **** 			if(symbol == 0x00)
 1457              		.loc 1 467 13 is_stmt 0 view .LVU494
 1458 0180 0022     		movs	r2, #0
 1459 0182 84F87420 		strb	r2, [r4, #116]
 468:libs/ssdv/ssdv.c **** 			{
 1460              		.loc 1 468 4 is_stmt 1 view .LVU495
 468:libs/ssdv/ssdv.c **** 			{
 1461              		.loc 1 468 6 is_stmt 0 view .LVU496
 1462 0186 EEB1     		cbz	r6, .L149
 474:libs/ssdv/ssdv.c **** 			{
 1463              		.loc 1 474 9 is_stmt 1 view .LVU497
 474:libs/ssdv/ssdv.c **** 			{
ARM GAS  /tmp/ccKzwklo.s 			page 42


 1464              		.loc 1 474 11 is_stmt 0 view .LVU498
 1465 0188 F02E     		cmp	r6, #240
 1466 018a 23D0     		beq	.L150
 483:libs/ssdv/ssdv.c **** 				s->acrle = symbol >> 4;
 1467              		.loc 1 483 5 is_stmt 1 view .LVU499
 483:libs/ssdv/ssdv.c **** 				s->acrle = symbol >> 4;
 1468              		.loc 1 483 14 is_stmt 0 view .LVU500
 1469 018c 0422     		movs	r2, #4
 1470 018e 84F84920 		strb	r2, [r4, #73]
 484:libs/ssdv/ssdv.c **** 				s->acpart += s->acrle;
 1471              		.loc 1 484 5 is_stmt 1 view .LVU501
 484:libs/ssdv/ssdv.c **** 				s->acpart += s->acrle;
 1472              		.loc 1 484 14 is_stmt 0 view .LVU502
 1473 0192 26FA02F2 		lsr	r2, r6, r2
 1474 0196 84F87420 		strb	r2, [r4, #116]
 485:libs/ssdv/ssdv.c **** 				s->needbits = symbol & 0x0F;
 1475              		.loc 1 485 5 is_stmt 1 view .LVU503
 485:libs/ssdv/ssdv.c **** 				s->needbits = symbol & 0x0F;
 1476              		.loc 1 485 15 is_stmt 0 view .LVU504
 1477 019a 1344     		add	r3, r3, r2
 1478 019c 84F85A30 		strb	r3, [r4, #90]
 486:libs/ssdv/ssdv.c **** 			}
 1479              		.loc 1 486 5 is_stmt 1 view .LVU505
 486:libs/ssdv/ssdv.c **** 			}
 1480              		.loc 1 486 26 is_stmt 0 view .LVU506
 1481 01a0 06F00F06 		and	r6, r6, #15
 1482              	.LVL162:
 486:libs/ssdv/ssdv.c **** 			}
 1483              		.loc 1 486 17 view .LVU507
 1484 01a4 84F88460 		strb	r6, [r4, #132]
 1485              	.LVL163:
 1486              	.L107:
 491:libs/ssdv/ssdv.c **** 		s->workbits &= (1 << s->worklen) - 1;
 1487              		.loc 1 491 3 is_stmt 1 discriminator 1 view .LVU508
 491:libs/ssdv/ssdv.c **** 		s->workbits &= (1 << s->worklen) - 1;
 1488              		.loc 1 491 14 is_stmt 0 discriminator 1 view .LVU509
 1489 01a8 94F83030 		ldrb	r3, [r4, #48]	@ zero_extendqisi2
 1490 01ac 5D1B     		subs	r5, r3, r5
 1491              	.LVL164:
 491:libs/ssdv/ssdv.c **** 		s->workbits &= (1 << s->worklen) - 1;
 1492              		.loc 1 491 14 discriminator 1 view .LVU510
 1493 01ae EDB2     		uxtb	r5, r5
 1494 01b0 84F83050 		strb	r5, [r4, #48]
 492:libs/ssdv/ssdv.c **** 	}
 1495              		.loc 1 492 3 is_stmt 1 discriminator 1 view .LVU511
 492:libs/ssdv/ssdv.c **** 	}
 1496              		.loc 1 492 21 is_stmt 0 discriminator 1 view .LVU512
 1497 01b4 0123     		movs	r3, #1
 1498 01b6 03FA05F5 		lsl	r5, r3, r5
 492:libs/ssdv/ssdv.c **** 	}
 1499              		.loc 1 492 36 discriminator 1 view .LVU513
 1500 01ba 013D     		subs	r5, r5, #1
 492:libs/ssdv/ssdv.c **** 	}
 1501              		.loc 1 492 15 discriminator 1 view .LVU514
 1502 01bc E36A     		ldr	r3, [r4, #44]
 1503 01be 1D40     		ands	r5, r5, r3
 1504 01c0 E562     		str	r5, [r4, #44]
ARM GAS  /tmp/ccKzwklo.s 			page 43


 492:libs/ssdv/ssdv.c **** 	}
 1505              		.loc 1 492 15 discriminator 1 view .LVU515
 1506              	.LBE26:
 1507 01c2 27E7     		b	.L110
 1508              	.LVL165:
 1509              	.L149:
 1510              	.LBB31:
 471:libs/ssdv/ssdv.c **** 				s->acpart = 64;
 1511              		.loc 1 471 5 is_stmt 1 view .LVU516
 1512 01c4 1146     		mov	r1, r2
 1513 01c6 2046     		mov	r0, r4
 1514              	.LVL166:
 471:libs/ssdv/ssdv.c **** 				s->acpart = 64;
 1515              		.loc 1 471 5 is_stmt 0 view .LVU517
 1516 01c8 FFF7FEFF 		bl	ssdv_out_jpeg_int
 1517              	.LVL167:
 472:libs/ssdv/ssdv.c **** 			}
 1518              		.loc 1 472 5 is_stmt 1 view .LVU518
 472:libs/ssdv/ssdv.c **** 			}
 1519              		.loc 1 472 15 is_stmt 0 view .LVU519
 1520 01cc 4023     		movs	r3, #64
 1521 01ce 84F85A30 		strb	r3, [r4, #90]
 1522 01d2 E9E7     		b	.L107
 1523              	.LVL168:
 1524              	.L150:
 477:libs/ssdv/ssdv.c **** 				s->acpart += 16;
 1525              		.loc 1 477 5 is_stmt 1 view .LVU520
 1526 01d4 0022     		movs	r2, #0
 1527 01d6 0F21     		movs	r1, #15
 1528 01d8 2046     		mov	r0, r4
 1529              	.LVL169:
 477:libs/ssdv/ssdv.c **** 				s->acpart += 16;
 1530              		.loc 1 477 5 is_stmt 0 view .LVU521
 1531 01da FFF7FEFF 		bl	ssdv_out_jpeg_int
 1532              	.LVL170:
 478:libs/ssdv/ssdv.c **** 			}
 1533              		.loc 1 478 5 is_stmt 1 view .LVU522
 478:libs/ssdv/ssdv.c **** 			}
 1534              		.loc 1 478 15 is_stmt 0 view .LVU523
 1535 01de 94F85A30 		ldrb	r3, [r4, #90]	@ zero_extendqisi2
 1536 01e2 1033     		adds	r3, r3, #16
 1537 01e4 84F85A30 		strb	r3, [r4, #90]
 1538 01e8 DEE7     		b	.L107
 1539              	.LVL171:
 1540              	.L144:
 478:libs/ssdv/ssdv.c **** 			}
 1541              		.loc 1 478 15 view .LVU524
 1542              	.LBE31:
 1543              	.LBB32:
 496:libs/ssdv/ssdv.c **** 		
 1544              		.loc 1 496 3 is_stmt 1 view .LVU525
 499:libs/ssdv/ssdv.c **** 		
 1545              		.loc 1 499 3 view .LVU526
 499:libs/ssdv/ssdv.c **** 		
 1546              		.loc 1 499 7 is_stmt 0 view .LVU527
 1547 01ea 90F83020 		ldrb	r2, [r0, #48]	@ zero_extendqisi2
 499:libs/ssdv/ssdv.c **** 		
ARM GAS  /tmp/ccKzwklo.s 			page 44


 1548              		.loc 1 499 20 view .LVU528
 1549 01ee 90F88410 		ldrb	r1, [r0, #132]	@ zero_extendqisi2
 499:libs/ssdv/ssdv.c **** 		
 1550              		.loc 1 499 5 view .LVU529
 1551 01f2 8A42     		cmp	r2, r1
 1552 01f4 C0F08D81 		bcc	.L139
 502:libs/ssdv/ssdv.c **** 		
 1553              		.loc 1 502 3 is_stmt 1 view .LVU530
 502:libs/ssdv/ssdv.c **** 		
 1554              		.loc 1 502 17 is_stmt 0 view .LVU531
 1555 01f8 C56A     		ldr	r5, [r0, #44]
 502:libs/ssdv/ssdv.c **** 		
 1556              		.loc 1 502 43 view .LVU532
 1557 01fa 521A     		subs	r2, r2, r1
 502:libs/ssdv/ssdv.c **** 		
 1558              		.loc 1 502 28 view .LVU533
 1559 01fc D540     		lsrs	r5, r5, r2
 1560              	.LVL172:
 1561              	.LBB33:
 1562              	.LBI33:
 344:libs/ssdv/ssdv.c **** {
 1563              		.loc 1 344 19 is_stmt 1 view .LVU534
 1564              	.LBB34:
 346:libs/ssdv/ssdv.c **** 	if(bits <= b >> 1) bits = -(bits ^ b);
 1565              		.loc 1 346 2 view .LVU535
 346:libs/ssdv/ssdv.c **** 	if(bits <= b >> 1) bits = -(bits ^ b);
 1566              		.loc 1 346 13 is_stmt 0 view .LVU536
 1567 01fe 0123     		movs	r3, #1
 1568 0200 8B40     		lsls	r3, r3, r1
 346:libs/ssdv/ssdv.c **** 	if(bits <= b >> 1) bits = -(bits ^ b);
 1569              		.loc 1 346 6 view .LVU537
 1570 0202 013B     		subs	r3, r3, #1
 1571              	.LVL173:
 347:libs/ssdv/ssdv.c **** 	return(bits);
 1572              		.loc 1 347 2 is_stmt 1 view .LVU538
 347:libs/ssdv/ssdv.c **** 	return(bits);
 1573              		.loc 1 347 4 is_stmt 0 view .LVU539
 1574 0204 B5EB630F 		cmp	r5, r3, asr #1
 1575 0208 01DC     		bgt	.L111
 347:libs/ssdv/ssdv.c **** 	return(bits);
 1576              		.loc 1 347 21 is_stmt 1 view .LVU540
 347:libs/ssdv/ssdv.c **** 	return(bits);
 1577              		.loc 1 347 35 is_stmt 0 view .LVU541
 1578 020a 5D40     		eors	r5, r5, r3
 1579              	.LVL174:
 347:libs/ssdv/ssdv.c **** 	return(bits);
 1580              		.loc 1 347 26 view .LVU542
 1581 020c 6D42     		rsbs	r5, r5, #0
 1582              	.LVL175:
 1583              	.L111:
 348:libs/ssdv/ssdv.c **** }
 1584              		.loc 1 348 2 is_stmt 1 view .LVU543
 348:libs/ssdv/ssdv.c **** }
 1585              		.loc 1 348 2 is_stmt 0 view .LVU544
 1586              	.LBE34:
 1587              	.LBE33:
 504:libs/ssdv/ssdv.c **** 		{
ARM GAS  /tmp/ccKzwklo.s 			page 45


 1588              		.loc 1 504 3 is_stmt 1 view .LVU545
 504:libs/ssdv/ssdv.c **** 		{
 1589              		.loc 1 504 7 is_stmt 0 view .LVU546
 1590 020e 94F85A60 		ldrb	r6, [r4, #90]	@ zero_extendqisi2
 504:libs/ssdv/ssdv.c **** 		{
 1591              		.loc 1 504 5 view .LVU547
 1592 0212 002E     		cmp	r6, #0
 1593 0214 40F0B480 		bne	.L112
 506:libs/ssdv/ssdv.c **** 			{
 1594              		.loc 1 506 4 is_stmt 1 view .LVU548
 506:libs/ssdv/ssdv.c **** 			{
 1595              		.loc 1 506 8 is_stmt 0 view .LVU549
 1596 0218 E26F     		ldr	r2, [r4, #124]
 506:libs/ssdv/ssdv.c **** 			{
 1597              		.loc 1 506 24 view .LVU550
 1598 021a E38A     		ldrh	r3, [r4, #22]
 506:libs/ssdv/ssdv.c **** 			{
 1599              		.loc 1 506 6 view .LVU551
 1600 021c 9A42     		cmp	r2, r3
 1601 021e 3BD0     		beq	.L151
 1602              	.L113:
 524:libs/ssdv/ssdv.c **** 				{
 1603              		.loc 1 524 5 is_stmt 1 view .LVU552
 524:libs/ssdv/ssdv.c **** 				{
 1604              		.loc 1 524 9 is_stmt 0 view .LVU553
 1605 0220 94F87830 		ldrb	r3, [r4, #120]	@ zero_extendqisi2
 524:libs/ssdv/ssdv.c **** 				{
 1606              		.loc 1 524 7 view .LVU554
 1607 0224 012B     		cmp	r3, #1
 1608 0226 00F08480 		beq	.L152
 532:libs/ssdv/ssdv.c **** 					
 1609              		.loc 1 532 6 is_stmt 1 view .LVU555
 532:libs/ssdv/ssdv.c **** 					
 1610              		.loc 1 532 13 is_stmt 0 view .LVU556
 1611 022a 94F85770 		ldrb	r7, [r4, #87]	@ zero_extendqisi2
 532:libs/ssdv/ssdv.c **** 					
 1612              		.loc 1 532 26 view .LVU557
 1613 022e 07F11603 		add	r3, r7, #22
 1614 0232 04EB8303 		add	r3, r4, r3, lsl #2
 1615 0236 D3F804C0 		ldr	ip, [r3, #4]
 532:libs/ssdv/ssdv.c **** 					
 1616              		.loc 1 532 29 view .LVU558
 1617 023a 3B1E     		subs	r3, r7, #0
 1618 023c 18BF     		it	ne
 1619 023e 0123     		movne	r3, #1
 1620 0240 03F1B202 		add	r2, r3, #178
 1621 0244 54F82210 		ldr	r1, [r4, r2, lsl #2]
 1622 0248 0136     		adds	r6, r6, #1
 1623 024a 885D     		ldrb	r0, [r1, r6]	@ zero_extendqisi2
 1624              	.LVL176:
 532:libs/ssdv/ssdv.c **** 					
 1625              		.loc 1 532 29 view .LVU559
 1626 024c 03F5A073 		add	r3, r3, #320
 1627 0250 04EB8303 		add	r3, r4, r3, lsl #2
 1628 0254 5A68     		ldr	r2, [r3, #4]
 1629 0256 935D     		ldrb	r3, [r2, r6]	@ zero_extendqisi2
 1630 0258 9842     		cmp	r0, r3
ARM GAS  /tmp/ccKzwklo.s 			page 46


 1631 025a 01D0     		beq	.L121
 532:libs/ssdv/ssdv.c **** 					
 1632              		.loc 1 532 29 discriminator 1 view .LVU560
 1633 025c 00FB05F5 		mul	r5, r0, r5
 1634              	.LVL177:
 1635              	.L121:
 532:libs/ssdv/ssdv.c **** 					
 1636              		.loc 1 532 26 discriminator 4 view .LVU561
 1637 0260 6544     		add	r5, r5, ip
 1638 0262 07F11603 		add	r3, r7, #22
 1639 0266 04EB8303 		add	r3, r4, r3, lsl #2
 1640 026a 5D60     		str	r5, [r3, #4]
 535:libs/ssdv/ssdv.c **** 					ssdv_out_jpeg_int(s, 0, i - s->adc[s->component]);
 1641              		.loc 1 535 6 is_stmt 1 discriminator 4 view .LVU562
 535:libs/ssdv/ssdv.c **** 					ssdv_out_jpeg_int(s, 0, i - s->adc[s->component]);
 1642              		.loc 1 535 10 is_stmt 0 discriminator 4 view .LVU563
 1643 026c 8B5D     		ldrb	r3, [r1, r6]	@ zero_extendqisi2
 1644 026e 915D     		ldrb	r1, [r2, r6]	@ zero_extendqisi2
 1645 0270 8B42     		cmp	r3, r1
 1646 0272 03D0     		beq	.L122
 535:libs/ssdv/ssdv.c **** 					ssdv_out_jpeg_int(s, 0, i - s->adc[s->component]);
 1647              		.loc 1 535 10 discriminator 2 view .LVU564
 1648 0274 2846     		mov	r0, r5
 1649 0276 FFF7FEFF 		bl	irdiv
 1650              	.LVL178:
 1651 027a 0546     		mov	r5, r0
 1652              	.L122:
 1653              	.LVL179:
 536:libs/ssdv/ssdv.c **** 					s->adc[s->component] = i;
 1654              		.loc 1 536 6 is_stmt 1 discriminator 4 view .LVU565
 536:libs/ssdv/ssdv.c **** 					s->adc[s->component] = i;
 1655              		.loc 1 536 40 is_stmt 0 discriminator 4 view .LVU566
 1656 027c 1A37     		adds	r7, r7, #26
 1657 027e 54F82720 		ldr	r2, [r4, r7, lsl #2]
 536:libs/ssdv/ssdv.c **** 					s->adc[s->component] = i;
 1658              		.loc 1 536 6 discriminator 4 view .LVU567
 1659 0282 AA1A     		subs	r2, r5, r2
 1660 0284 0021     		movs	r1, #0
 1661 0286 2046     		mov	r0, r4
 1662 0288 FFF7FEFF 		bl	ssdv_out_jpeg_int
 1663              	.LVL180:
 537:libs/ssdv/ssdv.c **** 				}
 1664              		.loc 1 537 6 is_stmt 1 discriminator 4 view .LVU568
 537:libs/ssdv/ssdv.c **** 				}
 1665              		.loc 1 537 14 is_stmt 0 discriminator 4 view .LVU569
 1666 028c 94F85730 		ldrb	r3, [r4, #87]	@ zero_extendqisi2
 537:libs/ssdv/ssdv.c **** 				}
 1667              		.loc 1 537 27 discriminator 4 view .LVU570
 1668 0290 1A33     		adds	r3, r3, #26
 1669 0292 44F82350 		str	r5, [r4, r3, lsl #2]
 1670 0296 A9E0     		b	.L118
 1671              	.LVL181:
 1672              	.L151:
 506:libs/ssdv/ssdv.c **** 			{
 1673              		.loc 1 506 38 discriminator 1 view .LVU571
 1674 0298 94F85930 		ldrb	r3, [r4, #89]	@ zero_extendqisi2
 506:libs/ssdv/ssdv.c **** 			{
ARM GAS  /tmp/ccKzwklo.s 			page 47


 1675              		.loc 1 506 33 discriminator 1 view .LVU572
 1676 029c 1BB1     		cbz	r3, .L114
 506:libs/ssdv/ssdv.c **** 			{
 1677              		.loc 1 506 71 discriminator 2 view .LVU573
 1678 029e 94F85820 		ldrb	r2, [r4, #88]	@ zero_extendqisi2
 506:libs/ssdv/ssdv.c **** 			{
 1679              		.loc 1 506 53 discriminator 2 view .LVU574
 1680 02a2 9342     		cmp	r3, r2
 1681 02a4 BCD3     		bcc	.L113
 1682              	.L114:
 508:libs/ssdv/ssdv.c **** 				{
 1683              		.loc 1 508 5 is_stmt 1 view .LVU575
 508:libs/ssdv/ssdv.c **** 				{
 1684              		.loc 1 508 9 is_stmt 0 view .LVU576
 1685 02a6 94F87830 		ldrb	r3, [r4, #120]	@ zero_extendqisi2
 508:libs/ssdv/ssdv.c **** 				{
 1686              		.loc 1 508 7 view .LVU577
 1687 02aa 83BB     		cbnz	r3, .L115
 511:libs/ssdv/ssdv.c **** 					s->adc[s->component] = AADJ(s->dc[s->component]);
 1688              		.loc 1 511 6 is_stmt 1 view .LVU578
 511:libs/ssdv/ssdv.c **** 					s->adc[s->component] = AADJ(s->dc[s->component]);
 1689              		.loc 1 511 13 is_stmt 0 view .LVU579
 1690 02ac 94F85770 		ldrb	r7, [r4, #87]	@ zero_extendqisi2
 511:libs/ssdv/ssdv.c **** 					s->adc[s->component] = AADJ(s->dc[s->component]);
 1691              		.loc 1 511 26 view .LVU580
 1692 02b0 07F11603 		add	r3, r7, #22
 1693 02b4 04EB8303 		add	r3, r4, r3, lsl #2
 1694 02b8 5A68     		ldr	r2, [r3, #4]
 511:libs/ssdv/ssdv.c **** 					s->adc[s->component] = AADJ(s->dc[s->component]);
 1695              		.loc 1 511 29 view .LVU581
 1696 02ba 3B1E     		subs	r3, r7, #0
 1697 02bc 18BF     		it	ne
 1698 02be 0123     		movne	r3, #1
 1699 02c0 03F1B201 		add	r1, r3, #178
 1700 02c4 54F82100 		ldr	r0, [r4, r1, lsl #2]
 1701              	.LVL182:
 511:libs/ssdv/ssdv.c **** 					s->adc[s->component] = AADJ(s->dc[s->component]);
 1702              		.loc 1 511 29 view .LVU582
 1703 02c8 0136     		adds	r6, r6, #1
 1704 02ca 10F806C0 		ldrb	ip, [r0, r6]	@ zero_extendqisi2
 1705 02ce 03F5A073 		add	r3, r3, #320
 1706 02d2 04EB8303 		add	r3, r4, r3, lsl #2
 1707 02d6 5968     		ldr	r1, [r3, #4]
 1708 02d8 8B5D     		ldrb	r3, [r1, r6]	@ zero_extendqisi2
 1709 02da 9C45     		cmp	ip, r3
 1710 02dc 01D0     		beq	.L116
 511:libs/ssdv/ssdv.c **** 					s->adc[s->component] = AADJ(s->dc[s->component]);
 1711              		.loc 1 511 29 discriminator 1 view .LVU583
 1712 02de 0CFB05F5 		mul	r5, ip, r5
 1713              	.LVL183:
 1714              	.L116:
 511:libs/ssdv/ssdv.c **** 					s->adc[s->component] = AADJ(s->dc[s->component]);
 1715              		.loc 1 511 26 discriminator 4 view .LVU584
 1716 02e2 2A44     		add	r2, r2, r5
 1717 02e4 07F11603 		add	r3, r7, #22
 1718 02e8 04EB8303 		add	r3, r4, r3, lsl #2
 1719 02ec 5A60     		str	r2, [r3, #4]
ARM GAS  /tmp/ccKzwklo.s 			page 48


 512:libs/ssdv/ssdv.c **** 					ssdv_out_jpeg_int(s, 0, s->adc[s->component]);
 1720              		.loc 1 512 6 is_stmt 1 discriminator 4 view .LVU585
 512:libs/ssdv/ssdv.c **** 					ssdv_out_jpeg_int(s, 0, s->adc[s->component]);
 1721              		.loc 1 512 29 is_stmt 0 discriminator 4 view .LVU586
 1722 02ee 835D     		ldrb	r3, [r0, r6]	@ zero_extendqisi2
 1723 02f0 895D     		ldrb	r1, [r1, r6]	@ zero_extendqisi2
 1724 02f2 8B42     		cmp	r3, r1
 1725 02f4 03D0     		beq	.L117
 512:libs/ssdv/ssdv.c **** 					ssdv_out_jpeg_int(s, 0, s->adc[s->component]);
 1726              		.loc 1 512 29 discriminator 2 view .LVU587
 1727 02f6 1046     		mov	r0, r2
 1728 02f8 FFF7FEFF 		bl	irdiv
 1729              	.LVL184:
 1730 02fc 0246     		mov	r2, r0
 1731              	.L117:
 512:libs/ssdv/ssdv.c **** 					ssdv_out_jpeg_int(s, 0, s->adc[s->component]);
 1732              		.loc 1 512 27 discriminator 4 view .LVU588
 1733 02fe 1A37     		adds	r7, r7, #26
 1734 0300 44F82720 		str	r2, [r4, r7, lsl #2]
 513:libs/ssdv/ssdv.c **** 				}
 1735              		.loc 1 513 6 is_stmt 1 discriminator 4 view .LVU589
 1736 0304 0021     		movs	r1, #0
 1737 0306 2046     		mov	r0, r4
 1738 0308 FFF7FEFF 		bl	ssdv_out_jpeg_int
 1739              	.LVL185:
 1740 030c 6EE0     		b	.L118
 1741              	.LVL186:
 1742              	.L115:
 518:libs/ssdv/ssdv.c **** 					s->dc[s->component] = i;
 1743              		.loc 1 518 6 view .LVU590
 518:libs/ssdv/ssdv.c **** 					s->dc[s->component] = i;
 1744              		.loc 1 518 41 is_stmt 0 view .LVU591
 1745 030e 94F85730 		ldrb	r3, [r4, #87]	@ zero_extendqisi2
 518:libs/ssdv/ssdv.c **** 					s->dc[s->component] = i;
 1746              		.loc 1 518 39 view .LVU592
 1747 0312 1633     		adds	r3, r3, #22
 1748 0314 04EB8303 		add	r3, r4, r3, lsl #2
 1749 0318 5A68     		ldr	r2, [r3, #4]
 518:libs/ssdv/ssdv.c **** 					s->dc[s->component] = i;
 1750              		.loc 1 518 6 view .LVU593
 1751 031a AA1A     		subs	r2, r5, r2
 1752 031c 0021     		movs	r1, #0
 1753 031e 2046     		mov	r0, r4
 1754              	.LVL187:
 518:libs/ssdv/ssdv.c **** 					s->dc[s->component] = i;
 1755              		.loc 1 518 6 view .LVU594
 1756 0320 FFF7FEFF 		bl	ssdv_out_jpeg_int
 1757              	.LVL188:
 519:libs/ssdv/ssdv.c **** 				}
 1758              		.loc 1 519 6 is_stmt 1 view .LVU595
 519:libs/ssdv/ssdv.c **** 				}
 1759              		.loc 1 519 13 is_stmt 0 view .LVU596
 1760 0324 94F85730 		ldrb	r3, [r4, #87]	@ zero_extendqisi2
 519:libs/ssdv/ssdv.c **** 				}
 1761              		.loc 1 519 26 view .LVU597
 1762 0328 1633     		adds	r3, r3, #22
 1763 032a 04EB8303 		add	r3, r4, r3, lsl #2
ARM GAS  /tmp/ccKzwklo.s 			page 49


 1764 032e 5D60     		str	r5, [r3, #4]
 1765 0330 5CE0     		b	.L118
 1766              	.LVL189:
 1767              	.L152:
 526:libs/ssdv/ssdv.c **** 					ssdv_out_jpeg_int(s, 0, i);
 1768              		.loc 1 526 6 is_stmt 1 view .LVU598
 526:libs/ssdv/ssdv.c **** 					ssdv_out_jpeg_int(s, 0, i);
 1769              		.loc 1 526 13 is_stmt 0 view .LVU599
 1770 0332 94F85730 		ldrb	r3, [r4, #87]	@ zero_extendqisi2
 526:libs/ssdv/ssdv.c **** 					ssdv_out_jpeg_int(s, 0, i);
 1771              		.loc 1 526 26 view .LVU600
 1772 0336 03F11602 		add	r2, r3, #22
 1773 033a 04EB8202 		add	r2, r4, r2, lsl #2
 1774 033e 5068     		ldr	r0, [r2, #4]
 1775              	.LVL190:
 526:libs/ssdv/ssdv.c **** 					ssdv_out_jpeg_int(s, 0, i);
 1776              		.loc 1 526 29 view .LVU601
 1777 0340 1A1E     		subs	r2, r3, #0
 1778 0342 18BF     		it	ne
 1779 0344 0122     		movne	r2, #1
 1780 0346 02F1B201 		add	r1, r2, #178
 1781 034a 54F82110 		ldr	r1, [r4, r1, lsl #2]
 1782 034e 0136     		adds	r6, r6, #1
 1783 0350 895D     		ldrb	r1, [r1, r6]	@ zero_extendqisi2
 1784 0352 02F5A072 		add	r2, r2, #320
 1785 0356 04EB8202 		add	r2, r4, r2, lsl #2
 1786 035a 5268     		ldr	r2, [r2, #4]
 1787 035c 925D     		ldrb	r2, [r2, r6]	@ zero_extendqisi2
 1788 035e 9142     		cmp	r1, r2
 1789 0360 0CD0     		beq	.L140
 526:libs/ssdv/ssdv.c **** 					ssdv_out_jpeg_int(s, 0, i);
 1790              		.loc 1 526 29 discriminator 1 view .LVU602
 1791 0362 05FB01F1 		mul	r1, r5, r1
 1792              	.L120:
 526:libs/ssdv/ssdv.c **** 					ssdv_out_jpeg_int(s, 0, i);
 1793              		.loc 1 526 26 discriminator 4 view .LVU603
 1794 0366 1633     		adds	r3, r3, #22
 1795 0368 04EB8303 		add	r3, r4, r3, lsl #2
 1796 036c 0144     		add	r1, r1, r0
 1797 036e 5960     		str	r1, [r3, #4]
 527:libs/ssdv/ssdv.c **** 				}
 1798              		.loc 1 527 6 is_stmt 1 discriminator 4 view .LVU604
 1799 0370 2A46     		mov	r2, r5
 1800 0372 0021     		movs	r1, #0
 1801 0374 2046     		mov	r0, r4
 1802 0376 FFF7FEFF 		bl	ssdv_out_jpeg_int
 1803              	.LVL191:
 1804 037a 37E0     		b	.L118
 1805              	.L140:
 526:libs/ssdv/ssdv.c **** 					ssdv_out_jpeg_int(s, 0, i);
 1806              		.loc 1 526 29 is_stmt 0 view .LVU605
 1807 037c 2946     		mov	r1, r5
 1808 037e F2E7     		b	.L120
 1809              	.LVL192:
 1810              	.L112:
 543:libs/ssdv/ssdv.c **** 			{
 1811              		.loc 1 543 4 is_stmt 1 view .LVU606
ARM GAS  /tmp/ccKzwklo.s 			page 50


 543:libs/ssdv/ssdv.c **** 			{
 1812              		.loc 1 543 12 is_stmt 0 view .LVU607
 1813 0380 94F85730 		ldrb	r3, [r4, #87]	@ zero_extendqisi2
 1814 0384 003B     		subs	r3, r3, #0
 1815 0386 18BF     		it	ne
 1816 0388 0123     		movne	r3, #1
 1817 038a 03F1B202 		add	r2, r3, #178
 1818 038e 54F82210 		ldr	r1, [r4, r2, lsl #2]
 1819 0392 721C     		adds	r2, r6, #1
 1820 0394 885C     		ldrb	r0, [r1, r2]	@ zero_extendqisi2
 1821              	.LVL193:
 543:libs/ssdv/ssdv.c **** 			{
 1822              		.loc 1 543 12 view .LVU608
 1823 0396 03F5A073 		add	r3, r3, #320
 1824 039a 04EB8303 		add	r3, r4, r3, lsl #2
 1825 039e 5B68     		ldr	r3, [r3, #4]
 1826 03a0 995C     		ldrb	r1, [r3, r2]	@ zero_extendqisi2
 1827 03a2 8842     		cmp	r0, r1
 1828 03a4 04D0     		beq	.L123
 543:libs/ssdv/ssdv.c **** 			{
 1829              		.loc 1 543 12 discriminator 1 view .LVU609
 1830 03a6 05FB00F0 		mul	r0, r5, r0
 1831 03aa FFF7FEFF 		bl	irdiv
 1832              	.LVL194:
 1833 03ae 0546     		mov	r5, r0
 1834              	.LVL195:
 1835              	.L123:
 543:libs/ssdv/ssdv.c **** 			{
 1836              		.loc 1 543 6 discriminator 4 view .LVU610
 1837 03b0 A5B3     		cbz	r5, .L124
 545:libs/ssdv/ssdv.c **** 				while(s->accrle >= 16)
 1838              		.loc 1 545 5 is_stmt 1 view .LVU611
 545:libs/ssdv/ssdv.c **** 				while(s->accrle >= 16)
 1839              		.loc 1 545 19 is_stmt 0 view .LVU612
 1840 03b2 94F87430 		ldrb	r3, [r4, #116]	@ zero_extendqisi2
 545:libs/ssdv/ssdv.c **** 				while(s->accrle >= 16)
 1841              		.loc 1 545 15 view .LVU613
 1842 03b6 94F87520 		ldrb	r2, [r4, #117]	@ zero_extendqisi2
 1843 03ba 1344     		add	r3, r3, r2
 1844 03bc 84F87530 		strb	r3, [r4, #117]
 546:libs/ssdv/ssdv.c **** 				{
 1845              		.loc 1 546 5 is_stmt 1 view .LVU614
 546:libs/ssdv/ssdv.c **** 				{
 1846              		.loc 1 546 10 is_stmt 0 view .LVU615
 1847 03c0 09E0     		b	.L125
 1848              	.L126:
 548:libs/ssdv/ssdv.c **** 					s->accrle -= 16;
 1849              		.loc 1 548 6 is_stmt 1 view .LVU616
 1850 03c2 0022     		movs	r2, #0
 1851 03c4 0F21     		movs	r1, #15
 1852 03c6 2046     		mov	r0, r4
 1853 03c8 FFF7FEFF 		bl	ssdv_out_jpeg_int
 1854              	.LVL196:
 549:libs/ssdv/ssdv.c **** 				}
 1855              		.loc 1 549 6 view .LVU617
 549:libs/ssdv/ssdv.c **** 				}
 1856              		.loc 1 549 16 is_stmt 0 view .LVU618
ARM GAS  /tmp/ccKzwklo.s 			page 51


 1857 03cc 94F87530 		ldrb	r3, [r4, #117]	@ zero_extendqisi2
 1858 03d0 103B     		subs	r3, r3, #16
 1859 03d2 84F87530 		strb	r3, [r4, #117]
 1860              	.L125:
 546:libs/ssdv/ssdv.c **** 				{
 1861              		.loc 1 546 10 is_stmt 1 view .LVU619
 546:libs/ssdv/ssdv.c **** 				{
 1862              		.loc 1 546 12 is_stmt 0 view .LVU620
 1863 03d6 94F87510 		ldrb	r1, [r4, #117]	@ zero_extendqisi2
 546:libs/ssdv/ssdv.c **** 				{
 1864              		.loc 1 546 10 view .LVU621
 1865 03da 0F29     		cmp	r1, #15
 1866 03dc F1D8     		bhi	.L126
 551:libs/ssdv/ssdv.c **** 				s->accrle = 0;
 1867              		.loc 1 551 5 is_stmt 1 view .LVU622
 1868 03de 2A46     		mov	r2, r5
 1869 03e0 2046     		mov	r0, r4
 1870 03e2 FFF7FEFF 		bl	ssdv_out_jpeg_int
 1871              	.LVL197:
 552:libs/ssdv/ssdv.c **** 			}
 1872              		.loc 1 552 5 view .LVU623
 552:libs/ssdv/ssdv.c **** 			}
 1873              		.loc 1 552 15 is_stmt 0 view .LVU624
 1874 03e6 0023     		movs	r3, #0
 1875 03e8 84F87530 		strb	r3, [r4, #117]
 1876              	.LVL198:
 1877              	.L118:
 567:libs/ssdv/ssdv.c **** 		
 1878              		.loc 1 567 3 is_stmt 1 view .LVU625
 567:libs/ssdv/ssdv.c **** 		
 1879              		.loc 1 567 4 is_stmt 0 view .LVU626
 1880 03ec 94F85A30 		ldrb	r3, [r4, #90]	@ zero_extendqisi2
 567:libs/ssdv/ssdv.c **** 		
 1881              		.loc 1 567 12 view .LVU627
 1882 03f0 0133     		adds	r3, r3, #1
 1883 03f2 84F85A30 		strb	r3, [r4, #90]
 570:libs/ssdv/ssdv.c **** 		
 1884              		.loc 1 570 3 is_stmt 1 view .LVU628
 570:libs/ssdv/ssdv.c **** 		
 1885              		.loc 1 570 12 is_stmt 0 view .LVU629
 1886 03f6 0323     		movs	r3, #3
 1887 03f8 84F84930 		strb	r3, [r4, #73]
 573:libs/ssdv/ssdv.c **** 		s->workbits &= (1 << s->worklen) - 1;
 1888              		.loc 1 573 3 is_stmt 1 view .LVU630
 573:libs/ssdv/ssdv.c **** 		s->workbits &= (1 << s->worklen) - 1;
 1889              		.loc 1 573 18 is_stmt 0 view .LVU631
 1890 03fc 94F88420 		ldrb	r2, [r4, #132]	@ zero_extendqisi2
 573:libs/ssdv/ssdv.c **** 		s->workbits &= (1 << s->worklen) - 1;
 1891              		.loc 1 573 14 view .LVU632
 1892 0400 94F83030 		ldrb	r3, [r4, #48]	@ zero_extendqisi2
 1893 0404 9B1A     		subs	r3, r3, r2
 1894 0406 DBB2     		uxtb	r3, r3
 1895 0408 84F83030 		strb	r3, [r4, #48]
 574:libs/ssdv/ssdv.c **** 	}
 1896              		.loc 1 574 3 is_stmt 1 view .LVU633
 574:libs/ssdv/ssdv.c **** 	}
 1897              		.loc 1 574 21 is_stmt 0 view .LVU634
ARM GAS  /tmp/ccKzwklo.s 			page 52


 1898 040c 0122     		movs	r2, #1
 1899 040e 02FA03F3 		lsl	r3, r2, r3
 574:libs/ssdv/ssdv.c **** 	}
 1900              		.loc 1 574 36 view .LVU635
 1901 0412 013B     		subs	r3, r3, #1
 574:libs/ssdv/ssdv.c **** 	}
 1902              		.loc 1 574 15 view .LVU636
 1903 0414 E26A     		ldr	r2, [r4, #44]
 1904 0416 1340     		ands	r3, r3, r2
 1905 0418 E362     		str	r3, [r4, #44]
 1906 041a FBE5     		b	.L110
 1907              	.LVL199:
 1908              	.L124:
 557:libs/ssdv/ssdv.c **** 				{
 1909              		.loc 1 557 5 is_stmt 1 view .LVU637
 557:libs/ssdv/ssdv.c **** 				{
 1910              		.loc 1 557 7 is_stmt 0 view .LVU638
 1911 041c 3E2E     		cmp	r6, #62
 1912 041e 08D8     		bhi	.L153
 562:libs/ssdv/ssdv.c **** 			}
 1913              		.loc 1 562 10 is_stmt 1 view .LVU639
 562:libs/ssdv/ssdv.c **** 			}
 1914              		.loc 1 562 24 is_stmt 0 view .LVU640
 1915 0420 94F87430 		ldrb	r3, [r4, #116]	@ zero_extendqisi2
 562:libs/ssdv/ssdv.c **** 			}
 1916              		.loc 1 562 20 view .LVU641
 1917 0424 94F87520 		ldrb	r2, [r4, #117]	@ zero_extendqisi2
 1918 0428 1344     		add	r3, r3, r2
 1919 042a 0133     		adds	r3, r3, #1
 1920 042c 84F87530 		strb	r3, [r4, #117]
 1921 0430 DCE7     		b	.L118
 1922              	.L153:
 559:libs/ssdv/ssdv.c **** 					s->accrle = 0;
 1923              		.loc 1 559 6 is_stmt 1 view .LVU642
 1924 0432 0022     		movs	r2, #0
 1925 0434 1146     		mov	r1, r2
 1926 0436 2046     		mov	r0, r4
 1927 0438 FFF7FEFF 		bl	ssdv_out_jpeg_int
 1928              	.LVL200:
 560:libs/ssdv/ssdv.c **** 				}
 1929              		.loc 1 560 6 view .LVU643
 560:libs/ssdv/ssdv.c **** 				}
 1930              		.loc 1 560 16 is_stmt 0 view .LVU644
 1931 043c 0023     		movs	r3, #0
 1932 043e 84F87530 		strb	r3, [r4, #117]
 1933 0442 D3E7     		b	.L118
 1934              	.LVL201:
 1935              	.L130:
 560:libs/ssdv/ssdv.c **** 				}
 1936              		.loc 1 560 16 view .LVU645
 1937              	.LBE32:
 584:libs/ssdv/ssdv.c **** 			{
 1938              		.loc 1 584 10 is_stmt 1 discriminator 1 view .LVU646
 584:libs/ssdv/ssdv.c **** 			{
 1939              		.loc 1 584 24 is_stmt 0 discriminator 1 view .LVU647
 1940 0444 94F85820 		ldrb	r2, [r4, #88]	@ zero_extendqisi2
 584:libs/ssdv/ssdv.c **** 			{
ARM GAS  /tmp/ccKzwklo.s 			page 53


 1941              		.loc 1 584 21 discriminator 1 view .LVU648
 1942 0448 511C     		adds	r1, r2, #1
 584:libs/ssdv/ssdv.c **** 			{
 1943              		.loc 1 584 11 discriminator 1 view .LVU649
 1944 044a 94F85930 		ldrb	r3, [r4, #89]	@ zero_extendqisi2
 584:libs/ssdv/ssdv.c **** 			{
 1945              		.loc 1 584 4 discriminator 1 view .LVU650
 1946 044e 9942     		cmp	r1, r3
 1947 0450 FFF6F2AD 		blt	.L129
 586:libs/ssdv/ssdv.c **** 				s->acpart = 0; ssdv_out_jpeg_int(s, 0, 0); /* DC */
 1948              		.loc 1 586 5 is_stmt 1 discriminator 2 view .LVU651
 586:libs/ssdv/ssdv.c **** 				s->acpart = 0; ssdv_out_jpeg_int(s, 0, 0); /* DC */
 1949              		.loc 1 586 31 is_stmt 0 discriminator 2 view .LVU652
 1950 0454 9B1A     		subs	r3, r3, r2
 1951 0456 DBB2     		uxtb	r3, r3
 586:libs/ssdv/ssdv.c **** 				s->acpart = 0; ssdv_out_jpeg_int(s, 0, 0); /* DC */
 1952              		.loc 1 586 44 discriminator 2 view .LVU653
 1953 0458 0133     		adds	r3, r3, #1
 586:libs/ssdv/ssdv.c **** 				s->acpart = 0; ssdv_out_jpeg_int(s, 0, 0); /* DC */
 1954              		.loc 1 586 18 discriminator 2 view .LVU654
 1955 045a 84F85730 		strb	r3, [r4, #87]
 587:libs/ssdv/ssdv.c **** 				s->acpart = 1; ssdv_out_jpeg_int(s, 0, 0); /* AC */
 1956              		.loc 1 587 5 is_stmt 1 discriminator 2 view .LVU655
 587:libs/ssdv/ssdv.c **** 				s->acpart = 1; ssdv_out_jpeg_int(s, 0, 0); /* AC */
 1957              		.loc 1 587 15 is_stmt 0 discriminator 2 view .LVU656
 1958 045e 0025     		movs	r5, #0
 1959 0460 84F85A50 		strb	r5, [r4, #90]
 587:libs/ssdv/ssdv.c **** 				s->acpart = 1; ssdv_out_jpeg_int(s, 0, 0); /* AC */
 1960              		.loc 1 587 20 is_stmt 1 discriminator 2 view .LVU657
 1961 0464 2A46     		mov	r2, r5
 1962 0466 2946     		mov	r1, r5
 1963 0468 2046     		mov	r0, r4
 1964 046a FFF7FEFF 		bl	ssdv_out_jpeg_int
 1965              	.LVL202:
 588:libs/ssdv/ssdv.c **** 			}
 1966              		.loc 1 588 5 discriminator 2 view .LVU658
 588:libs/ssdv/ssdv.c **** 			}
 1967              		.loc 1 588 15 is_stmt 0 discriminator 2 view .LVU659
 1968 046e 0123     		movs	r3, #1
 1969 0470 84F85A30 		strb	r3, [r4, #90]
 588:libs/ssdv/ssdv.c **** 			}
 1970              		.loc 1 588 20 is_stmt 1 discriminator 2 view .LVU660
 1971 0474 2A46     		mov	r2, r5
 1972 0476 2946     		mov	r1, r5
 1973 0478 2046     		mov	r0, r4
 1974 047a FFF7FEFF 		bl	ssdv_out_jpeg_int
 1975              	.LVL203:
 584:libs/ssdv/ssdv.c **** 			{
 1976              		.loc 1 584 39 discriminator 2 view .LVU661
 584:libs/ssdv/ssdv.c **** 			{
 1977              		.loc 1 584 40 is_stmt 0 discriminator 2 view .LVU662
 1978 047e 94F85930 		ldrb	r3, [r4, #89]	@ zero_extendqisi2
 584:libs/ssdv/ssdv.c **** 			{
 1979              		.loc 1 584 49 discriminator 2 view .LVU663
 1980 0482 0133     		adds	r3, r3, #1
 1981 0484 84F85930 		strb	r3, [r4, #89]
 1982 0488 DCE7     		b	.L130
ARM GAS  /tmp/ccKzwklo.s 			page 54


 1983              	.L145:
 595:libs/ssdv/ssdv.c **** 			s->mcu_id++;
 1984              		.loc 1 595 4 is_stmt 1 view .LVU664
 595:libs/ssdv/ssdv.c **** 			s->mcu_id++;
 1985              		.loc 1 595 15 is_stmt 0 view .LVU665
 1986 048a 0023     		movs	r3, #0
 1987 048c 84F85930 		strb	r3, [r4, #89]
 596:libs/ssdv/ssdv.c **** 			
 1988              		.loc 1 596 4 is_stmt 1 view .LVU666
 596:libs/ssdv/ssdv.c **** 			
 1989              		.loc 1 596 5 is_stmt 0 view .LVU667
 1990 0490 E38A     		ldrh	r3, [r4, #22]
 596:libs/ssdv/ssdv.c **** 			
 1991              		.loc 1 596 13 view .LVU668
 1992 0492 0133     		adds	r3, r3, #1
 1993 0494 9BB2     		uxth	r3, r3
 1994 0496 E382     		strh	r3, [r4, #22]	@ movhi
 599:libs/ssdv/ssdv.c **** 			{
 1995              		.loc 1 599 4 is_stmt 1 view .LVU669
 599:libs/ssdv/ssdv.c **** 			{
 1996              		.loc 1 599 21 is_stmt 0 view .LVU670
 1997 0498 228B     		ldrh	r2, [r4, #24]
 599:libs/ssdv/ssdv.c **** 			{
 1998              		.loc 1 599 6 view .LVU671
 1999 049a 9342     		cmp	r3, r2
 2000 049c 1CD2     		bcs	.L154
 607:libs/ssdv/ssdv.c **** 			{
 2001              		.loc 1 607 4 is_stmt 1 view .LVU672
 607:libs/ssdv/ssdv.c **** 			{
 2002              		.loc 1 607 8 is_stmt 0 view .LVU673
 2003 049e 94F87830 		ldrb	r3, [r4, #120]	@ zero_extendqisi2
 607:libs/ssdv/ssdv.c **** 			{
 2004              		.loc 1 607 6 view .LVU674
 2005 04a2 23B9     		cbnz	r3, .L134
 607:libs/ssdv/ssdv.c **** 			{
 2006              		.loc 1 607 33 discriminator 1 view .LVU675
 2007 04a4 A28B     		ldrh	r2, [r4, #28]
 607:libs/ssdv/ssdv.c **** 			{
 2008              		.loc 1 607 29 discriminator 1 view .LVU676
 2009 04a6 4FF6FF73 		movw	r3, #65535
 2010 04aa 9A42     		cmp	r2, r3
 2011 04ac 19D0     		beq	.L155
 2012              	.L134:
 618:libs/ssdv/ssdv.c **** 			{
 2013              		.loc 1 618 4 is_stmt 1 view .LVU677
 618:libs/ssdv/ssdv.c **** 			{
 2014              		.loc 1 618 8 is_stmt 0 view .LVU678
 2015 04ae B4F87630 		ldrh	r3, [r4, #118]
 618:libs/ssdv/ssdv.c **** 			{
 2016              		.loc 1 618 6 view .LVU679
 2017 04b2 002B     		cmp	r3, #0
 2018 04b4 3FF4C8AD 		beq	.L132
 618:libs/ssdv/ssdv.c **** 			{
 2019              		.loc 1 618 22 discriminator 1 view .LVU680
 2020 04b8 E28A     		ldrh	r2, [r4, #22]
 618:libs/ssdv/ssdv.c **** 			{
 2021              		.loc 1 618 18 discriminator 1 view .LVU681
ARM GAS  /tmp/ccKzwklo.s 			page 55


 2022 04ba 002A     		cmp	r2, #0
 2023 04bc 3FF4C4AD 		beq	.L132
 618:libs/ssdv/ssdv.c **** 			{
 2024              		.loc 1 618 57 discriminator 2 view .LVU682
 2025 04c0 B2FBF3F1 		udiv	r1, r2, r3
 2026 04c4 03FB1123 		mls	r3, r3, r1, r2
 2027 04c8 9BB2     		uxth	r3, r3
 618:libs/ssdv/ssdv.c **** 			{
 2028              		.loc 1 618 35 discriminator 2 view .LVU683
 2029 04ca 002B     		cmp	r3, #0
 2030 04cc 7FF4BCAD 		bne	.L132
 620:libs/ssdv/ssdv.c **** 				return(SSDV_FEED_ME);
 2031              		.loc 1 620 5 is_stmt 1 view .LVU684
 620:libs/ssdv/ssdv.c **** 				return(SSDV_FEED_ME);
 2032              		.loc 1 620 14 is_stmt 0 view .LVU685
 2033 04d0 84F84930 		strb	r3, [r4, #73]
 621:libs/ssdv/ssdv.c **** 			}
 2034              		.loc 1 621 5 is_stmt 1 view .LVU686
 621:libs/ssdv/ssdv.c **** 			}
 2035              		.loc 1 621 11 is_stmt 0 view .LVU687
 2036 04d4 0120     		movs	r0, #1
 2037 04d6 CBE5     		b	.L100
 2038              	.L154:
 602:libs/ssdv/ssdv.c **** 				return(SSDV_EOI);
 2039              		.loc 1 602 5 is_stmt 1 view .LVU688
 2040 04d8 2046     		mov	r0, r4
 2041 04da FFF7FEFF 		bl	ssdv_outbits_sync
 2042              	.LVL204:
 603:libs/ssdv/ssdv.c **** 			}
 2043              		.loc 1 603 5 view .LVU689
 603:libs/ssdv/ssdv.c **** 			}
 2044              		.loc 1 603 11 is_stmt 0 view .LVU690
 2045 04de 0420     		movs	r0, #4
 2046 04e0 C6E5     		b	.L100
 2047              	.L155:
 610:libs/ssdv/ssdv.c **** 				
 2048              		.loc 1 610 5 is_stmt 1 view .LVU691
 2049 04e2 2046     		mov	r0, r4
 2050 04e4 FFF7FEFF 		bl	ssdv_outbits_sync
 2051              	.LVL205:
 612:libs/ssdv/ssdv.c **** 				s->packet_mcu_id = s->mcu_id;
 2052              		.loc 1 612 5 view .LVU692
 612:libs/ssdv/ssdv.c **** 				s->packet_mcu_id = s->mcu_id;
 2053              		.loc 1 612 26 is_stmt 0 view .LVU693
 2054 04e8 E38A     		ldrh	r3, [r4, #22]
 612:libs/ssdv/ssdv.c **** 				s->packet_mcu_id = s->mcu_id;
 2055              		.loc 1 612 23 view .LVU694
 2056 04ea C4F88030 		str	r3, [r4, #128]
 613:libs/ssdv/ssdv.c **** 				s->packet_mcu_offset = s->pkt_size_payload - s->out_len + ((s->outlen + 7) / 8);
 2057              		.loc 1 613 5 is_stmt 1 view .LVU695
 613:libs/ssdv/ssdv.c **** 				s->packet_mcu_offset = s->pkt_size_payload - s->out_len + ((s->outlen + 7) / 8);
 2058              		.loc 1 613 22 is_stmt 0 view .LVU696
 2059 04ee A383     		strh	r3, [r4, #28]	@ movhi
 614:libs/ssdv/ssdv.c **** 			}
 2060              		.loc 1 614 5 is_stmt 1 view .LVU697
 614:libs/ssdv/ssdv.c **** 			}
 2061              		.loc 1 614 29 is_stmt 0 view .LVU698
ARM GAS  /tmp/ccKzwklo.s 			page 56


 2062 04f0 6388     		ldrh	r3, [r4, #2]
 614:libs/ssdv/ssdv.c **** 			}
 2063              		.loc 1 614 51 view .LVU699
 2064 04f2 E26B     		ldr	r2, [r4, #60]
 614:libs/ssdv/ssdv.c **** 			}
 2065              		.loc 1 614 48 view .LVU700
 2066 04f4 9B1A     		subs	r3, r3, r2
 2067 04f6 DBB2     		uxtb	r3, r3
 614:libs/ssdv/ssdv.c **** 			}
 2068              		.loc 1 614 66 view .LVU701
 2069 04f8 94F84820 		ldrb	r2, [r4, #72]	@ zero_extendqisi2
 614:libs/ssdv/ssdv.c **** 			}
 2070              		.loc 1 614 80 view .LVU702
 2071 04fc 0732     		adds	r2, r2, #7
 614:libs/ssdv/ssdv.c **** 			}
 2072              		.loc 1 614 61 view .LVU703
 2073 04fe 03EBE203 		add	r3, r3, r2, asr #3
 614:libs/ssdv/ssdv.c **** 			}
 2074              		.loc 1 614 26 view .LVU704
 2075 0502 A377     		strb	r3, [r4, #30]
 2076 0504 D3E7     		b	.L134
 2077              	.L136:
 626:libs/ssdv/ssdv.c **** 		
 2078              		.loc 1 626 8 is_stmt 1 view .LVU705
 626:libs/ssdv/ssdv.c **** 		
 2079              		.loc 1 626 34 is_stmt 0 view .LVU706
 2080 0506 9B1A     		subs	r3, r3, r2
 2081 0508 DBB2     		uxtb	r3, r3
 626:libs/ssdv/ssdv.c **** 		
 2082              		.loc 1 626 47 view .LVU707
 2083 050a 0133     		adds	r3, r3, #1
 626:libs/ssdv/ssdv.c **** 		
 2084              		.loc 1 626 21 view .LVU708
 2085 050c 84F85730 		strb	r3, [r4, #87]
 2086 0510 A4E5     		b	.L137
 2087              	.LVL206:
 2088              	.L139:
 2089              	.LBB35:
 499:libs/ssdv/ssdv.c **** 		
 2090              		.loc 1 499 38 view .LVU709
 2091 0512 0120     		movs	r0, #1
 2092              	.LVL207:
 499:libs/ssdv/ssdv.c **** 		
 2093              		.loc 1 499 38 view .LVU710
 2094 0514 ACE5     		b	.L100
 2095              	.L141:
 499:libs/ssdv/ssdv.c **** 		
 2096              		.loc 1 499 38 view .LVU711
 2097              	.LBE35:
 632:libs/ssdv/ssdv.c **** 	
 2098              		.loc 1 632 28 view .LVU712
 2099 0516 0320     		movs	r0, #3
 2100 0518 AAE5     		b	.L100
 2101              		.cfi_endproc
 2102              	.LFE16:
 2104              		.section	.text.ssdv_set_packet_conf,"ax",%progbits
 2105              		.align	1
ARM GAS  /tmp/ccKzwklo.s 			page 57


 2106              		.syntax unified
 2107              		.thumb
 2108              		.thumb_func
 2109              		.fpu softvfp
 2111              	ssdv_set_packet_conf:
 2112              	.LVL208:
 2113              	.LFB17:
 636:libs/ssdv/ssdv.c **** 
 637:libs/ssdv/ssdv.c **** static void ssdv_set_packet_conf(ssdv_t *s)
 638:libs/ssdv/ssdv.c **** {
 2114              		.loc 1 638 1 is_stmt 1 view -0
 2115              		.cfi_startproc
 2116              		@ args = 0, pretend = 0, frame = 0
 2117              		@ frame_needed = 0, uses_anonymous_args = 0
 2118              		@ link register save eliminated.
 639:libs/ssdv/ssdv.c **** 	/* Configure the payload size and CRC position */
 640:libs/ssdv/ssdv.c **** 	switch(s->type)
 2119              		.loc 1 640 2 view .LVU714
 2120              		.loc 1 640 10 is_stmt 0 view .LVU715
 2121 0000 0378     		ldrb	r3, [r0]	@ zero_extendqisi2
 2122              		.loc 1 640 2 view .LVU716
 2123 0002 13B1     		cbz	r3, .L157
 2124 0004 012B     		cmp	r3, #1
 2125 0006 05D0     		beq	.L158
 2126 0008 7047     		bx	lr
 2127              	.L157:
 641:libs/ssdv/ssdv.c **** 	{
 642:libs/ssdv/ssdv.c **** 	case SSDV_TYPE_NORMAL:
 643:libs/ssdv/ssdv.c **** 		s->pkt_size_payload = SSDV_PKT_SIZE - SSDV_PKT_SIZE_HEADER - SSDV_PKT_SIZE_CRC - SSDV_PKT_SIZE_RS
 2128              		.loc 1 643 3 is_stmt 1 view .LVU717
 2129              		.loc 1 643 23 is_stmt 0 view .LVU718
 2130 000a AD23     		movs	r3, #173
 2131 000c 4380     		strh	r3, [r0, #2]	@ movhi
 644:libs/ssdv/ssdv.c **** 		s->pkt_size_crcdata = SSDV_PKT_SIZE_HEADER + s->pkt_size_payload - 1;
 2132              		.loc 1 644 3 is_stmt 1 view .LVU719
 2133              		.loc 1 644 23 is_stmt 0 view .LVU720
 2134 000e BB23     		movs	r3, #187
 2135 0010 8380     		strh	r3, [r0, #4]	@ movhi
 645:libs/ssdv/ssdv.c **** 		break;
 2136              		.loc 1 645 3 is_stmt 1 view .LVU721
 2137 0012 7047     		bx	lr
 2138              	.L158:
 646:libs/ssdv/ssdv.c **** 	
 647:libs/ssdv/ssdv.c **** 	case SSDV_TYPE_NOFEC:
 648:libs/ssdv/ssdv.c **** 		s->pkt_size_payload = SSDV_PKT_SIZE - SSDV_PKT_SIZE_HEADER - SSDV_PKT_SIZE_CRC;
 2139              		.loc 1 648 3 view .LVU722
 2140              		.loc 1 648 23 is_stmt 0 view .LVU723
 2141 0014 CD23     		movs	r3, #205
 2142 0016 4380     		strh	r3, [r0, #2]	@ movhi
 649:libs/ssdv/ssdv.c **** 		s->pkt_size_crcdata = SSDV_PKT_SIZE_HEADER + s->pkt_size_payload - 1;
 2143              		.loc 1 649 3 is_stmt 1 view .LVU724
 2144              		.loc 1 649 23 is_stmt 0 view .LVU725
 2145 0018 DB23     		movs	r3, #219
 2146 001a 8380     		strh	r3, [r0, #4]	@ movhi
 650:libs/ssdv/ssdv.c **** 		break;
 2147              		.loc 1 650 3 is_stmt 1 view .LVU726
 651:libs/ssdv/ssdv.c **** 	}
ARM GAS  /tmp/ccKzwklo.s 			page 58


 652:libs/ssdv/ssdv.c **** }
 2148              		.loc 1 652 1 is_stmt 0 view .LVU727
 2149 001c 7047     		bx	lr
 2150              		.cfi_endproc
 2151              	.LFE17:
 2153              		.section	.text.ssdv_memset_prng,"ax",%progbits
 2154              		.align	1
 2155              		.syntax unified
 2156              		.thumb
 2157              		.thumb_func
 2158              		.fpu softvfp
 2160              	ssdv_memset_prng:
 2161              	.LVL209:
 2162              	.LFB18:
 653:libs/ssdv/ssdv.c **** 
 654:libs/ssdv/ssdv.c **** /*****************************************************************************/
 655:libs/ssdv/ssdv.c **** 
 656:libs/ssdv/ssdv.c **** static void ssdv_memset_prng(uint8_t *s, size_t n)
 657:libs/ssdv/ssdv.c **** {
 2163              		.loc 1 657 1 is_stmt 1 view -0
 2164              		.cfi_startproc
 2165              		@ args = 0, pretend = 0, frame = 0
 2166              		@ frame_needed = 0, uses_anonymous_args = 0
 2167              		@ link register save eliminated.
 658:libs/ssdv/ssdv.c **** 	/* A very simple PRNG for noise whitening */
 659:libs/ssdv/ssdv.c **** 	uint8_t l = 0x00;
 2168              		.loc 1 659 2 view .LVU729
 660:libs/ssdv/ssdv.c **** 	for(; n > 0; n--) *(s++) = (l = l * 245 + 45);
 2169              		.loc 1 660 2 view .LVU730
 659:libs/ssdv/ssdv.c **** 	for(; n > 0; n--) *(s++) = (l = l * 245 + 45);
 2170              		.loc 1 659 10 is_stmt 0 view .LVU731
 2171 0000 0023     		movs	r3, #0
 2172              		.loc 1 660 2 view .LVU732
 2173 0002 0BE0     		b	.L161
 2174              	.LVL210:
 2175              	.L162:
 2176              		.loc 1 660 20 is_stmt 1 discriminator 2 view .LVU733
 2177              		.loc 1 660 42 is_stmt 0 discriminator 2 view .LVU734
 2178 0004 03EB8303 		add	r3, r3, r3, lsl #2
 2179              	.LVL211:
 2180              		.loc 1 660 42 discriminator 2 view .LVU735
 2181 0008 C3EBC303 		rsb	r3, r3, r3, lsl #3
 2182 000c C3EBC303 		rsb	r3, r3, r3, lsl #3
 2183 0010 DBB2     		uxtb	r3, r3
 2184              		.loc 1 660 32 discriminator 2 view .LVU736
 2185 0012 2D33     		adds	r3, r3, #45
 2186 0014 DBB2     		uxtb	r3, r3
 2187              	.LVL212:
 2188              		.loc 1 660 27 discriminator 2 view .LVU737
 2189 0016 00F8013B 		strb	r3, [r0], #1
 2190              	.LVL213:
 2191              		.loc 1 660 15 is_stmt 1 discriminator 2 view .LVU738
 2192              		.loc 1 660 16 is_stmt 0 discriminator 2 view .LVU739
 2193 001a 0139     		subs	r1, r1, #1
 2194              	.LVL214:
 2195              	.L161:
 2196              		.loc 1 660 8 is_stmt 1 discriminator 1 view .LVU740
ARM GAS  /tmp/ccKzwklo.s 			page 59


 2197              		.loc 1 660 2 is_stmt 0 discriminator 1 view .LVU741
 2198 001c 0029     		cmp	r1, #0
 2199 001e F1D1     		bne	.L162
 661:libs/ssdv/ssdv.c **** }
 2200              		.loc 1 661 1 view .LVU742
 2201 0020 7047     		bx	lr
 2202              		.cfi_endproc
 2203              	.LFE18:
 2205              		.section	.text.ssdv_have_marker,"ax",%progbits
 2206              		.align	1
 2207              		.syntax unified
 2208              		.thumb
 2209              		.thumb_func
 2210              		.fpu softvfp
 2212              	ssdv_have_marker:
 2213              	.LVL215:
 2214              	.LFB19:
 662:libs/ssdv/ssdv.c **** 
 663:libs/ssdv/ssdv.c **** static char ssdv_have_marker(ssdv_t *s)
 664:libs/ssdv/ssdv.c **** {
 2215              		.loc 1 664 1 is_stmt 1 view -0
 2216              		.cfi_startproc
 2217              		@ args = 0, pretend = 0, frame = 0
 2218              		@ frame_needed = 0, uses_anonymous_args = 0
 2219              		@ link register save eliminated.
 665:libs/ssdv/ssdv.c **** 	switch(s->marker)
 2220              		.loc 1 665 2 view .LVU744
 2221              		.loc 1 665 10 is_stmt 0 view .LVU745
 2222 0000 B0F84A30 		ldrh	r3, [r0, #74]
 2223              		.loc 1 665 2 view .LVU746
 2224 0004 A3F57F43 		sub	r3, r3, #65280
 2225 0008 C03B     		subs	r3, r3, #192
 2226 000a 1D2B     		cmp	r3, #29
 2227 000c 40D8     		bhi	.L164
 2228 000e DFE803F0 		tbb	[pc, r3]
 2229              	.L166:
 2230 0012 0F       		.byte	(.L165-.L166)/2
 2231 0013 3F       		.byte	(.L164-.L166)/2
 2232 0014 47       		.byte	(.L170-.L166)/2
 2233 0015 3F       		.byte	(.L164-.L166)/2
 2234 0016 0F       		.byte	(.L165-.L166)/2
 2235 0017 3F       		.byte	(.L164-.L166)/2
 2236 0018 3F       		.byte	(.L164-.L166)/2
 2237 0019 3F       		.byte	(.L164-.L166)/2
 2238 001a 3F       		.byte	(.L164-.L166)/2
 2239 001b 3F       		.byte	(.L164-.L166)/2
 2240 001c 3F       		.byte	(.L164-.L166)/2
 2241 001d 3F       		.byte	(.L164-.L166)/2
 2242 001e 3F       		.byte	(.L164-.L166)/2
 2243 001f 3F       		.byte	(.L164-.L166)/2
 2244 0020 3F       		.byte	(.L164-.L166)/2
 2245 0021 3F       		.byte	(.L164-.L166)/2
 2246 0022 29       		.byte	(.L168-.L166)/2
 2247 0023 29       		.byte	(.L168-.L166)/2
 2248 0024 29       		.byte	(.L168-.L166)/2
 2249 0025 29       		.byte	(.L168-.L166)/2
 2250 0026 29       		.byte	(.L168-.L166)/2
ARM GAS  /tmp/ccKzwklo.s 			page 60


 2251 0027 29       		.byte	(.L168-.L166)/2
 2252 0028 29       		.byte	(.L168-.L166)/2
 2253 0029 29       		.byte	(.L168-.L166)/2
 2254 002a 3F       		.byte	(.L164-.L166)/2
 2255 002b 24       		.byte	(.L167-.L166)/2
 2256 002c 0F       		.byte	(.L165-.L166)/2
 2257 002d 0F       		.byte	(.L165-.L166)/2
 2258 002e 3F       		.byte	(.L164-.L166)/2
 2259 002f 0F       		.byte	(.L165-.L166)/2
 2260              		.p2align 1
 2261              	.L165:
 666:libs/ssdv/ssdv.c **** 	{
 667:libs/ssdv/ssdv.c **** 	case J_SOF0:
 668:libs/ssdv/ssdv.c **** 	case J_SOS:
 669:libs/ssdv/ssdv.c **** 	case J_DRI:
 670:libs/ssdv/ssdv.c **** 	case J_DHT:
 671:libs/ssdv/ssdv.c **** 	case J_DQT:
 672:libs/ssdv/ssdv.c **** 		/* Copy the data before processing */
 673:libs/ssdv/ssdv.c **** 		if(s->marker_len > TBL_LEN + HBUFF_LEN - s->stbl_len)
 2262              		.loc 1 673 3 is_stmt 1 view .LVU747
 2263              		.loc 1 673 7 is_stmt 0 view .LVU748
 2264 0030 B0F84C10 		ldrh	r1, [r0, #76]
 2265              		.loc 1 673 45 view .LVU749
 2266 0034 B0F8D032 		ldrh	r3, [r0, #720]
 2267              		.loc 1 673 42 view .LVU750
 2268 0038 C3F50C72 		rsb	r2, r3, #560
 2269 003c 0232     		adds	r2, r2, #2
 2270              		.loc 1 673 5 view .LVU751
 2271 003e 9142     		cmp	r1, r2
 2272 0040 30DC     		bgt	.L171
 674:libs/ssdv/ssdv.c **** 		{
 675:libs/ssdv/ssdv.c **** 			/* Not enough memory ... shouldn't happen! */
 676:libs/ssdv/ssdv.c **** 			return(SSDV_ERROR);
 677:libs/ssdv/ssdv.c **** 		}
 678:libs/ssdv/ssdv.c **** 		
 679:libs/ssdv/ssdv.c **** 		s->marker_data     = &s->stbls[s->stbl_len];
 2273              		.loc 1 679 3 is_stmt 1 view .LVU752
 2274              		.loc 1 679 24 is_stmt 0 view .LVU753
 2275 0042 8033     		adds	r3, r3, #128
 2276 0044 0344     		add	r3, r3, r0
 2277 0046 0533     		adds	r3, r3, #5
 2278              		.loc 1 679 22 view .LVU754
 2279 0048 0365     		str	r3, [r0, #80]
 680:libs/ssdv/ssdv.c **** 		s->marker_data_len = 0;
 2280              		.loc 1 680 3 is_stmt 1 view .LVU755
 2281              		.loc 1 680 22 is_stmt 0 view .LVU756
 2282 004a 0023     		movs	r3, #0
 2283 004c A0F85430 		strh	r3, [r0, #84]	@ movhi
 681:libs/ssdv/ssdv.c **** 		s->state           = S_MARKER_DATA;
 2284              		.loc 1 681 3 is_stmt 1 view .LVU757
 2285              		.loc 1 681 22 is_stmt 0 view .LVU758
 2286 0050 0222     		movs	r2, #2
 2287 0052 80F84920 		strb	r2, [r0, #73]
 682:libs/ssdv/ssdv.c **** 		break;
 2288              		.loc 1 682 3 is_stmt 1 view .LVU759
 683:libs/ssdv/ssdv.c **** 	
 684:libs/ssdv/ssdv.c **** 	case J_SOF2:
ARM GAS  /tmp/ccKzwklo.s 			page 61


 685:libs/ssdv/ssdv.c **** 		/* Don't do progressive images! */
 686:libs/ssdv/ssdv.c **** 		return(SSDV_ERROR);
 687:libs/ssdv/ssdv.c **** 	
 688:libs/ssdv/ssdv.c **** 	case J_EOI:
 689:libs/ssdv/ssdv.c **** 		s->state = S_EOI;
 690:libs/ssdv/ssdv.c **** 		break;
 691:libs/ssdv/ssdv.c **** 	
 692:libs/ssdv/ssdv.c **** 	case J_RST0:
 693:libs/ssdv/ssdv.c **** 	case J_RST1:
 694:libs/ssdv/ssdv.c **** 	case J_RST2:
 695:libs/ssdv/ssdv.c **** 	case J_RST3:
 696:libs/ssdv/ssdv.c **** 	case J_RST4:
 697:libs/ssdv/ssdv.c **** 	case J_RST5:
 698:libs/ssdv/ssdv.c **** 	case J_RST6:
 699:libs/ssdv/ssdv.c **** 	case J_RST7:
 700:libs/ssdv/ssdv.c **** 		s->dc[0]  = s->dc[1]  = s->dc[2]  = 0;
 701:libs/ssdv/ssdv.c **** 		s->mcupart = s->acpart = s->component = 0;
 702:libs/ssdv/ssdv.c **** 		s->acrle = s->accrle = 0;
 703:libs/ssdv/ssdv.c **** 		s->workbits = s->worklen = 0;
 704:libs/ssdv/ssdv.c **** 		s->state = S_HUFF;
 705:libs/ssdv/ssdv.c **** 		break;
 706:libs/ssdv/ssdv.c **** 	
 707:libs/ssdv/ssdv.c **** 	default:
 708:libs/ssdv/ssdv.c **** 		/* Ignore other marks, skipping any associated data */
 709:libs/ssdv/ssdv.c **** 		s->in_skip = s->marker_len;
 710:libs/ssdv/ssdv.c **** 		s->state   = S_MARKER;
 711:libs/ssdv/ssdv.c **** 		break;
 712:libs/ssdv/ssdv.c **** 	}
 713:libs/ssdv/ssdv.c **** 	
 714:libs/ssdv/ssdv.c **** 	return(SSDV_OK);
 2289              		.loc 1 714 8 is_stmt 0 view .LVU760
 2290 0056 1846     		mov	r0, r3
 2291              	.LVL216:
 682:libs/ssdv/ssdv.c **** 		break;
 2292              		.loc 1 682 3 view .LVU761
 2293 0058 7047     		bx	lr
 2294              	.LVL217:
 2295              	.L167:
 689:libs/ssdv/ssdv.c **** 		break;
 2296              		.loc 1 689 3 is_stmt 1 view .LVU762
 689:libs/ssdv/ssdv.c **** 		break;
 2297              		.loc 1 689 12 is_stmt 0 view .LVU763
 2298 005a 0523     		movs	r3, #5
 2299 005c 80F84930 		strb	r3, [r0, #73]
 690:libs/ssdv/ssdv.c **** 	
 2300              		.loc 1 690 3 is_stmt 1 view .LVU764
 2301              		.loc 1 714 8 is_stmt 0 view .LVU765
 2302 0060 0020     		movs	r0, #0
 2303              	.LVL218:
 690:libs/ssdv/ssdv.c **** 	
 2304              		.loc 1 690 3 view .LVU766
 2305 0062 7047     		bx	lr
 2306              	.LVL219:
 2307              	.L168:
 700:libs/ssdv/ssdv.c **** 		s->mcupart = s->acpart = s->component = 0;
 2308              		.loc 1 700 3 is_stmt 1 view .LVU767
 700:libs/ssdv/ssdv.c **** 		s->mcupart = s->acpart = s->component = 0;
ARM GAS  /tmp/ccKzwklo.s 			page 62


 2309              		.loc 1 700 37 is_stmt 0 view .LVU768
 2310 0064 0023     		movs	r3, #0
 2311 0066 4366     		str	r3, [r0, #100]
 700:libs/ssdv/ssdv.c **** 		s->mcupart = s->acpart = s->component = 0;
 2312              		.loc 1 700 25 view .LVU769
 2313 0068 0366     		str	r3, [r0, #96]
 700:libs/ssdv/ssdv.c **** 		s->mcupart = s->acpart = s->component = 0;
 2314              		.loc 1 700 13 view .LVU770
 2315 006a C365     		str	r3, [r0, #92]
 701:libs/ssdv/ssdv.c **** 		s->acrle = s->accrle = 0;
 2316              		.loc 1 701 3 is_stmt 1 view .LVU771
 701:libs/ssdv/ssdv.c **** 		s->acrle = s->accrle = 0;
 2317              		.loc 1 701 41 is_stmt 0 view .LVU772
 2318 006c 80F85730 		strb	r3, [r0, #87]
 701:libs/ssdv/ssdv.c **** 		s->acrle = s->accrle = 0;
 2319              		.loc 1 701 26 view .LVU773
 2320 0070 80F85A30 		strb	r3, [r0, #90]
 701:libs/ssdv/ssdv.c **** 		s->acrle = s->accrle = 0;
 2321              		.loc 1 701 14 view .LVU774
 2322 0074 80F85930 		strb	r3, [r0, #89]
 702:libs/ssdv/ssdv.c **** 		s->workbits = s->worklen = 0;
 2323              		.loc 1 702 3 is_stmt 1 view .LVU775
 702:libs/ssdv/ssdv.c **** 		s->workbits = s->worklen = 0;
 2324              		.loc 1 702 24 is_stmt 0 view .LVU776
 2325 0078 80F87530 		strb	r3, [r0, #117]
 702:libs/ssdv/ssdv.c **** 		s->workbits = s->worklen = 0;
 2326              		.loc 1 702 12 view .LVU777
 2327 007c 80F87430 		strb	r3, [r0, #116]
 703:libs/ssdv/ssdv.c **** 		s->state = S_HUFF;
 2328              		.loc 1 703 3 is_stmt 1 view .LVU778
 703:libs/ssdv/ssdv.c **** 		s->state = S_HUFF;
 2329              		.loc 1 703 28 is_stmt 0 view .LVU779
 2330 0080 80F83030 		strb	r3, [r0, #48]
 703:libs/ssdv/ssdv.c **** 		s->state = S_HUFF;
 2331              		.loc 1 703 15 view .LVU780
 2332 0084 C362     		str	r3, [r0, #44]
 704:libs/ssdv/ssdv.c **** 		break;
 2333              		.loc 1 704 3 is_stmt 1 view .LVU781
 704:libs/ssdv/ssdv.c **** 		break;
 2334              		.loc 1 704 12 is_stmt 0 view .LVU782
 2335 0086 0322     		movs	r2, #3
 2336 0088 80F84920 		strb	r2, [r0, #73]
 705:libs/ssdv/ssdv.c **** 	
 2337              		.loc 1 705 3 is_stmt 1 view .LVU783
 2338              		.loc 1 714 8 is_stmt 0 view .LVU784
 2339 008c 1846     		mov	r0, r3
 2340              	.LVL220:
 705:libs/ssdv/ssdv.c **** 	
 2341              		.loc 1 705 3 view .LVU785
 2342 008e 7047     		bx	lr
 2343              	.LVL221:
 2344              	.L164:
 709:libs/ssdv/ssdv.c **** 		s->state   = S_MARKER;
 2345              		.loc 1 709 3 is_stmt 1 view .LVU786
 709:libs/ssdv/ssdv.c **** 		s->state   = S_MARKER;
 2346              		.loc 1 709 17 is_stmt 0 view .LVU787
 2347 0090 B0F84C30 		ldrh	r3, [r0, #76]
ARM GAS  /tmp/ccKzwklo.s 			page 63


 709:libs/ssdv/ssdv.c **** 		s->state   = S_MARKER;
 2348              		.loc 1 709 14 view .LVU788
 2349 0094 8362     		str	r3, [r0, #40]
 710:libs/ssdv/ssdv.c **** 		break;
 2350              		.loc 1 710 3 is_stmt 1 view .LVU789
 710:libs/ssdv/ssdv.c **** 		break;
 2351              		.loc 1 710 14 is_stmt 0 view .LVU790
 2352 0096 0023     		movs	r3, #0
 2353 0098 80F84930 		strb	r3, [r0, #73]
 711:libs/ssdv/ssdv.c **** 	}
 2354              		.loc 1 711 3 is_stmt 1 view .LVU791
 2355              		.loc 1 714 8 is_stmt 0 view .LVU792
 2356 009c 1846     		mov	r0, r3
 2357              	.LVL222:
 711:libs/ssdv/ssdv.c **** 	}
 2358              		.loc 1 711 3 view .LVU793
 2359 009e 7047     		bx	lr
 2360              	.LVL223:
 2361              	.L170:
 665:libs/ssdv/ssdv.c **** 	{
 2362              		.loc 1 665 2 view .LVU794
 2363 00a0 FF20     		movs	r0, #255
 2364              	.LVL224:
 665:libs/ssdv/ssdv.c **** 	{
 2365              		.loc 1 665 2 view .LVU795
 2366 00a2 7047     		bx	lr
 2367              	.LVL225:
 2368              	.L171:
 676:libs/ssdv/ssdv.c **** 		}
 2369              		.loc 1 676 10 view .LVU796
 2370 00a4 FF20     		movs	r0, #255
 2371              	.LVL226:
 715:libs/ssdv/ssdv.c **** }
 2372              		.loc 1 715 1 view .LVU797
 2373 00a6 7047     		bx	lr
 2374              		.cfi_endproc
 2375              	.LFE19:
 2377              		.section	.text.ssdv_have_marker_data,"ax",%progbits
 2378              		.align	1
 2379              		.syntax unified
 2380              		.thumb
 2381              		.thumb_func
 2382              		.fpu softvfp
 2384              	ssdv_have_marker_data:
 2385              	.LVL227:
 2386              	.LFB20:
 716:libs/ssdv/ssdv.c **** 
 717:libs/ssdv/ssdv.c **** static char ssdv_have_marker_data(ssdv_t *s)
 718:libs/ssdv/ssdv.c **** {
 2387              		.loc 1 718 1 is_stmt 1 view -0
 2388              		.cfi_startproc
 2389              		@ args = 0, pretend = 0, frame = 0
 2390              		@ frame_needed = 0, uses_anonymous_args = 0
 2391              		.loc 1 718 1 is_stmt 0 view .LVU799
 2392 0000 30B5     		push	{r4, r5, lr}
 2393              	.LCFI8:
 2394              		.cfi_def_cfa_offset 12
ARM GAS  /tmp/ccKzwklo.s 			page 64


 2395              		.cfi_offset 4, -12
 2396              		.cfi_offset 5, -8
 2397              		.cfi_offset 14, -4
 719:libs/ssdv/ssdv.c **** 	uint8_t *d = s->marker_data;
 2398              		.loc 1 719 2 is_stmt 1 view .LVU800
 2399              		.loc 1 719 11 is_stmt 0 view .LVU801
 2400 0002 046D     		ldr	r4, [r0, #80]
 2401              	.LVL228:
 720:libs/ssdv/ssdv.c **** 	size_t l = s->marker_len;
 2402              		.loc 1 720 2 is_stmt 1 view .LVU802
 2403              		.loc 1 720 14 is_stmt 0 view .LVU803
 2404 0004 B0F84C20 		ldrh	r2, [r0, #76]
 2405              		.loc 1 720 9 view .LVU804
 2406 0008 1546     		mov	r5, r2
 2407              	.LVL229:
 721:libs/ssdv/ssdv.c **** 	int i;
 2408              		.loc 1 721 2 is_stmt 1 view .LVU805
 722:libs/ssdv/ssdv.c **** 	
 723:libs/ssdv/ssdv.c **** 	switch(s->marker)
 2409              		.loc 1 723 2 view .LVU806
 2410              		.loc 1 723 10 is_stmt 0 view .LVU807
 2411 000a B0F84A30 		ldrh	r3, [r0, #74]
 2412              		.loc 1 723 2 view .LVU808
 2413 000e A3F57F43 		sub	r3, r3, #65280
 2414 0012 C03B     		subs	r3, r3, #192
 2415 0014 1D2B     		cmp	r3, #29
 2416 0016 00F25881 		bhi	.L173
 2417 001a DFE813F0 		tbh	[pc, r3, lsl #1]
 2418              	.L175:
 2419 001e 1E00     		.2byte	(.L179-.L175)/2
 2420 0020 5601     		.2byte	(.L173-.L175)/2
 2421 0022 5601     		.2byte	(.L173-.L175)/2
 2422 0024 5601     		.2byte	(.L173-.L175)/2
 2423 0026 F600     		.2byte	(.L178-.L175)/2
 2424 0028 5601     		.2byte	(.L173-.L175)/2
 2425 002a 5601     		.2byte	(.L173-.L175)/2
 2426 002c 5601     		.2byte	(.L173-.L175)/2
 2427 002e 5601     		.2byte	(.L173-.L175)/2
 2428 0030 5601     		.2byte	(.L173-.L175)/2
 2429 0032 5601     		.2byte	(.L173-.L175)/2
 2430 0034 5601     		.2byte	(.L173-.L175)/2
 2431 0036 5601     		.2byte	(.L173-.L175)/2
 2432 0038 5601     		.2byte	(.L173-.L175)/2
 2433 003a 5601     		.2byte	(.L173-.L175)/2
 2434 003c 5601     		.2byte	(.L173-.L175)/2
 2435 003e 5601     		.2byte	(.L173-.L175)/2
 2436 0040 5601     		.2byte	(.L173-.L175)/2
 2437 0042 5601     		.2byte	(.L173-.L175)/2
 2438 0044 5601     		.2byte	(.L173-.L175)/2
 2439 0046 5601     		.2byte	(.L173-.L175)/2
 2440 0048 5601     		.2byte	(.L173-.L175)/2
 2441 004a 5601     		.2byte	(.L173-.L175)/2
 2442 004c 5601     		.2byte	(.L173-.L175)/2
 2443 004e 5601     		.2byte	(.L173-.L175)/2
 2444 0050 5601     		.2byte	(.L173-.L175)/2
 2445 0052 C700     		.2byte	(.L177-.L175)/2
 2446 0054 3D01     		.2byte	(.L176-.L175)/2
ARM GAS  /tmp/ccKzwklo.s 			page 65


 2447 0056 5601     		.2byte	(.L173-.L175)/2
 2448 0058 5001     		.2byte	(.L174-.L175)/2
 2449              		.p2align 1
 2450              	.L179:
 724:libs/ssdv/ssdv.c **** 	{
 725:libs/ssdv/ssdv.c **** 	case J_SOF0:
 726:libs/ssdv/ssdv.c **** 		s->width  = (d[3] << 8) | d[4];
 2451              		.loc 1 726 3 is_stmt 1 view .LVU809
 2452              		.loc 1 726 17 is_stmt 0 view .LVU810
 2453 005a E378     		ldrb	r3, [r4, #3]	@ zero_extendqisi2
 2454              		.loc 1 726 30 view .LVU811
 2455 005c 2179     		ldrb	r1, [r4, #4]	@ zero_extendqisi2
 2456              		.loc 1 726 27 view .LVU812
 2457 005e 41EA0321 		orr	r1, r1, r3, lsl #8
 2458              		.loc 1 726 13 view .LVU813
 2459 0062 C180     		strh	r1, [r0, #6]	@ movhi
 727:libs/ssdv/ssdv.c **** 		s->height = (d[1] << 8) | d[2];
 2460              		.loc 1 727 3 is_stmt 1 view .LVU814
 2461              		.loc 1 727 17 is_stmt 0 view .LVU815
 2462 0064 6378     		ldrb	r3, [r4, #1]	@ zero_extendqisi2
 2463              		.loc 1 727 30 view .LVU816
 2464 0066 94F802C0 		ldrb	ip, [r4, #2]	@ zero_extendqisi2
 2465              		.loc 1 727 27 view .LVU817
 2466 006a 4CEA032C 		orr	ip, ip, r3, lsl #8
 2467              		.loc 1 727 13 view .LVU818
 2468 006e A0F808C0 		strh	ip, [r0, #8]	@ movhi
 728:libs/ssdv/ssdv.c **** 		
 729:libs/ssdv/ssdv.c **** 		/* The image must have a precision of 8 */
 730:libs/ssdv/ssdv.c **** 		if(d[0] != 8)
 2469              		.loc 1 730 3 is_stmt 1 view .LVU819
 2470              		.loc 1 730 7 is_stmt 0 view .LVU820
 2471 0072 2378     		ldrb	r3, [r4]	@ zero_extendqisi2
 2472              		.loc 1 730 5 view .LVU821
 2473 0074 082B     		cmp	r3, #8
 2474 0076 40F02D81 		bne	.L217
 731:libs/ssdv/ssdv.c **** 		{
 732:libs/ssdv/ssdv.c **** 			return(SSDV_ERROR);
 733:libs/ssdv/ssdv.c **** 		}
 734:libs/ssdv/ssdv.c **** 		
 735:libs/ssdv/ssdv.c **** 		/* The image must have 1 or 3 components (Y'Cb'Cr) */
 736:libs/ssdv/ssdv.c **** 		if(d[5] != 1 && d[5] != 3)
 2475              		.loc 1 736 3 is_stmt 1 view .LVU822
 2476              		.loc 1 736 7 is_stmt 0 view .LVU823
 2477 007a 6379     		ldrb	r3, [r4, #5]	@ zero_extendqisi2
 2478              		.loc 1 736 5 view .LVU824
 2479 007c 012B     		cmp	r3, #1
 2480 007e 02D0     		beq	.L181
 2481              		.loc 1 736 16 discriminator 1 view .LVU825
 2482 0080 032B     		cmp	r3, #3
 2483 0082 40F02981 		bne	.L218
 2484              	.L181:
 737:libs/ssdv/ssdv.c **** 		{
 738:libs/ssdv/ssdv.c **** 			return(SSDV_ERROR);
 739:libs/ssdv/ssdv.c **** 		}
 740:libs/ssdv/ssdv.c **** 		
 741:libs/ssdv/ssdv.c **** 		/* Maximum image is 4080x4080 */
 742:libs/ssdv/ssdv.c **** 		if(s->width > 4080 || s->height > 4080)
ARM GAS  /tmp/ccKzwklo.s 			page 66


 2485              		.loc 1 742 3 is_stmt 1 view .LVU826
 2486              		.loc 1 742 5 is_stmt 0 view .LVU827
 2487 0086 B1F57F6F 		cmp	r1, #4080
 2488 008a 00F22781 		bhi	.L219
 2489              		.loc 1 742 22 discriminator 1 view .LVU828
 2490 008e BCF57F6F 		cmp	ip, #4080
 2491 0092 00F22581 		bhi	.L220
 743:libs/ssdv/ssdv.c **** 		{
 744:libs/ssdv/ssdv.c **** 			return(SSDV_ERROR);
 745:libs/ssdv/ssdv.c **** 		}
 746:libs/ssdv/ssdv.c **** 		
 747:libs/ssdv/ssdv.c **** 		/* The image dimensions must be a multiple of 16 */
 748:libs/ssdv/ssdv.c **** 		if((s->width & 0x0F) || (s->height & 0x0F))
 2492              		.loc 1 748 3 is_stmt 1 view .LVU829
 2493              		.loc 1 748 5 is_stmt 0 view .LVU830
 2494 0096 11F00F0F 		tst	r1, #15
 2495 009a 40F02381 		bne	.L221
 2496              		.loc 1 748 24 discriminator 1 view .LVU831
 2497 009e 1CF00F0F 		tst	ip, #15
 2498 00a2 40F02181 		bne	.L222
 749:libs/ssdv/ssdv.c **** 		{
 750:libs/ssdv/ssdv.c **** 			return(SSDV_ERROR);
 751:libs/ssdv/ssdv.c **** 		}
 752:libs/ssdv/ssdv.c **** 		
 753:libs/ssdv/ssdv.c **** 		/* TODO: Read in the quantisation table ID for each component */
 754:libs/ssdv/ssdv.c **** 		// 01 22 00 02 11 01 03 11 01
 755:libs/ssdv/ssdv.c **** 		for(i = 0; i < d[5]; i++)
 2499              		.loc 1 755 9 view .LVU832
 2500 00a6 0023     		movs	r3, #0
 2501 00a8 1BE0     		b	.L182
 2502              	.LVL230:
 2503              	.L184:
 2504              	.LBB36:
 756:libs/ssdv/ssdv.c **** 		{
 757:libs/ssdv/ssdv.c **** 			uint8_t *dq = &d[i * 3 + 6];
 758:libs/ssdv/ssdv.c **** 						
 759:libs/ssdv/ssdv.c **** 			/* The first (Y) component must have a factor of 2x2,2x1,1x2 or 1x1 */
 760:libs/ssdv/ssdv.c **** 			if(i == 0)
 761:libs/ssdv/ssdv.c **** 			{
 762:libs/ssdv/ssdv.c **** 				switch(dq[1])
 763:libs/ssdv/ssdv.c **** 				{
 764:libs/ssdv/ssdv.c **** 				case 0x22: s->mcu_mode = 0; s->ycparts = 4; break;
 2505              		.loc 1 764 16 is_stmt 1 view .LVU833
 2506              		.loc 1 764 28 is_stmt 0 view .LVU834
 2507 00aa 0022     		movs	r2, #0
 2508 00ac 0275     		strb	r2, [r0, #20]
 2509              		.loc 1 764 33 is_stmt 1 view .LVU835
 2510              		.loc 1 764 44 is_stmt 0 view .LVU836
 2511 00ae 0422     		movs	r2, #4
 2512 00b0 80F85820 		strb	r2, [r0, #88]
 2513              		.loc 1 764 49 is_stmt 1 view .LVU837
 2514              		.loc 1 764 5 is_stmt 0 view .LVU838
 2515 00b4 14E0     		b	.L189
 2516              	.L187:
 765:libs/ssdv/ssdv.c **** 				case 0x12: s->mcu_mode = 1; s->ycparts = 2; break;
 2517              		.loc 1 765 16 is_stmt 1 view .LVU839
 2518              		.loc 1 765 28 is_stmt 0 view .LVU840
ARM GAS  /tmp/ccKzwklo.s 			page 67


 2519 00b6 0122     		movs	r2, #1
 2520 00b8 0275     		strb	r2, [r0, #20]
 2521              		.loc 1 765 33 is_stmt 1 view .LVU841
 2522              		.loc 1 765 44 is_stmt 0 view .LVU842
 2523 00ba 0222     		movs	r2, #2
 2524 00bc 80F85820 		strb	r2, [r0, #88]
 2525              		.loc 1 765 49 is_stmt 1 view .LVU843
 2526              		.loc 1 765 5 is_stmt 0 view .LVU844
 2527 00c0 0EE0     		b	.L189
 2528              	.L186:
 766:libs/ssdv/ssdv.c **** 				case 0x21: s->mcu_mode = 2; s->ycparts = 2; break;
 2529              		.loc 1 766 16 is_stmt 1 view .LVU845
 2530              		.loc 1 766 28 is_stmt 0 view .LVU846
 2531 00c2 0222     		movs	r2, #2
 2532 00c4 0275     		strb	r2, [r0, #20]
 2533              		.loc 1 766 33 is_stmt 1 view .LVU847
 2534              		.loc 1 766 44 is_stmt 0 view .LVU848
 2535 00c6 80F85820 		strb	r2, [r0, #88]
 2536              		.loc 1 766 49 is_stmt 1 view .LVU849
 2537              		.loc 1 766 5 is_stmt 0 view .LVU850
 2538 00ca 09E0     		b	.L189
 2539              	.L188:
 767:libs/ssdv/ssdv.c **** 				case 0x11: s->mcu_mode = 3; s->ycparts = 1; break;
 2540              		.loc 1 767 16 is_stmt 1 view .LVU851
 2541              		.loc 1 767 28 is_stmt 0 view .LVU852
 2542 00cc 0322     		movs	r2, #3
 2543 00ce 0275     		strb	r2, [r0, #20]
 2544              		.loc 1 767 33 is_stmt 1 view .LVU853
 2545              		.loc 1 767 44 is_stmt 0 view .LVU854
 2546 00d0 0122     		movs	r2, #1
 2547 00d2 80F85820 		strb	r2, [r0, #88]
 2548              		.loc 1 767 49 is_stmt 1 view .LVU855
 2549              		.loc 1 767 5 is_stmt 0 view .LVU856
 2550 00d6 03E0     		b	.L189
 2551              	.LVL231:
 2552              	.L183:
 768:libs/ssdv/ssdv.c **** 				default:
 769:libs/ssdv/ssdv.c **** 					return(SSDV_ERROR);
 770:libs/ssdv/ssdv.c **** 				}
 771:libs/ssdv/ssdv.c **** 			}
 772:libs/ssdv/ssdv.c **** 			else if(i != 0 && dq[1] != 0x11)
 2553              		.loc 1 772 9 is_stmt 1 discriminator 1 view .LVU857
 2554              		.loc 1 772 24 is_stmt 0 discriminator 1 view .LVU858
 2555 00d8 5278     		ldrb	r2, [r2, #1]	@ zero_extendqisi2
 2556              	.LVL232:
 2557              		.loc 1 772 19 discriminator 1 view .LVU859
 2558 00da 112A     		cmp	r2, #17
 2559 00dc 40F00881 		bne	.L224
 2560              	.L189:
 2561              		.loc 1 772 19 discriminator 1 view .LVU860
 2562              	.LBE36:
 755:libs/ssdv/ssdv.c **** 		{
 2563              		.loc 1 755 24 is_stmt 1 discriminator 2 view .LVU861
 755:libs/ssdv/ssdv.c **** 		{
 2564              		.loc 1 755 25 is_stmt 0 discriminator 2 view .LVU862
 2565 00e0 0133     		adds	r3, r3, #1
 2566              	.LVL233:
ARM GAS  /tmp/ccKzwklo.s 			page 68


 2567              	.L182:
 755:libs/ssdv/ssdv.c **** 		{
 2568              		.loc 1 755 14 is_stmt 1 discriminator 1 view .LVU863
 755:libs/ssdv/ssdv.c **** 		{
 2569              		.loc 1 755 19 is_stmt 0 discriminator 1 view .LVU864
 2570 00e2 6279     		ldrb	r2, [r4, #5]	@ zero_extendqisi2
 755:libs/ssdv/ssdv.c **** 		{
 2571              		.loc 1 755 3 discriminator 1 view .LVU865
 2572 00e4 9A42     		cmp	r2, r3
 2573 00e6 33DD     		ble	.L234
 2574              	.LBB37:
 757:libs/ssdv/ssdv.c **** 						
 2575              		.loc 1 757 4 is_stmt 1 view .LVU866
 757:libs/ssdv/ssdv.c **** 						
 2576              		.loc 1 757 23 is_stmt 0 view .LVU867
 2577 00e8 03EB4302 		add	r2, r3, r3, lsl #1
 757:libs/ssdv/ssdv.c **** 						
 2578              		.loc 1 757 20 view .LVU868
 2579 00ec 0632     		adds	r2, r2, #6
 757:libs/ssdv/ssdv.c **** 						
 2580              		.loc 1 757 13 view .LVU869
 2581 00ee 2244     		add	r2, r2, r4
 2582              	.LVL234:
 760:libs/ssdv/ssdv.c **** 			{
 2583              		.loc 1 760 4 is_stmt 1 view .LVU870
 760:libs/ssdv/ssdv.c **** 			{
 2584              		.loc 1 760 6 is_stmt 0 view .LVU871
 2585 00f0 002B     		cmp	r3, #0
 2586 00f2 F1D1     		bne	.L183
 762:libs/ssdv/ssdv.c **** 				{
 2587              		.loc 1 762 5 is_stmt 1 view .LVU872
 762:libs/ssdv/ssdv.c **** 				{
 2588              		.loc 1 762 14 is_stmt 0 view .LVU873
 2589 00f4 5278     		ldrb	r2, [r2, #1]	@ zero_extendqisi2
 2590              	.LVL235:
 762:libs/ssdv/ssdv.c **** 				{
 2591              		.loc 1 762 14 view .LVU874
 2592 00f6 113A     		subs	r2, r2, #17
 2593 00f8 112A     		cmp	r2, #17
 2594 00fa 00F2F780 		bhi	.L223
 2595 00fe 0FF2080E 		adr	lr, .L185
 2596 0102 5EF822F0 		ldr	pc, [lr, r2, lsl #2]
 2597 0106 00BF     		.p2align 2
 2598              	.L185:
 2599 0108 CD000000 		.word	.L188+1
 2600 010c B7000000 		.word	.L187+1
 2601 0110 ED020000 		.word	.L223+1
 2602 0114 ED020000 		.word	.L223+1
 2603 0118 ED020000 		.word	.L223+1
 2604 011c ED020000 		.word	.L223+1
 2605 0120 ED020000 		.word	.L223+1
 2606 0124 ED020000 		.word	.L223+1
 2607 0128 ED020000 		.word	.L223+1
 2608 012c ED020000 		.word	.L223+1
 2609 0130 ED020000 		.word	.L223+1
 2610 0134 ED020000 		.word	.L223+1
 2611 0138 ED020000 		.word	.L223+1
ARM GAS  /tmp/ccKzwklo.s 			page 69


 2612 013c ED020000 		.word	.L223+1
 2613 0140 ED020000 		.word	.L223+1
 2614 0144 ED020000 		.word	.L223+1
 2615 0148 C3000000 		.word	.L186+1
 2616 014c AB000000 		.word	.L184+1
 2617              	.LVL236:
 2618              		.p2align 1
 2619              	.L234:
 762:libs/ssdv/ssdv.c **** 				{
 2620              		.loc 1 762 14 view .LVU875
 2621              	.LBE37:
 773:libs/ssdv/ssdv.c **** 			{
 774:libs/ssdv/ssdv.c **** 				return(SSDV_ERROR);
 775:libs/ssdv/ssdv.c **** 			}
 776:libs/ssdv/ssdv.c **** 		}
 777:libs/ssdv/ssdv.c **** 		
 778:libs/ssdv/ssdv.c **** 		if(d[5] == 1)
 2622              		.loc 1 778 3 is_stmt 1 view .LVU876
 2623              		.loc 1 778 5 is_stmt 0 view .LVU877
 2624 0150 012A     		cmp	r2, #1
 2625 0152 06D0     		beq	.L235
 2626              	.LVL237:
 2627              	.L191:
 779:libs/ssdv/ssdv.c **** 		{
 780:libs/ssdv/ssdv.c **** 			/* Greyscale images are converted to 2x1 colour images */
 781:libs/ssdv/ssdv.c **** 			s->greyscale = 1;
 782:libs/ssdv/ssdv.c **** 			s->mcu_mode = 2;
 783:libs/ssdv/ssdv.c **** 			s->ycparts = 2;
 784:libs/ssdv/ssdv.c **** 		}
 785:libs/ssdv/ssdv.c **** 		
 786:libs/ssdv/ssdv.c **** 		/* Calculate number of MCU blocks in this image */
 787:libs/ssdv/ssdv.c **** 		switch(s->mcu_mode)
 2628              		.loc 1 787 3 is_stmt 1 view .LVU878
 2629              		.loc 1 787 11 is_stmt 0 view .LVU879
 2630 0154 037D     		ldrb	r3, [r0, #20]	@ zero_extendqisi2
 2631 0156 032B     		cmp	r3, #3
 2632 0158 10D8     		bhi	.L192
 2633 015a DFE803F0 		tbb	[pc, r3]
 2634              	.L194:
 2635 015e 0A       		.byte	(.L197-.L194)/2
 2636 015f 15       		.byte	(.L196-.L194)/2
 2637 0160 1B       		.byte	(.L195-.L194)/2
 2638 0161 21       		.byte	(.L193-.L194)/2
 2639              	.LVL238:
 2640              		.p2align 1
 2641              	.L235:
 781:libs/ssdv/ssdv.c **** 			s->mcu_mode = 2;
 2642              		.loc 1 781 4 is_stmt 1 view .LVU880
 781:libs/ssdv/ssdv.c **** 			s->mcu_mode = 2;
 2643              		.loc 1 781 17 is_stmt 0 view .LVU881
 2644 0162 0123     		movs	r3, #1
 2645              	.LVL239:
 781:libs/ssdv/ssdv.c **** 			s->mcu_mode = 2;
 2646              		.loc 1 781 17 view .LVU882
 2647 0164 80F85630 		strb	r3, [r0, #86]
 782:libs/ssdv/ssdv.c **** 			s->ycparts = 2;
 2648              		.loc 1 782 4 is_stmt 1 view .LVU883
ARM GAS  /tmp/ccKzwklo.s 			page 70


 782:libs/ssdv/ssdv.c **** 			s->ycparts = 2;
 2649              		.loc 1 782 16 is_stmt 0 view .LVU884
 2650 0168 0223     		movs	r3, #2
 2651 016a 0375     		strb	r3, [r0, #20]
 783:libs/ssdv/ssdv.c **** 		}
 2652              		.loc 1 783 4 is_stmt 1 view .LVU885
 783:libs/ssdv/ssdv.c **** 		}
 2653              		.loc 1 783 15 is_stmt 0 view .LVU886
 2654 016c 80F85830 		strb	r3, [r0, #88]
 2655 0170 F0E7     		b	.L191
 2656              	.L197:
 788:libs/ssdv/ssdv.c **** 		{
 789:libs/ssdv/ssdv.c **** 		case 0: l = (s->width >> 4) * (s->height >> 4); break;
 2657              		.loc 1 789 11 is_stmt 1 view .LVU887
 2658              		.loc 1 789 25 is_stmt 0 view .LVU888
 2659 0172 0909     		lsrs	r1, r1, #4
 2660              		.loc 1 789 44 view .LVU889
 2661 0174 4FEA1C15 		lsr	r5, ip, #4
 2662              	.LVL240:
 2663              		.loc 1 789 31 view .LVU890
 2664 0178 01FB05F5 		mul	r5, r1, r5
 2665              	.LVL241:
 2666              		.loc 1 789 51 is_stmt 1 view .LVU891
 2667              	.L192:
 790:libs/ssdv/ssdv.c **** 		case 1: l = (s->width >> 4) * (s->height >> 3); break;
 791:libs/ssdv/ssdv.c **** 		case 2: l = (s->width >> 3) * (s->height >> 4); break;
 792:libs/ssdv/ssdv.c **** 		case 3: l = (s->width >> 3) * (s->height >> 3); break;
 793:libs/ssdv/ssdv.c **** 		}
 794:libs/ssdv/ssdv.c **** 		
 795:libs/ssdv/ssdv.c **** 		
 796:libs/ssdv/ssdv.c **** 		if(l > 0xFFFF)
 2668              		.loc 1 796 3 view .LVU892
 2669              		.loc 1 796 5 is_stmt 0 view .LVU893
 2670 017c B5F5803F 		cmp	r5, #65536
 2671 0180 80F0B880 		bcs	.L225
 797:libs/ssdv/ssdv.c **** 		{
 798:libs/ssdv/ssdv.c **** 			return(SSDV_ERROR);
 799:libs/ssdv/ssdv.c **** 		}
 800:libs/ssdv/ssdv.c **** 		
 801:libs/ssdv/ssdv.c **** 		s->mcu_count = l;
 2672              		.loc 1 801 3 is_stmt 1 view .LVU894
 2673              		.loc 1 801 16 is_stmt 0 view .LVU895
 2674 0184 0583     		strh	r5, [r0, #24]	@ movhi
 802:libs/ssdv/ssdv.c **** 		
 803:libs/ssdv/ssdv.c **** 		break;
 2675              		.loc 1 803 3 is_stmt 1 view .LVU896
 2676 0186 A0E0     		b	.L173
 2677              	.L196:
 790:libs/ssdv/ssdv.c **** 		case 2: l = (s->width >> 3) * (s->height >> 4); break;
 2678              		.loc 1 790 11 view .LVU897
 790:libs/ssdv/ssdv.c **** 		case 2: l = (s->width >> 3) * (s->height >> 4); break;
 2679              		.loc 1 790 25 is_stmt 0 view .LVU898
 2680 0188 0909     		lsrs	r1, r1, #4
 790:libs/ssdv/ssdv.c **** 		case 2: l = (s->width >> 3) * (s->height >> 4); break;
 2681              		.loc 1 790 44 view .LVU899
 2682 018a 4FEADC05 		lsr	r5, ip, #3
 2683              	.LVL242:
ARM GAS  /tmp/ccKzwklo.s 			page 71


 790:libs/ssdv/ssdv.c **** 		case 2: l = (s->width >> 3) * (s->height >> 4); break;
 2684              		.loc 1 790 31 view .LVU900
 2685 018e 01FB05F5 		mul	r5, r1, r5
 2686              	.LVL243:
 790:libs/ssdv/ssdv.c **** 		case 2: l = (s->width >> 3) * (s->height >> 4); break;
 2687              		.loc 1 790 51 is_stmt 1 view .LVU901
 790:libs/ssdv/ssdv.c **** 		case 2: l = (s->width >> 3) * (s->height >> 4); break;
 2688              		.loc 1 790 3 is_stmt 0 view .LVU902
 2689 0192 F3E7     		b	.L192
 2690              	.L195:
 791:libs/ssdv/ssdv.c **** 		case 3: l = (s->width >> 3) * (s->height >> 3); break;
 2691              		.loc 1 791 11 is_stmt 1 view .LVU903
 791:libs/ssdv/ssdv.c **** 		case 3: l = (s->width >> 3) * (s->height >> 3); break;
 2692              		.loc 1 791 25 is_stmt 0 view .LVU904
 2693 0194 C908     		lsrs	r1, r1, #3
 791:libs/ssdv/ssdv.c **** 		case 3: l = (s->width >> 3) * (s->height >> 3); break;
 2694              		.loc 1 791 44 view .LVU905
 2695 0196 4FEA1C15 		lsr	r5, ip, #4
 2696              	.LVL244:
 791:libs/ssdv/ssdv.c **** 		case 3: l = (s->width >> 3) * (s->height >> 3); break;
 2697              		.loc 1 791 31 view .LVU906
 2698 019a 01FB05F5 		mul	r5, r1, r5
 2699              	.LVL245:
 791:libs/ssdv/ssdv.c **** 		case 3: l = (s->width >> 3) * (s->height >> 3); break;
 2700              		.loc 1 791 51 is_stmt 1 view .LVU907
 791:libs/ssdv/ssdv.c **** 		case 3: l = (s->width >> 3) * (s->height >> 3); break;
 2701              		.loc 1 791 3 is_stmt 0 view .LVU908
 2702 019e EDE7     		b	.L192
 2703              	.L193:
 792:libs/ssdv/ssdv.c **** 		}
 2704              		.loc 1 792 11 is_stmt 1 view .LVU909
 792:libs/ssdv/ssdv.c **** 		}
 2705              		.loc 1 792 25 is_stmt 0 view .LVU910
 2706 01a0 C908     		lsrs	r1, r1, #3
 792:libs/ssdv/ssdv.c **** 		}
 2707              		.loc 1 792 44 view .LVU911
 2708 01a2 4FEADC05 		lsr	r5, ip, #3
 2709              	.LVL246:
 792:libs/ssdv/ssdv.c **** 		}
 2710              		.loc 1 792 31 view .LVU912
 2711 01a6 01FB05F5 		mul	r5, r1, r5
 2712              	.LVL247:
 792:libs/ssdv/ssdv.c **** 		}
 2713              		.loc 1 792 51 is_stmt 1 view .LVU913
 792:libs/ssdv/ssdv.c **** 		}
 2714              		.loc 1 792 3 is_stmt 0 view .LVU914
 2715 01aa E7E7     		b	.L192
 2716              	.LVL248:
 2717              	.L177:
 804:libs/ssdv/ssdv.c **** 	
 805:libs/ssdv/ssdv.c **** 	case J_SOS:
 806:libs/ssdv/ssdv.c **** 		
 807:libs/ssdv/ssdv.c **** 		/* The image must have 1 or 3 components (Y'Cb'Cr) */
 808:libs/ssdv/ssdv.c **** 		if(d[0] != 1 && d[0] != 3)
 2718              		.loc 1 808 3 is_stmt 1 view .LVU915
 2719              		.loc 1 808 7 is_stmt 0 view .LVU916
 2720 01ac 2378     		ldrb	r3, [r4]	@ zero_extendqisi2
ARM GAS  /tmp/ccKzwklo.s 			page 72


 2721              		.loc 1 808 5 view .LVU917
 2722 01ae 012B     		cmp	r3, #1
 2723 01b0 02D0     		beq	.L198
 2724              		.loc 1 808 16 discriminator 1 view .LVU918
 2725 01b2 032B     		cmp	r3, #3
 2726 01b4 40F0A080 		bne	.L226
 2727              	.L198:
 809:libs/ssdv/ssdv.c **** 		{
 810:libs/ssdv/ssdv.c **** 			return(SSDV_ERROR);
 811:libs/ssdv/ssdv.c **** 		}
 812:libs/ssdv/ssdv.c **** 		
 813:libs/ssdv/ssdv.c **** 		/* Do I need to look at the last three bytes of the SOS data? */
 814:libs/ssdv/ssdv.c **** 		/* 00 3F 00 */
 815:libs/ssdv/ssdv.c **** 		
 816:libs/ssdv/ssdv.c **** 		/* Verify all of the DQT and DHT tables where loaded */
 817:libs/ssdv/ssdv.c **** 		if(!s->sdqt[0] || (d[0] > 1 && !s->sdqt[1]))
 2728              		.loc 1 817 3 is_stmt 1 view .LVU919
 2729              		.loc 1 817 14 is_stmt 0 view .LVU920
 2730 01b8 D0F8C822 		ldr	r2, [r0, #712]
 2731              	.LVL249:
 2732              		.loc 1 817 5 view .LVU921
 2733 01bc 002A     		cmp	r2, #0
 2734 01be 00F09D80 		beq	.L227
 2735              		.loc 1 817 18 discriminator 1 view .LVU922
 2736 01c2 012B     		cmp	r3, #1
 2737 01c4 04D9     		bls	.L199
 2738              		.loc 1 817 42 discriminator 2 view .LVU923
 2739 01c6 D0F8CC22 		ldr	r2, [r0, #716]
 2740              		.loc 1 817 31 discriminator 2 view .LVU924
 2741 01ca 002A     		cmp	r2, #0
 2742 01cc 00F09880 		beq	.L228
 2743              	.L199:
 818:libs/ssdv/ssdv.c **** 		{
 819:libs/ssdv/ssdv.c **** 			return(SSDV_ERROR);
 820:libs/ssdv/ssdv.c **** 		}
 821:libs/ssdv/ssdv.c **** 		
 822:libs/ssdv/ssdv.c **** 		if(!s->sdht[0][0] || (d[0] > 1 && !s->sdht[0][1]) ||
 2744              		.loc 1 822 3 is_stmt 1 view .LVU925
 2745              		.loc 1 822 17 is_stmt 0 view .LVU926
 2746 01d0 D0F8B822 		ldr	r2, [r0, #696]
 2747              		.loc 1 822 5 view .LVU927
 2748 01d4 002A     		cmp	r2, #0
 2749 01d6 00F09580 		beq	.L229
 2750              		.loc 1 822 21 discriminator 1 view .LVU928
 2751 01da 012B     		cmp	r3, #1
 2752 01dc 04D9     		bls	.L200
 2753              		.loc 1 822 48 discriminator 2 view .LVU929
 2754 01de D0F8BC22 		ldr	r2, [r0, #700]
 2755              		.loc 1 822 34 discriminator 2 view .LVU930
 2756 01e2 002A     		cmp	r2, #0
 2757 01e4 00F09080 		beq	.L230
 2758              	.L200:
 823:libs/ssdv/ssdv.c **** 		   !s->sdht[1][0] || (d[0] > 1 && !s->sdht[1][1]))
 2759              		.loc 1 823 17 discriminator 4 view .LVU931
 2760 01e8 D0F8C022 		ldr	r2, [r0, #704]
 822:libs/ssdv/ssdv.c **** 		   !s->sdht[1][0] || (d[0] > 1 && !s->sdht[1][1]))
 2761              		.loc 1 822 53 discriminator 4 view .LVU932
ARM GAS  /tmp/ccKzwklo.s 			page 73


 2762 01ec 002A     		cmp	r2, #0
 2763 01ee 00F08D80 		beq	.L231
 2764              		.loc 1 823 21 view .LVU933
 2765 01f2 012B     		cmp	r3, #1
 2766 01f4 04D9     		bls	.L201
 2767              		.loc 1 823 48 discriminator 1 view .LVU934
 2768 01f6 D0F8C432 		ldr	r3, [r0, #708]
 2769              		.loc 1 823 34 discriminator 1 view .LVU935
 2770 01fa 002B     		cmp	r3, #0
 2771 01fc 00F08880 		beq	.L232
 2772              	.L201:
 824:libs/ssdv/ssdv.c **** 		{
 825:libs/ssdv/ssdv.c **** 			return(SSDV_ERROR);
 826:libs/ssdv/ssdv.c **** 		}
 827:libs/ssdv/ssdv.c **** 		
 828:libs/ssdv/ssdv.c **** 		/* The SOS data is followed by the image data */
 829:libs/ssdv/ssdv.c **** 		s->state = S_HUFF;
 2773              		.loc 1 829 3 is_stmt 1 view .LVU936
 2774              		.loc 1 829 12 is_stmt 0 view .LVU937
 2775 0200 0323     		movs	r3, #3
 2776 0202 80F84930 		strb	r3, [r0, #73]
 830:libs/ssdv/ssdv.c **** 		
 831:libs/ssdv/ssdv.c **** 		return(SSDV_OK);
 2777              		.loc 1 831 3 is_stmt 1 view .LVU938
 2778              		.loc 1 831 9 is_stmt 0 view .LVU939
 2779 0206 0020     		movs	r0, #0
 2780              	.LVL250:
 2781              		.loc 1 831 9 view .LVU940
 2782 0208 63E0     		b	.L180
 2783              	.LVL251:
 2784              	.L178:
 832:libs/ssdv/ssdv.c **** 	
 833:libs/ssdv/ssdv.c **** 	case J_DHT:
 834:libs/ssdv/ssdv.c **** 		s->stbl_len += l;
 2785              		.loc 1 834 3 is_stmt 1 view .LVU941
 2786              		.loc 1 834 15 is_stmt 0 view .LVU942
 2787 020a B0F8D032 		ldrh	r3, [r0, #720]
 2788 020e 1A44     		add	r2, r2, r3
 2789              	.LVL252:
 2790              		.loc 1 834 15 view .LVU943
 2791 0210 A0F8D022 		strh	r2, [r0, #720]	@ movhi
 835:libs/ssdv/ssdv.c **** 		while(l > 0)
 2792              		.loc 1 835 3 is_stmt 1 view .LVU944
 2793              		.loc 1 835 8 is_stmt 0 view .LVU945
 2794 0214 14E0     		b	.L202
 2795              	.L208:
 2796              	.LBB38:
 836:libs/ssdv/ssdv.c **** 		{
 837:libs/ssdv/ssdv.c **** 			int i, j;
 838:libs/ssdv/ssdv.c **** 			
 839:libs/ssdv/ssdv.c **** 			switch(d[0])
 840:libs/ssdv/ssdv.c **** 			{
 841:libs/ssdv/ssdv.c **** 			case 0x00: s->sdht[0][0] = d; break;
 2797              		.loc 1 841 15 is_stmt 1 view .LVU946
 2798              		.loc 1 841 29 is_stmt 0 view .LVU947
 2799 0216 C0F8B842 		str	r4, [r0, #696]
 2800              		.loc 1 841 34 is_stmt 1 view .LVU948
ARM GAS  /tmp/ccKzwklo.s 			page 74


 2801              	.L203:
 842:libs/ssdv/ssdv.c **** 			case 0x01: s->sdht[0][1] = d; break;
 843:libs/ssdv/ssdv.c **** 			case 0x10: s->sdht[1][0] = d; break;
 844:libs/ssdv/ssdv.c **** 			case 0x11: s->sdht[1][1] = d; break;
 845:libs/ssdv/ssdv.c **** 			}
 846:libs/ssdv/ssdv.c **** 			
 847:libs/ssdv/ssdv.c **** 			/* Skip to the next DHT table */
 848:libs/ssdv/ssdv.c **** 			for(j = 17, i = 1; i <= 16; i++)
 2802              		.loc 1 848 4 view .LVU949
 2803              	.LVL253:
 2804              		.loc 1 848 10 is_stmt 0 view .LVU950
 2805 021a 1122     		movs	r2, #17
 2806              		.loc 1 848 18 view .LVU951
 2807 021c 0123     		movs	r3, #1
 2808              		.loc 1 848 4 view .LVU952
 2809 021e 0BE0     		b	.L209
 2810              	.LVL254:
 2811              	.L207:
 842:libs/ssdv/ssdv.c **** 			case 0x01: s->sdht[0][1] = d; break;
 2812              		.loc 1 842 15 is_stmt 1 view .LVU953
 842:libs/ssdv/ssdv.c **** 			case 0x01: s->sdht[0][1] = d; break;
 2813              		.loc 1 842 29 is_stmt 0 view .LVU954
 2814 0220 C0F8BC42 		str	r4, [r0, #700]
 842:libs/ssdv/ssdv.c **** 			case 0x01: s->sdht[0][1] = d; break;
 2815              		.loc 1 842 34 is_stmt 1 view .LVU955
 842:libs/ssdv/ssdv.c **** 			case 0x01: s->sdht[0][1] = d; break;
 2816              		.loc 1 842 4 is_stmt 0 view .LVU956
 2817 0224 F9E7     		b	.L203
 2818              	.L206:
 843:libs/ssdv/ssdv.c **** 			case 0x11: s->sdht[1][1] = d; break;
 2819              		.loc 1 843 15 is_stmt 1 view .LVU957
 843:libs/ssdv/ssdv.c **** 			case 0x11: s->sdht[1][1] = d; break;
 2820              		.loc 1 843 29 is_stmt 0 view .LVU958
 2821 0226 C0F8C042 		str	r4, [r0, #704]
 843:libs/ssdv/ssdv.c **** 			case 0x11: s->sdht[1][1] = d; break;
 2822              		.loc 1 843 34 is_stmt 1 view .LVU959
 843:libs/ssdv/ssdv.c **** 			case 0x11: s->sdht[1][1] = d; break;
 2823              		.loc 1 843 4 is_stmt 0 view .LVU960
 2824 022a F6E7     		b	.L203
 2825              	.L204:
 844:libs/ssdv/ssdv.c **** 			}
 2826              		.loc 1 844 15 is_stmt 1 view .LVU961
 844:libs/ssdv/ssdv.c **** 			}
 2827              		.loc 1 844 29 is_stmt 0 view .LVU962
 2828 022c C0F8C442 		str	r4, [r0, #708]
 844:libs/ssdv/ssdv.c **** 			}
 2829              		.loc 1 844 34 is_stmt 1 view .LVU963
 844:libs/ssdv/ssdv.c **** 			}
 2830              		.loc 1 844 4 is_stmt 0 view .LVU964
 2831 0230 F3E7     		b	.L203
 2832              	.LVL255:
 2833              	.L210:
 849:libs/ssdv/ssdv.c **** 				j += d[i];
 2834              		.loc 1 849 5 is_stmt 1 discriminator 3 view .LVU965
 2835              		.loc 1 849 11 is_stmt 0 discriminator 3 view .LVU966
 2836 0232 E15C     		ldrb	r1, [r4, r3]	@ zero_extendqisi2
 2837              		.loc 1 849 7 discriminator 3 view .LVU967
ARM GAS  /tmp/ccKzwklo.s 			page 75


 2838 0234 0A44     		add	r2, r2, r1
 2839              	.LVL256:
 848:libs/ssdv/ssdv.c **** 				j += d[i];
 2840              		.loc 1 848 32 is_stmt 1 discriminator 3 view .LVU968
 848:libs/ssdv/ssdv.c **** 				j += d[i];
 2841              		.loc 1 848 33 is_stmt 0 discriminator 3 view .LVU969
 2842 0236 0133     		adds	r3, r3, #1
 2843              	.LVL257:
 2844              	.L209:
 848:libs/ssdv/ssdv.c **** 				j += d[i];
 2845              		.loc 1 848 23 is_stmt 1 discriminator 1 view .LVU970
 848:libs/ssdv/ssdv.c **** 				j += d[i];
 2846              		.loc 1 848 4 is_stmt 0 discriminator 1 view .LVU971
 2847 0238 102B     		cmp	r3, #16
 2848 023a FADD     		ble	.L210
 850:libs/ssdv/ssdv.c **** 			
 851:libs/ssdv/ssdv.c **** 			l -= j;
 2849              		.loc 1 851 4 is_stmt 1 view .LVU972
 2850              		.loc 1 851 6 is_stmt 0 view .LVU973
 2851 023c AD1A     		subs	r5, r5, r2
 2852              	.LVL258:
 852:libs/ssdv/ssdv.c **** 			if (l < 0)
 2853              		.loc 1 852 4 is_stmt 1 view .LVU974
 853:libs/ssdv/ssdv.c **** 			{
 854:libs/ssdv/ssdv.c **** 				return(SSDV_ERROR);
 855:libs/ssdv/ssdv.c **** 			}
 856:libs/ssdv/ssdv.c **** 			d += j;
 2854              		.loc 1 856 4 view .LVU975
 2855              		.loc 1 856 6 is_stmt 0 view .LVU976
 2856 023e 1444     		add	r4, r4, r2
 2857              	.LVL259:
 2858              	.L202:
 2859              		.loc 1 856 6 view .LVU977
 2860              	.LBE38:
 835:libs/ssdv/ssdv.c **** 		{
 2861              		.loc 1 835 8 is_stmt 1 view .LVU978
 2862 0240 002D     		cmp	r5, #0
 2863 0242 42D0     		beq	.L173
 2864              	.LBB39:
 837:libs/ssdv/ssdv.c **** 			
 2865              		.loc 1 837 4 view .LVU979
 839:libs/ssdv/ssdv.c **** 			{
 2866              		.loc 1 839 4 view .LVU980
 839:libs/ssdv/ssdv.c **** 			{
 2867              		.loc 1 839 12 is_stmt 0 view .LVU981
 2868 0244 2378     		ldrb	r3, [r4]	@ zero_extendqisi2
 2869 0246 112B     		cmp	r3, #17
 2870 0248 E7D8     		bhi	.L203
 2871 024a 01A2     		adr	r2, .L205
 2872 024c 52F823F0 		ldr	pc, [r2, r3, lsl #2]
 2873              		.p2align 2
 2874              	.L205:
 2875 0250 17020000 		.word	.L208+1
 2876 0254 21020000 		.word	.L207+1
 2877 0258 1B020000 		.word	.L203+1
 2878 025c 1B020000 		.word	.L203+1
 2879 0260 1B020000 		.word	.L203+1
ARM GAS  /tmp/ccKzwklo.s 			page 76


 2880 0264 1B020000 		.word	.L203+1
 2881 0268 1B020000 		.word	.L203+1
 2882 026c 1B020000 		.word	.L203+1
 2883 0270 1B020000 		.word	.L203+1
 2884 0274 1B020000 		.word	.L203+1
 2885 0278 1B020000 		.word	.L203+1
 2886 027c 1B020000 		.word	.L203+1
 2887 0280 1B020000 		.word	.L203+1
 2888 0284 1B020000 		.word	.L203+1
 2889 0288 1B020000 		.word	.L203+1
 2890 028c 1B020000 		.word	.L203+1
 2891 0290 27020000 		.word	.L206+1
 2892 0294 2D020000 		.word	.L204+1
 2893              	.LVL260:
 2894              		.p2align 1
 2895              	.L176:
 839:libs/ssdv/ssdv.c **** 			{
 2896              		.loc 1 839 12 view .LVU982
 2897              	.LBE39:
 857:libs/ssdv/ssdv.c **** 		}
 858:libs/ssdv/ssdv.c **** 		break;
 859:libs/ssdv/ssdv.c **** 	
 860:libs/ssdv/ssdv.c **** 	case J_DQT:
 861:libs/ssdv/ssdv.c **** 		s->stbl_len += l;
 2898              		.loc 1 861 3 is_stmt 1 view .LVU983
 2899              		.loc 1 861 15 is_stmt 0 view .LVU984
 2900 0298 B0F8D032 		ldrh	r3, [r0, #720]
 2901 029c 1A44     		add	r2, r2, r3
 2902              	.LVL261:
 2903              		.loc 1 861 15 view .LVU985
 2904 029e A0F8D022 		strh	r2, [r0, #720]	@ movhi
 862:libs/ssdv/ssdv.c **** 		while(l > 0)
 2905              		.loc 1 862 3 is_stmt 1 view .LVU986
 2906              		.loc 1 862 8 is_stmt 0 view .LVU987
 2907 02a2 03E0     		b	.L212
 2908              	.L213:
 863:libs/ssdv/ssdv.c **** 		{
 864:libs/ssdv/ssdv.c **** 			switch(d[0])
 865:libs/ssdv/ssdv.c **** 			{
 866:libs/ssdv/ssdv.c **** 			case 0x00: s->sdqt[0] = d; break;
 2909              		.loc 1 866 15 is_stmt 1 view .LVU988
 2910              		.loc 1 866 26 is_stmt 0 view .LVU989
 2911 02a4 C0F8C842 		str	r4, [r0, #712]
 2912              		.loc 1 866 31 is_stmt 1 view .LVU990
 2913              	.L215:
 867:libs/ssdv/ssdv.c **** 			case 0x01: s->sdqt[1] = d; break;
 868:libs/ssdv/ssdv.c **** 			}
 869:libs/ssdv/ssdv.c **** 			
 870:libs/ssdv/ssdv.c **** 			/* Skip to the next one, if present */
 871:libs/ssdv/ssdv.c **** 			l -= 65;
 2914              		.loc 1 871 4 view .LVU991
 2915              		.loc 1 871 6 is_stmt 0 view .LVU992
 2916 02a8 413D     		subs	r5, r5, #65
 2917              	.LVL262:
 872:libs/ssdv/ssdv.c **** 			if (l < 0)
 2918              		.loc 1 872 4 is_stmt 1 view .LVU993
 873:libs/ssdv/ssdv.c **** 			{
ARM GAS  /tmp/ccKzwklo.s 			page 77


 874:libs/ssdv/ssdv.c **** 				return(SSDV_ERROR);
 875:libs/ssdv/ssdv.c **** 			}
 876:libs/ssdv/ssdv.c **** 			d += 65;
 2919              		.loc 1 876 4 view .LVU994
 2920              		.loc 1 876 6 is_stmt 0 view .LVU995
 2921 02aa 4134     		adds	r4, r4, #65
 2922              	.LVL263:
 2923              	.L212:
 862:libs/ssdv/ssdv.c **** 		{
 2924              		.loc 1 862 8 is_stmt 1 view .LVU996
 2925 02ac 6DB1     		cbz	r5, .L173
 864:libs/ssdv/ssdv.c **** 			{
 2926              		.loc 1 864 4 view .LVU997
 864:libs/ssdv/ssdv.c **** 			{
 2927              		.loc 1 864 12 is_stmt 0 view .LVU998
 2928 02ae 2378     		ldrb	r3, [r4]	@ zero_extendqisi2
 2929 02b0 002B     		cmp	r3, #0
 2930 02b2 F7D0     		beq	.L213
 2931 02b4 012B     		cmp	r3, #1
 2932 02b6 F7D1     		bne	.L215
 867:libs/ssdv/ssdv.c **** 			}
 2933              		.loc 1 867 15 is_stmt 1 view .LVU999
 867:libs/ssdv/ssdv.c **** 			}
 2934              		.loc 1 867 26 is_stmt 0 view .LVU1000
 2935 02b8 C0F8CC42 		str	r4, [r0, #716]
 867:libs/ssdv/ssdv.c **** 			}
 2936              		.loc 1 867 31 is_stmt 1 view .LVU1001
 867:libs/ssdv/ssdv.c **** 			}
 2937              		.loc 1 867 4 is_stmt 0 view .LVU1002
 2938 02bc F4E7     		b	.L215
 2939              	.LVL264:
 2940              	.L174:
 877:libs/ssdv/ssdv.c **** 		}
 878:libs/ssdv/ssdv.c **** 		break;
 879:libs/ssdv/ssdv.c **** 	
 880:libs/ssdv/ssdv.c **** 	case J_DRI:
 881:libs/ssdv/ssdv.c **** 		s->dri = (d[0] << 8) + d[1];
 2941              		.loc 1 881 3 is_stmt 1 view .LVU1003
 2942              		.loc 1 881 14 is_stmt 0 view .LVU1004
 2943 02be 2278     		ldrb	r2, [r4]	@ zero_extendqisi2
 2944              	.LVL265:
 2945              		.loc 1 881 27 view .LVU1005
 2946 02c0 6378     		ldrb	r3, [r4, #1]	@ zero_extendqisi2
 2947              		.loc 1 881 24 view .LVU1006
 2948 02c2 03EB0223 		add	r3, r3, r2, lsl #8
 2949              		.loc 1 881 10 view .LVU1007
 2950 02c6 A0F87630 		strh	r3, [r0, #118]	@ movhi
 882:libs/ssdv/ssdv.c **** 		break;
 2951              		.loc 1 882 3 is_stmt 1 view .LVU1008
 2952              	.L173:
 883:libs/ssdv/ssdv.c **** 	}
 884:libs/ssdv/ssdv.c **** 	
 885:libs/ssdv/ssdv.c **** 	s->state = S_MARKER;
 2953              		.loc 1 885 2 view .LVU1009
 2954              		.loc 1 885 11 is_stmt 0 view .LVU1010
 2955 02ca 0023     		movs	r3, #0
 2956 02cc 80F84930 		strb	r3, [r0, #73]
ARM GAS  /tmp/ccKzwklo.s 			page 78


 886:libs/ssdv/ssdv.c **** 	return(SSDV_OK);
 2957              		.loc 1 886 2 is_stmt 1 view .LVU1011
 2958              		.loc 1 886 8 is_stmt 0 view .LVU1012
 2959 02d0 1846     		mov	r0, r3
 2960              	.LVL266:
 2961              	.L180:
 887:libs/ssdv/ssdv.c **** }
 2962              		.loc 1 887 1 view .LVU1013
 2963 02d2 30BD     		pop	{r4, r5, pc}
 2964              	.LVL267:
 2965              	.L217:
 732:libs/ssdv/ssdv.c **** 		}
 2966              		.loc 1 732 10 view .LVU1014
 2967 02d4 FF20     		movs	r0, #255
 2968              	.LVL268:
 732:libs/ssdv/ssdv.c **** 		}
 2969              		.loc 1 732 10 view .LVU1015
 2970 02d6 FCE7     		b	.L180
 2971              	.LVL269:
 2972              	.L218:
 738:libs/ssdv/ssdv.c **** 		}
 2973              		.loc 1 738 10 view .LVU1016
 2974 02d8 FF20     		movs	r0, #255
 2975              	.LVL270:
 738:libs/ssdv/ssdv.c **** 		}
 2976              		.loc 1 738 10 view .LVU1017
 2977 02da FAE7     		b	.L180
 2978              	.LVL271:
 2979              	.L219:
 744:libs/ssdv/ssdv.c **** 		}
 2980              		.loc 1 744 10 view .LVU1018
 2981 02dc FF20     		movs	r0, #255
 2982              	.LVL272:
 744:libs/ssdv/ssdv.c **** 		}
 2983              		.loc 1 744 10 view .LVU1019
 2984 02de F8E7     		b	.L180
 2985              	.LVL273:
 2986              	.L220:
 744:libs/ssdv/ssdv.c **** 		}
 2987              		.loc 1 744 10 view .LVU1020
 2988 02e0 FF20     		movs	r0, #255
 2989              	.LVL274:
 744:libs/ssdv/ssdv.c **** 		}
 2990              		.loc 1 744 10 view .LVU1021
 2991 02e2 F6E7     		b	.L180
 2992              	.LVL275:
 2993              	.L221:
 750:libs/ssdv/ssdv.c **** 		}
 2994              		.loc 1 750 10 view .LVU1022
 2995 02e4 FF20     		movs	r0, #255
 2996              	.LVL276:
 750:libs/ssdv/ssdv.c **** 		}
 2997              		.loc 1 750 10 view .LVU1023
 2998 02e6 F4E7     		b	.L180
 2999              	.LVL277:
 3000              	.L222:
 750:libs/ssdv/ssdv.c **** 		}
ARM GAS  /tmp/ccKzwklo.s 			page 79


 3001              		.loc 1 750 10 view .LVU1024
 3002 02e8 FF20     		movs	r0, #255
 3003              	.LVL278:
 750:libs/ssdv/ssdv.c **** 		}
 3004              		.loc 1 750 10 view .LVU1025
 3005 02ea F2E7     		b	.L180
 3006              	.LVL279:
 3007              	.L223:
 3008              	.LBB40:
 750:libs/ssdv/ssdv.c **** 		}
 3009              		.loc 1 750 10 view .LVU1026
 3010 02ec FF20     		movs	r0, #255
 3011              	.LVL280:
 750:libs/ssdv/ssdv.c **** 		}
 3012              		.loc 1 750 10 view .LVU1027
 3013 02ee F0E7     		b	.L180
 3014              	.LVL281:
 3015              	.L224:
 774:libs/ssdv/ssdv.c **** 			}
 3016              		.loc 1 774 11 view .LVU1028
 3017 02f0 FF20     		movs	r0, #255
 3018              	.LVL282:
 774:libs/ssdv/ssdv.c **** 			}
 3019              		.loc 1 774 11 view .LVU1029
 3020 02f2 EEE7     		b	.L180
 3021              	.LVL283:
 3022              	.L225:
 774:libs/ssdv/ssdv.c **** 			}
 3023              		.loc 1 774 11 view .LVU1030
 3024              	.LBE40:
 798:libs/ssdv/ssdv.c **** 		}
 3025              		.loc 1 798 10 view .LVU1031
 3026 02f4 FF20     		movs	r0, #255
 3027              	.LVL284:
 798:libs/ssdv/ssdv.c **** 		}
 3028              		.loc 1 798 10 view .LVU1032
 3029 02f6 ECE7     		b	.L180
 3030              	.LVL285:
 3031              	.L226:
 810:libs/ssdv/ssdv.c **** 		}
 3032              		.loc 1 810 10 view .LVU1033
 3033 02f8 FF20     		movs	r0, #255
 3034              	.LVL286:
 810:libs/ssdv/ssdv.c **** 		}
 3035              		.loc 1 810 10 view .LVU1034
 3036 02fa EAE7     		b	.L180
 3037              	.LVL287:
 3038              	.L227:
 819:libs/ssdv/ssdv.c **** 		}
 3039              		.loc 1 819 10 view .LVU1035
 3040 02fc FF20     		movs	r0, #255
 3041              	.LVL288:
 819:libs/ssdv/ssdv.c **** 		}
 3042              		.loc 1 819 10 view .LVU1036
 3043 02fe E8E7     		b	.L180
 3044              	.LVL289:
 3045              	.L228:
ARM GAS  /tmp/ccKzwklo.s 			page 80


 819:libs/ssdv/ssdv.c **** 		}
 3046              		.loc 1 819 10 view .LVU1037
 3047 0300 FF20     		movs	r0, #255
 3048              	.LVL290:
 819:libs/ssdv/ssdv.c **** 		}
 3049              		.loc 1 819 10 view .LVU1038
 3050 0302 E6E7     		b	.L180
 3051              	.LVL291:
 3052              	.L229:
 825:libs/ssdv/ssdv.c **** 		}
 3053              		.loc 1 825 10 view .LVU1039
 3054 0304 FF20     		movs	r0, #255
 3055              	.LVL292:
 825:libs/ssdv/ssdv.c **** 		}
 3056              		.loc 1 825 10 view .LVU1040
 3057 0306 E4E7     		b	.L180
 3058              	.LVL293:
 3059              	.L230:
 825:libs/ssdv/ssdv.c **** 		}
 3060              		.loc 1 825 10 view .LVU1041
 3061 0308 FF20     		movs	r0, #255
 3062              	.LVL294:
 825:libs/ssdv/ssdv.c **** 		}
 3063              		.loc 1 825 10 view .LVU1042
 3064 030a E2E7     		b	.L180
 3065              	.LVL295:
 3066              	.L231:
 825:libs/ssdv/ssdv.c **** 		}
 3067              		.loc 1 825 10 view .LVU1043
 3068 030c FF20     		movs	r0, #255
 3069              	.LVL296:
 825:libs/ssdv/ssdv.c **** 		}
 3070              		.loc 1 825 10 view .LVU1044
 3071 030e E0E7     		b	.L180
 3072              	.LVL297:
 3073              	.L232:
 825:libs/ssdv/ssdv.c **** 		}
 3074              		.loc 1 825 10 view .LVU1045
 3075 0310 FF20     		movs	r0, #255
 3076              	.LVL298:
 825:libs/ssdv/ssdv.c **** 		}
 3077              		.loc 1 825 10 view .LVU1046
 3078 0312 DEE7     		b	.L180
 3079              		.cfi_endproc
 3080              	.LFE20:
 3082              		.section	.text.ssdv_write_marker,"ax",%progbits
 3083              		.align	1
 3084              		.syntax unified
 3085              		.thumb
 3086              		.thumb_func
 3087              		.fpu softvfp
 3089              	ssdv_write_marker:
 3090              	.LVL299:
 3091              	.LFB25:
 888:libs/ssdv/ssdv.c **** 
 889:libs/ssdv/ssdv.c **** char ssdv_enc_init(ssdv_t *s, uint8_t type, char *callsign, uint8_t image_id, int8_t quality)
 890:libs/ssdv/ssdv.c **** {
ARM GAS  /tmp/ccKzwklo.s 			page 81


 891:libs/ssdv/ssdv.c **** 	/* Limit the quality level */
 892:libs/ssdv/ssdv.c **** 	if(quality < 0) quality = 0;
 893:libs/ssdv/ssdv.c **** 	if(quality > 7) quality = 7;
 894:libs/ssdv/ssdv.c **** 	
 895:libs/ssdv/ssdv.c **** 	memset(s, 0, sizeof(ssdv_t));
 896:libs/ssdv/ssdv.c **** 	s->image_id = image_id;
 897:libs/ssdv/ssdv.c **** 	s->callsign = encode_callsign(callsign);
 898:libs/ssdv/ssdv.c **** 	s->mode = S_ENCODING;
 899:libs/ssdv/ssdv.c **** 	s->type = type;
 900:libs/ssdv/ssdv.c **** 	s->quality = quality;
 901:libs/ssdv/ssdv.c **** 	ssdv_set_packet_conf(s);
 902:libs/ssdv/ssdv.c **** 	
 903:libs/ssdv/ssdv.c **** 	/* Prepare the output JPEG tables */
 904:libs/ssdv/ssdv.c **** 	s->ddqt[0] = dload_standard_dqt(s, std_dqt0, s->quality);
 905:libs/ssdv/ssdv.c **** 	s->ddqt[1] = dload_standard_dqt(s, std_dqt1, s->quality);
 906:libs/ssdv/ssdv.c **** 	s->ddht[0][0] = dtblcpy(s, std_dht00, sizeof(std_dht00));
 907:libs/ssdv/ssdv.c **** 	s->ddht[0][1] = dtblcpy(s, std_dht01, sizeof(std_dht01));
 908:libs/ssdv/ssdv.c **** 	s->ddht[1][0] = dtblcpy(s, std_dht10, sizeof(std_dht10));
 909:libs/ssdv/ssdv.c **** 	s->ddht[1][1] = dtblcpy(s, std_dht11, sizeof(std_dht11));
 910:libs/ssdv/ssdv.c **** 	
 911:libs/ssdv/ssdv.c **** 	return(SSDV_OK);
 912:libs/ssdv/ssdv.c **** }
 913:libs/ssdv/ssdv.c **** 
 914:libs/ssdv/ssdv.c **** char ssdv_enc_set_buffer(ssdv_t *s, uint8_t *buffer)
 915:libs/ssdv/ssdv.c **** {
 916:libs/ssdv/ssdv.c **** 	s->out     = buffer;
 917:libs/ssdv/ssdv.c **** 	s->outp    = buffer + SSDV_PKT_SIZE_HEADER;
 918:libs/ssdv/ssdv.c **** 	s->out_len = s->pkt_size_payload;
 919:libs/ssdv/ssdv.c **** 	
 920:libs/ssdv/ssdv.c **** 	/* Zero the payload memory */
 921:libs/ssdv/ssdv.c **** 	memset(s->out, 0, SSDV_PKT_SIZE);
 922:libs/ssdv/ssdv.c **** 	
 923:libs/ssdv/ssdv.c **** 	/* Flush the output bits */
 924:libs/ssdv/ssdv.c **** 	ssdv_outbits(s, 0, 0);
 925:libs/ssdv/ssdv.c **** 	
 926:libs/ssdv/ssdv.c **** 	return(SSDV_OK);
 927:libs/ssdv/ssdv.c **** }
 928:libs/ssdv/ssdv.c **** 
 929:libs/ssdv/ssdv.c **** char ssdv_enc_get_packet(ssdv_t *s)
 930:libs/ssdv/ssdv.c **** {
 931:libs/ssdv/ssdv.c **** 	int r;
 932:libs/ssdv/ssdv.c **** 	uint8_t b;
 933:libs/ssdv/ssdv.c **** 	
 934:libs/ssdv/ssdv.c **** 	/* Have we reached the end of the image? */
 935:libs/ssdv/ssdv.c **** 	if(s->state == S_EOI) return(SSDV_EOI);
 936:libs/ssdv/ssdv.c **** 	
 937:libs/ssdv/ssdv.c **** 	/* If the output buffer is empty, re-initialise */
 938:libs/ssdv/ssdv.c **** 	if(s->out_len == 0) ssdv_enc_set_buffer(s, s->out);
 939:libs/ssdv/ssdv.c **** 	
 940:libs/ssdv/ssdv.c **** 	while(s->in_len)
 941:libs/ssdv/ssdv.c **** 	{
 942:libs/ssdv/ssdv.c **** 		b = *(s->inp++);
 943:libs/ssdv/ssdv.c **** 		s->in_len--;
 944:libs/ssdv/ssdv.c **** 		
 945:libs/ssdv/ssdv.c **** 		/* Skip bytes if necessary */
 946:libs/ssdv/ssdv.c **** 		if(s->in_skip) { s->in_skip--; continue; }
 947:libs/ssdv/ssdv.c **** 		
ARM GAS  /tmp/ccKzwklo.s 			page 82


 948:libs/ssdv/ssdv.c **** 		switch(s->state)
 949:libs/ssdv/ssdv.c **** 		{
 950:libs/ssdv/ssdv.c **** 		case S_MARKER:
 951:libs/ssdv/ssdv.c **** 			s->marker = (s->marker << 8) | b;
 952:libs/ssdv/ssdv.c **** 			
 953:libs/ssdv/ssdv.c **** 			if(s->marker == J_TEM ||
 954:libs/ssdv/ssdv.c **** 			   (s->marker >= J_RST0 && s->marker <= J_EOI))
 955:libs/ssdv/ssdv.c **** 			{
 956:libs/ssdv/ssdv.c **** 				/* Marker without data */
 957:libs/ssdv/ssdv.c **** 				s->marker_len = 0;
 958:libs/ssdv/ssdv.c **** 				r = ssdv_have_marker(s);
 959:libs/ssdv/ssdv.c **** 				if(r != SSDV_OK) return(r);
 960:libs/ssdv/ssdv.c **** 			}
 961:libs/ssdv/ssdv.c **** 			else if(s->marker >= J_SOF0 && s->marker <= J_COM)
 962:libs/ssdv/ssdv.c **** 			{
 963:libs/ssdv/ssdv.c **** 				/* All other markers are followed by data */
 964:libs/ssdv/ssdv.c **** 				s->marker_len = 0;
 965:libs/ssdv/ssdv.c **** 				s->state = S_MARKER_LEN;
 966:libs/ssdv/ssdv.c **** 				s->needbits = 16;
 967:libs/ssdv/ssdv.c **** 			}
 968:libs/ssdv/ssdv.c **** 			break;
 969:libs/ssdv/ssdv.c **** 		
 970:libs/ssdv/ssdv.c **** 		case S_MARKER_LEN:
 971:libs/ssdv/ssdv.c **** 			s->marker_len = (s->marker_len << 8) | b;
 972:libs/ssdv/ssdv.c **** 			if((s->needbits -= 8) == 0)
 973:libs/ssdv/ssdv.c **** 			{
 974:libs/ssdv/ssdv.c **** 				s->marker_len -= 2;
 975:libs/ssdv/ssdv.c **** 				r = ssdv_have_marker(s);
 976:libs/ssdv/ssdv.c **** 				if(r != SSDV_OK) return(r);
 977:libs/ssdv/ssdv.c **** 			}
 978:libs/ssdv/ssdv.c **** 			break;
 979:libs/ssdv/ssdv.c **** 		
 980:libs/ssdv/ssdv.c **** 		case S_MARKER_DATA:
 981:libs/ssdv/ssdv.c **** 			s->marker_data[s->marker_data_len++] = b;
 982:libs/ssdv/ssdv.c **** 			if(s->marker_data_len == s->marker_len)
 983:libs/ssdv/ssdv.c **** 			{
 984:libs/ssdv/ssdv.c **** 				r = ssdv_have_marker_data(s);
 985:libs/ssdv/ssdv.c **** 				if(r != SSDV_OK) return(r);
 986:libs/ssdv/ssdv.c **** 			}
 987:libs/ssdv/ssdv.c **** 			break;
 988:libs/ssdv/ssdv.c **** 		
 989:libs/ssdv/ssdv.c **** 		case S_HUFF:
 990:libs/ssdv/ssdv.c **** 		case S_INT:
 991:libs/ssdv/ssdv.c **** 			/* Is the next byte a stuffing byte? Skip it */
 992:libs/ssdv/ssdv.c **** 			/* TODO: Test the next byte is actually 0x00 */
 993:libs/ssdv/ssdv.c **** 			if(b == 0xFF) s->in_skip++;
 994:libs/ssdv/ssdv.c **** 			
 995:libs/ssdv/ssdv.c **** 			/* Add the new byte to the work area */
 996:libs/ssdv/ssdv.c **** 			s->workbits = (s->workbits << 8) | b;
 997:libs/ssdv/ssdv.c **** 			s->worklen += 8;
 998:libs/ssdv/ssdv.c **** 			
 999:libs/ssdv/ssdv.c **** 			/* Process the new data until more needed, or an error occurs */
1000:libs/ssdv/ssdv.c **** 			while((r = ssdv_process(s)) == SSDV_OK);
1001:libs/ssdv/ssdv.c **** 			
1002:libs/ssdv/ssdv.c **** 			if(r == SSDV_BUFFER_FULL || r == SSDV_EOI)
1003:libs/ssdv/ssdv.c **** 			{
1004:libs/ssdv/ssdv.c **** 				uint16_t mcu_id    = s->packet_mcu_id;
ARM GAS  /tmp/ccKzwklo.s 			page 83


1005:libs/ssdv/ssdv.c **** 				uint8_t mcu_offset = s->packet_mcu_offset;
1006:libs/ssdv/ssdv.c **** 				uint32_t x;
1007:libs/ssdv/ssdv.c **** 				uint8_t i;
1008:libs/ssdv/ssdv.c **** 				
1009:libs/ssdv/ssdv.c **** 				if(mcu_offset != 0xFF && mcu_offset >= s->pkt_size_payload)
1010:libs/ssdv/ssdv.c **** 				{
1011:libs/ssdv/ssdv.c **** 					/* The first MCU begins in the next packet, not this one */
1012:libs/ssdv/ssdv.c **** 					mcu_id = 0xFFFF;
1013:libs/ssdv/ssdv.c **** 					mcu_offset = 0xFF;
1014:libs/ssdv/ssdv.c **** 					s->packet_mcu_offset -= s->pkt_size_payload;
1015:libs/ssdv/ssdv.c **** 				}
1016:libs/ssdv/ssdv.c **** 				else
1017:libs/ssdv/ssdv.c **** 				{
1018:libs/ssdv/ssdv.c **** 					/* Clear the MCU data for the next packet */
1019:libs/ssdv/ssdv.c **** 					s->packet_mcu_id = 0xFFFF;
1020:libs/ssdv/ssdv.c **** 					s->packet_mcu_offset = 0xFF;
1021:libs/ssdv/ssdv.c **** 				}
1022:libs/ssdv/ssdv.c **** 				
1023:libs/ssdv/ssdv.c **** 				/* A packet is ready, create the headers */
1024:libs/ssdv/ssdv.c **** 				s->out[0]   = 0x55;                /* Sync */
1025:libs/ssdv/ssdv.c **** 				s->out[1]   = 0x66 + s->type;      /* Type */
1026:libs/ssdv/ssdv.c **** 				s->out[2]   = s->callsign >> 24;
1027:libs/ssdv/ssdv.c **** 				s->out[3]   = s->callsign >> 16;
1028:libs/ssdv/ssdv.c **** 				s->out[4]   = s->callsign >> 8;
1029:libs/ssdv/ssdv.c **** 				s->out[5]   = s->callsign;
1030:libs/ssdv/ssdv.c **** 				s->out[6]   = s->image_id;         /* Image ID */
1031:libs/ssdv/ssdv.c **** 				s->out[7]   = s->packet_id >> 8;   /* Packet ID MSB */
1032:libs/ssdv/ssdv.c **** 				s->out[8]   = s->packet_id & 0xFF; /* Packet ID LSB */
1033:libs/ssdv/ssdv.c **** 				s->out[9]   = s->width >> 4;       /* Width / 16 */
1034:libs/ssdv/ssdv.c **** 				s->out[10]  = s->height >> 4;      /* Height / 16 */
1035:libs/ssdv/ssdv.c **** 				s->out[11]  = 0x00;
1036:libs/ssdv/ssdv.c **** 				s->out[11] |= ((s->quality - 4) & 7) << 3;  /* Quality level */
1037:libs/ssdv/ssdv.c **** 				s->out[11] |= (r == SSDV_EOI ? 1 : 0) << 2; /* EOI flag (1 bit) */
1038:libs/ssdv/ssdv.c **** 				s->out[11] |= s->mcu_mode & 0x03;  /* MCU mode (2 bits) */
1039:libs/ssdv/ssdv.c **** 				s->out[12]  = mcu_offset;          /* Next MCU offset */
1040:libs/ssdv/ssdv.c **** 				s->out[13]  = mcu_id >> 8;         /* MCU ID MSB */
1041:libs/ssdv/ssdv.c **** 				s->out[14]  = mcu_id & 0xFF;       /* MCU ID LSB */
1042:libs/ssdv/ssdv.c **** 				
1043:libs/ssdv/ssdv.c **** 				/* Fill any remaining bytes with noise */
1044:libs/ssdv/ssdv.c **** 				if(s->out_len > 0) ssdv_memset_prng(s->outp, s->out_len);
1045:libs/ssdv/ssdv.c **** 				
1046:libs/ssdv/ssdv.c **** 				/* Calculate the CRC codes */
1047:libs/ssdv/ssdv.c **** 				x = crc32(&s->out[1], s->pkt_size_crcdata);
1048:libs/ssdv/ssdv.c **** 				
1049:libs/ssdv/ssdv.c **** 				i = 1 + s->pkt_size_crcdata;
1050:libs/ssdv/ssdv.c **** 				s->out[i++] = (x >> 24) & 0xFF;
1051:libs/ssdv/ssdv.c **** 				s->out[i++] = (x >> 16) & 0xFF;
1052:libs/ssdv/ssdv.c **** 				s->out[i++] = (x >> 8) & 0xFF;
1053:libs/ssdv/ssdv.c **** 				s->out[i++] = x & 0xFF;
1054:libs/ssdv/ssdv.c **** 				
1055:libs/ssdv/ssdv.c **** 				/* Generate the RS codes */
1056:libs/ssdv/ssdv.c **** 				if(s->type == SSDV_TYPE_NORMAL)
1057:libs/ssdv/ssdv.c **** 					encode_rs_8(&s->out[1], &s->out[i], 0);
1058:libs/ssdv/ssdv.c **** 				
1059:libs/ssdv/ssdv.c **** 				s->packet_id++;
1060:libs/ssdv/ssdv.c **** 				
1061:libs/ssdv/ssdv.c **** 				/* Have we reached the end of the image data? */
ARM GAS  /tmp/ccKzwklo.s 			page 84


1062:libs/ssdv/ssdv.c **** 				if(r == SSDV_EOI) s->state = S_EOI;
1063:libs/ssdv/ssdv.c **** 				
1064:libs/ssdv/ssdv.c **** 				return(SSDV_OK);
1065:libs/ssdv/ssdv.c **** 			}
1066:libs/ssdv/ssdv.c **** 			else if(r != SSDV_FEED_ME)
1067:libs/ssdv/ssdv.c **** 			{
1068:libs/ssdv/ssdv.c **** 				/* An error occured */
1069:libs/ssdv/ssdv.c **** 				return(/*SSDV_ERROR*/ SSDV_OK);
1070:libs/ssdv/ssdv.c **** 			}
1071:libs/ssdv/ssdv.c **** 			break;
1072:libs/ssdv/ssdv.c **** 		
1073:libs/ssdv/ssdv.c **** 		case S_EOI:
1074:libs/ssdv/ssdv.c **** 			/* Shouldn't reach this point */
1075:libs/ssdv/ssdv.c **** 			break;
1076:libs/ssdv/ssdv.c **** 		}
1077:libs/ssdv/ssdv.c **** 	}
1078:libs/ssdv/ssdv.c **** 	
1079:libs/ssdv/ssdv.c **** 	/* Need more data */
1080:libs/ssdv/ssdv.c **** 	return(SSDV_FEED_ME);
1081:libs/ssdv/ssdv.c **** }
1082:libs/ssdv/ssdv.c **** 
1083:libs/ssdv/ssdv.c **** char ssdv_enc_feed(ssdv_t *s, uint8_t *buffer, size_t length)
1084:libs/ssdv/ssdv.c **** {
1085:libs/ssdv/ssdv.c **** 	s->inp    = buffer;
1086:libs/ssdv/ssdv.c **** 	s->in_len = length;
1087:libs/ssdv/ssdv.c **** 	return(SSDV_OK);
1088:libs/ssdv/ssdv.c **** }
1089:libs/ssdv/ssdv.c **** 
1090:libs/ssdv/ssdv.c **** /*****************************************************************************/
1091:libs/ssdv/ssdv.c **** 
1092:libs/ssdv/ssdv.c **** static void ssdv_write_marker(ssdv_t *s, uint16_t id, uint16_t length, const uint8_t *data)
1093:libs/ssdv/ssdv.c **** {
 3092              		.loc 1 1093 1 is_stmt 1 view -0
 3093              		.cfi_startproc
 3094              		@ args = 0, pretend = 0, frame = 0
 3095              		@ frame_needed = 0, uses_anonymous_args = 0
 3096              		.loc 1 1093 1 is_stmt 0 view .LVU1048
 3097 0000 F8B5     		push	{r3, r4, r5, r6, r7, lr}
 3098              	.LCFI9:
 3099              		.cfi_def_cfa_offset 24
 3100              		.cfi_offset 3, -24
 3101              		.cfi_offset 4, -20
 3102              		.cfi_offset 5, -16
 3103              		.cfi_offset 6, -12
 3104              		.cfi_offset 7, -8
 3105              		.cfi_offset 14, -4
 3106 0002 0746     		mov	r7, r0
 3107 0004 1546     		mov	r5, r2
 3108 0006 1C46     		mov	r4, r3
1094:libs/ssdv/ssdv.c **** 	ssdv_outbits(s, id, 16);
 3109              		.loc 1 1094 2 is_stmt 1 view .LVU1049
 3110 0008 1022     		movs	r2, #16
 3111              	.LVL300:
 3112              		.loc 1 1094 2 is_stmt 0 view .LVU1050
 3113 000a FFF7FEFF 		bl	ssdv_outbits
 3114              	.LVL301:
1095:libs/ssdv/ssdv.c **** 	if(length > 0)
ARM GAS  /tmp/ccKzwklo.s 			page 85


 3115              		.loc 1 1095 2 is_stmt 1 view .LVU1051
 3116              		.loc 1 1095 4 is_stmt 0 view .LVU1052
 3117 000e 05B9     		cbnz	r5, .L241
 3118              	.LVL302:
 3119              	.L236:
1096:libs/ssdv/ssdv.c **** 	{
1097:libs/ssdv/ssdv.c **** 		ssdv_outbits(s, length + 2, 16);
1098:libs/ssdv/ssdv.c **** 		while(length--) ssdv_outbits(s, *(data++), 8);
1099:libs/ssdv/ssdv.c **** 	}
1100:libs/ssdv/ssdv.c **** }
 3120              		.loc 1 1100 1 view .LVU1053
 3121 0010 F8BD     		pop	{r3, r4, r5, r6, r7, pc}
 3122              	.LVL303:
 3123              	.L241:
1097:libs/ssdv/ssdv.c **** 		while(length--) ssdv_outbits(s, *(data++), 8);
 3124              		.loc 1 1097 3 is_stmt 1 view .LVU1054
 3125 0012 A91C     		adds	r1, r5, #2
 3126 0014 1022     		movs	r2, #16
 3127 0016 89B2     		uxth	r1, r1
 3128 0018 3846     		mov	r0, r7
 3129 001a FFF7FEFF 		bl	ssdv_outbits
 3130              	.LVL304:
1098:libs/ssdv/ssdv.c **** 	}
 3131              		.loc 1 1098 3 view .LVU1055
1098:libs/ssdv/ssdv.c **** 	}
 3132              		.loc 1 1098 8 is_stmt 0 view .LVU1056
 3133 001e 06E0     		b	.L238
 3134              	.LVL305:
 3135              	.L239:
1098:libs/ssdv/ssdv.c **** 	}
 3136              		.loc 1 1098 19 is_stmt 1 discriminator 2 view .LVU1057
1098:libs/ssdv/ssdv.c **** 	}
 3137              		.loc 1 1098 19 is_stmt 0 discriminator 2 view .LVU1058
 3138 0020 0822     		movs	r2, #8
 3139 0022 14F8011B 		ldrb	r1, [r4], #1	@ zero_extendqisi2
 3140              	.LVL306:
1098:libs/ssdv/ssdv.c **** 	}
 3141              		.loc 1 1098 19 discriminator 2 view .LVU1059
 3142 0026 3846     		mov	r0, r7
 3143 0028 FFF7FEFF 		bl	ssdv_outbits
 3144              	.LVL307:
1098:libs/ssdv/ssdv.c **** 	}
 3145              		.loc 1 1098 15 discriminator 2 view .LVU1060
 3146 002c 3546     		mov	r5, r6
 3147              	.LVL308:
 3148              	.L238:
1098:libs/ssdv/ssdv.c **** 	}
 3149              		.loc 1 1098 8 is_stmt 1 discriminator 1 view .LVU1061
1098:libs/ssdv/ssdv.c **** 	}
 3150              		.loc 1 1098 15 is_stmt 0 discriminator 1 view .LVU1062
 3151 002e 6B1E     		subs	r3, r5, #1
 3152 0030 9EB2     		uxth	r6, r3
 3153              	.LVL309:
1098:libs/ssdv/ssdv.c **** 	}
 3154              		.loc 1 1098 8 discriminator 1 view .LVU1063
 3155 0032 002D     		cmp	r5, #0
 3156 0034 F4D1     		bne	.L239
ARM GAS  /tmp/ccKzwklo.s 			page 86


1098:libs/ssdv/ssdv.c **** 	}
 3157              		.loc 1 1098 8 discriminator 1 view .LVU1064
 3158 0036 EBE7     		b	.L236
 3159              		.cfi_endproc
 3160              	.LFE25:
 3162              		.section	.text.ssdv_out_headers,"ax",%progbits
 3163              		.align	1
 3164              		.syntax unified
 3165              		.thumb
 3166              		.thumb_func
 3167              		.fpu softvfp
 3169              	ssdv_out_headers:
 3170              	.LVL310:
 3171              	.LFB26:
1101:libs/ssdv/ssdv.c **** 
1102:libs/ssdv/ssdv.c **** static void ssdv_out_headers(ssdv_t *s)
1103:libs/ssdv/ssdv.c **** {
 3172              		.loc 1 1103 1 is_stmt 1 view -0
 3173              		.cfi_startproc
 3174              		@ args = 0, pretend = 0, frame = 0
 3175              		@ frame_needed = 0, uses_anonymous_args = 0
 3176              		.loc 1 1103 1 is_stmt 0 view .LVU1066
 3177 0000 70B5     		push	{r4, r5, r6, lr}
 3178              	.LCFI10:
 3179              		.cfi_def_cfa_offset 16
 3180              		.cfi_offset 4, -16
 3181              		.cfi_offset 5, -12
 3182              		.cfi_offset 6, -8
 3183              		.cfi_offset 14, -4
 3184 0002 0446     		mov	r4, r0
1104:libs/ssdv/ssdv.c **** 	uint8_t *b = &s->stbls[s->stbl_len];
 3185              		.loc 1 1104 2 is_stmt 1 view .LVU1067
 3186              		.loc 1 1104 26 is_stmt 0 view .LVU1068
 3187 0004 B0F8D062 		ldrh	r6, [r0, #720]
 3188              		.loc 1 1104 11 view .LVU1069
 3189 0008 06F18005 		add	r5, r6, #128
 3190 000c 0544     		add	r5, r5, r0
 3191 000e 0535     		adds	r5, r5, #5
 3192              	.LVL311:
1105:libs/ssdv/ssdv.c **** 	
1106:libs/ssdv/ssdv.c **** 	ssdv_write_marker(s, J_SOI,    0, 0);
 3193              		.loc 1 1106 2 is_stmt 1 view .LVU1070
 3194 0010 0023     		movs	r3, #0
 3195 0012 1A46     		mov	r2, r3
 3196 0014 4FF6D871 		movw	r1, #65496
 3197 0018 FFF7FEFF 		bl	ssdv_write_marker
 3198              	.LVL312:
1107:libs/ssdv/ssdv.c **** 	ssdv_write_marker(s, J_APP0,  14, app0);
 3199              		.loc 1 1107 2 view .LVU1071
 3200 001c 384B     		ldr	r3, .L250
 3201 001e 0E22     		movs	r2, #14
 3202 0020 4FF6E071 		movw	r1, #65504
 3203 0024 2046     		mov	r0, r4
 3204 0026 FFF7FEFF 		bl	ssdv_write_marker
 3205              	.LVL313:
1108:libs/ssdv/ssdv.c **** 	ssdv_write_marker(s, J_DQT,   65, s->ddqt[0]);  /* DQT Luminance       */
 3206              		.loc 1 1108 2 view .LVU1072
ARM GAS  /tmp/ccKzwklo.s 			page 87


 3207 002a D4F80435 		ldr	r3, [r4, #1284]
 3208 002e 4122     		movs	r2, #65
 3209 0030 4FF6DB71 		movw	r1, #65499
 3210 0034 2046     		mov	r0, r4
 3211 0036 FFF7FEFF 		bl	ssdv_write_marker
 3212              	.LVL314:
1109:libs/ssdv/ssdv.c **** 	ssdv_write_marker(s, J_DQT,   65, s->ddqt[1]);  /* DQT Chrominance     */
 3213              		.loc 1 1109 2 view .LVU1073
 3214 003a D4F80835 		ldr	r3, [r4, #1288]
 3215 003e 4122     		movs	r2, #65
 3216 0040 4FF6DB71 		movw	r1, #65499
 3217 0044 2046     		mov	r0, r4
 3218 0046 FFF7FEFF 		bl	ssdv_write_marker
 3219              	.LVL315:
1110:libs/ssdv/ssdv.c **** 	
1111:libs/ssdv/ssdv.c **** 	/* Build SOF0 header */
1112:libs/ssdv/ssdv.c **** 	b[0]  = 8; /* Precision */
 3220              		.loc 1 1112 2 view .LVU1074
 3221              		.loc 1 1112 8 is_stmt 0 view .LVU1075
 3222 004a 2644     		add	r6, r6, r4
 3223 004c 0823     		movs	r3, #8
 3224 004e 86F88530 		strb	r3, [r6, #133]
1113:libs/ssdv/ssdv.c **** 	b[1]  = s->height >> 8;
 3225              		.loc 1 1113 2 is_stmt 1 view .LVU1076
 3226              		.loc 1 1113 11 is_stmt 0 view .LVU1077
 3227 0052 2389     		ldrh	r3, [r4, #8]
 3228              		.loc 1 1113 8 view .LVU1078
 3229 0054 1B0A     		lsrs	r3, r3, #8
 3230 0056 6B70     		strb	r3, [r5, #1]
1114:libs/ssdv/ssdv.c **** 	b[2]  = s->height & 0xFF;
 3231              		.loc 1 1114 2 is_stmt 1 view .LVU1079
 3232              		.loc 1 1114 11 is_stmt 0 view .LVU1080
 3233 0058 2389     		ldrh	r3, [r4, #8]
 3234              		.loc 1 1114 8 view .LVU1081
 3235 005a AB70     		strb	r3, [r5, #2]
1115:libs/ssdv/ssdv.c **** 	b[3]  = s->width >> 8;
 3236              		.loc 1 1115 2 is_stmt 1 view .LVU1082
 3237              		.loc 1 1115 11 is_stmt 0 view .LVU1083
 3238 005c E388     		ldrh	r3, [r4, #6]
 3239              		.loc 1 1115 8 view .LVU1084
 3240 005e 1B0A     		lsrs	r3, r3, #8
 3241 0060 EB70     		strb	r3, [r5, #3]
1116:libs/ssdv/ssdv.c **** 	b[4]  = s->width & 0xFF;
 3242              		.loc 1 1116 2 is_stmt 1 view .LVU1085
 3243              		.loc 1 1116 11 is_stmt 0 view .LVU1086
 3244 0062 E388     		ldrh	r3, [r4, #6]
 3245              		.loc 1 1116 8 view .LVU1087
 3246 0064 2B71     		strb	r3, [r5, #4]
1117:libs/ssdv/ssdv.c **** 	b[5]  = 3; /* Components (Y'Cb'Cr) */
 3247              		.loc 1 1117 2 is_stmt 1 view .LVU1088
 3248              		.loc 1 1117 8 is_stmt 0 view .LVU1089
 3249 0066 0323     		movs	r3, #3
 3250 0068 6B71     		strb	r3, [r5, #5]
1118:libs/ssdv/ssdv.c **** 	b[6]  = 1; /* Y */
 3251              		.loc 1 1118 2 is_stmt 1 view .LVU1090
 3252              		.loc 1 1118 8 is_stmt 0 view .LVU1091
 3253 006a 0123     		movs	r3, #1
ARM GAS  /tmp/ccKzwklo.s 			page 88


 3254 006c AB71     		strb	r3, [r5, #6]
1119:libs/ssdv/ssdv.c **** 	switch(s->mcu_mode)
 3255              		.loc 1 1119 2 is_stmt 1 view .LVU1092
 3256              		.loc 1 1119 10 is_stmt 0 view .LVU1093
 3257 006e 237D     		ldrb	r3, [r4, #20]	@ zero_extendqisi2
 3258              		.loc 1 1119 2 view .LVU1094
 3259 0070 032B     		cmp	r3, #3
 3260 0072 05D8     		bhi	.L243
 3261 0074 DFE803F0 		tbb	[pc, r3]
 3262              	.L245:
 3263 0078 02       		.byte	(.L248-.L245)/2
 3264 0079 3B       		.byte	(.L247-.L245)/2
 3265 007a 3E       		.byte	(.L246-.L245)/2
 3266 007b 41       		.byte	(.L244-.L245)/2
 3267              		.p2align 1
 3268              	.L248:
1120:libs/ssdv/ssdv.c **** 	{
1121:libs/ssdv/ssdv.c **** 	case 0: b[7] = 0x22; break;
 3269              		.loc 1 1121 10 is_stmt 1 view .LVU1095
 3270              		.loc 1 1121 15 is_stmt 0 view .LVU1096
 3271 007c 2223     		movs	r3, #34
 3272 007e EB71     		strb	r3, [r5, #7]
 3273              		.loc 1 1121 23 is_stmt 1 view .LVU1097
 3274              	.L243:
1122:libs/ssdv/ssdv.c **** 	case 1: b[7] = 0x12; break;
1123:libs/ssdv/ssdv.c **** 	case 2: b[7] = 0x21; break;
1124:libs/ssdv/ssdv.c **** 	case 3: b[7] = 0x11; break;
1125:libs/ssdv/ssdv.c **** 	}
1126:libs/ssdv/ssdv.c **** 	b[8]  = 0x00;
 3275              		.loc 1 1126 2 view .LVU1098
 3276              		.loc 1 1126 8 is_stmt 0 view .LVU1099
 3277 0080 0023     		movs	r3, #0
 3278 0082 2B72     		strb	r3, [r5, #8]
1127:libs/ssdv/ssdv.c **** 	b[9]  = 2; /* Cb */
 3279              		.loc 1 1127 2 is_stmt 1 view .LVU1100
 3280              		.loc 1 1127 8 is_stmt 0 view .LVU1101
 3281 0084 0223     		movs	r3, #2
 3282 0086 6B72     		strb	r3, [r5, #9]
1128:libs/ssdv/ssdv.c **** 	b[10] = 0x11;
 3283              		.loc 1 1128 2 is_stmt 1 view .LVU1102
 3284              		.loc 1 1128 8 is_stmt 0 view .LVU1103
 3285 0088 1122     		movs	r2, #17
 3286 008a AA72     		strb	r2, [r5, #10]
1129:libs/ssdv/ssdv.c **** 	b[11] = 0x01;
 3287              		.loc 1 1129 2 is_stmt 1 view .LVU1104
 3288              		.loc 1 1129 8 is_stmt 0 view .LVU1105
 3289 008c 0123     		movs	r3, #1
 3290 008e EB72     		strb	r3, [r5, #11]
1130:libs/ssdv/ssdv.c **** 	b[12] = 3; /* Cr */
 3291              		.loc 1 1130 2 is_stmt 1 view .LVU1106
 3292              		.loc 1 1130 8 is_stmt 0 view .LVU1107
 3293 0090 0321     		movs	r1, #3
 3294 0092 2973     		strb	r1, [r5, #12]
1131:libs/ssdv/ssdv.c **** 	b[13] = 0x11;
 3295              		.loc 1 1131 2 is_stmt 1 view .LVU1108
 3296              		.loc 1 1131 8 is_stmt 0 view .LVU1109
 3297 0094 6A73     		strb	r2, [r5, #13]
ARM GAS  /tmp/ccKzwklo.s 			page 89


1132:libs/ssdv/ssdv.c **** 	b[14] = 0x01;
 3298              		.loc 1 1132 2 is_stmt 1 view .LVU1110
 3299              		.loc 1 1132 8 is_stmt 0 view .LVU1111
 3300 0096 AB73     		strb	r3, [r5, #14]
1133:libs/ssdv/ssdv.c **** 	ssdv_write_marker(s, J_SOF0,  15, b);  /* SOF0 (Baseline DCT) */
 3301              		.loc 1 1133 2 is_stmt 1 view .LVU1112
 3302 0098 2B46     		mov	r3, r5
 3303 009a 0F22     		movs	r2, #15
 3304 009c 4FF6C071 		movw	r1, #65472
 3305 00a0 2046     		mov	r0, r4
 3306 00a2 FFF7FEFF 		bl	ssdv_write_marker
 3307              	.LVL316:
1134:libs/ssdv/ssdv.c **** 	
1135:libs/ssdv/ssdv.c **** 	ssdv_write_marker(s, J_DHT,   29, std_dht00); /* DHT (DC Luminance)  */
 3308              		.loc 1 1135 2 view .LVU1113
 3309 00a6 174B     		ldr	r3, .L250+4
 3310 00a8 1D22     		movs	r2, #29
 3311 00aa 4FF6C471 		movw	r1, #65476
 3312 00ae 2046     		mov	r0, r4
 3313 00b0 FFF7FEFF 		bl	ssdv_write_marker
 3314              	.LVL317:
1136:libs/ssdv/ssdv.c **** 	ssdv_write_marker(s, J_DHT,  179, std_dht10); /* DHT (AC Luminance)  */
 3315              		.loc 1 1136 2 view .LVU1114
 3316 00b4 144B     		ldr	r3, .L250+8
 3317 00b6 B322     		movs	r2, #179
 3318 00b8 4FF6C471 		movw	r1, #65476
 3319 00bc 2046     		mov	r0, r4
 3320 00be FFF7FEFF 		bl	ssdv_write_marker
 3321              	.LVL318:
1137:libs/ssdv/ssdv.c **** 	ssdv_write_marker(s, J_DHT,   29, std_dht01); /* DHT (DC Chrominance */
 3322              		.loc 1 1137 2 view .LVU1115
 3323 00c2 124B     		ldr	r3, .L250+12
 3324 00c4 1D22     		movs	r2, #29
 3325 00c6 4FF6C471 		movw	r1, #65476
 3326 00ca 2046     		mov	r0, r4
 3327 00cc FFF7FEFF 		bl	ssdv_write_marker
 3328              	.LVL319:
1138:libs/ssdv/ssdv.c **** 	ssdv_write_marker(s, J_DHT,  179, std_dht11); /* DHT (AC Chrominance */
 3329              		.loc 1 1138 2 view .LVU1116
 3330 00d0 0F4B     		ldr	r3, .L250+16
 3331 00d2 B322     		movs	r2, #179
 3332 00d4 4FF6C471 		movw	r1, #65476
 3333 00d8 2046     		mov	r0, r4
 3334 00da FFF7FEFF 		bl	ssdv_write_marker
 3335              	.LVL320:
1139:libs/ssdv/ssdv.c **** 	ssdv_write_marker(s, J_SOS,   10, sos);
 3336              		.loc 1 1139 2 view .LVU1117
 3337 00de 0D4B     		ldr	r3, .L250+20
 3338 00e0 0A22     		movs	r2, #10
 3339 00e2 4FF6DA71 		movw	r1, #65498
 3340 00e6 2046     		mov	r0, r4
 3341 00e8 FFF7FEFF 		bl	ssdv_write_marker
 3342              	.LVL321:
1140:libs/ssdv/ssdv.c **** }
 3343              		.loc 1 1140 1 is_stmt 0 view .LVU1118
 3344 00ec 70BD     		pop	{r4, r5, r6, pc}
 3345              	.LVL322:
ARM GAS  /tmp/ccKzwklo.s 			page 90


 3346              	.L247:
1122:libs/ssdv/ssdv.c **** 	case 2: b[7] = 0x21; break;
 3347              		.loc 1 1122 10 is_stmt 1 view .LVU1119
1122:libs/ssdv/ssdv.c **** 	case 2: b[7] = 0x21; break;
 3348              		.loc 1 1122 15 is_stmt 0 view .LVU1120
 3349 00ee 1223     		movs	r3, #18
 3350 00f0 EB71     		strb	r3, [r5, #7]
1122:libs/ssdv/ssdv.c **** 	case 2: b[7] = 0x21; break;
 3351              		.loc 1 1122 23 is_stmt 1 view .LVU1121
1122:libs/ssdv/ssdv.c **** 	case 2: b[7] = 0x21; break;
 3352              		.loc 1 1122 2 is_stmt 0 view .LVU1122
 3353 00f2 C5E7     		b	.L243
 3354              	.L246:
1123:libs/ssdv/ssdv.c **** 	case 3: b[7] = 0x11; break;
 3355              		.loc 1 1123 10 is_stmt 1 view .LVU1123
1123:libs/ssdv/ssdv.c **** 	case 3: b[7] = 0x11; break;
 3356              		.loc 1 1123 15 is_stmt 0 view .LVU1124
 3357 00f4 2123     		movs	r3, #33
 3358 00f6 EB71     		strb	r3, [r5, #7]
1123:libs/ssdv/ssdv.c **** 	case 3: b[7] = 0x11; break;
 3359              		.loc 1 1123 23 is_stmt 1 view .LVU1125
1123:libs/ssdv/ssdv.c **** 	case 3: b[7] = 0x11; break;
 3360              		.loc 1 1123 2 is_stmt 0 view .LVU1126
 3361 00f8 C2E7     		b	.L243
 3362              	.L244:
1124:libs/ssdv/ssdv.c **** 	}
 3363              		.loc 1 1124 10 is_stmt 1 view .LVU1127
1124:libs/ssdv/ssdv.c **** 	}
 3364              		.loc 1 1124 15 is_stmt 0 view .LVU1128
 3365 00fa 1123     		movs	r3, #17
 3366 00fc EB71     		strb	r3, [r5, #7]
1124:libs/ssdv/ssdv.c **** 	}
 3367              		.loc 1 1124 23 is_stmt 1 view .LVU1129
1124:libs/ssdv/ssdv.c **** 	}
 3368              		.loc 1 1124 2 is_stmt 0 view .LVU1130
 3369 00fe BFE7     		b	.L243
 3370              	.L251:
 3371              		.align	2
 3372              	.L250:
 3373 0100 00000000 		.word	.LANCHOR1
 3374 0104 00000000 		.word	.LANCHOR2
 3375 0108 00000000 		.word	.LANCHOR3
 3376 010c 00000000 		.word	.LANCHOR4
 3377 0110 00000000 		.word	.LANCHOR5
 3378 0114 00000000 		.word	.LANCHOR6
 3379              		.cfi_endproc
 3380              	.LFE26:
 3382              		.section	.text.ssdv_fill_gap,"ax",%progbits
 3383              		.align	1
 3384              		.syntax unified
 3385              		.thumb
 3386              		.thumb_func
 3387              		.fpu softvfp
 3389              	ssdv_fill_gap:
 3390              	.LVL323:
 3391              	.LFB27:
1141:libs/ssdv/ssdv.c **** 
ARM GAS  /tmp/ccKzwklo.s 			page 91


1142:libs/ssdv/ssdv.c **** static void ssdv_fill_gap(ssdv_t *s, uint16_t next_mcu)
1143:libs/ssdv/ssdv.c **** {
 3392              		.loc 1 1143 1 is_stmt 1 view -0
 3393              		.cfi_startproc
 3394              		@ args = 0, pretend = 0, frame = 0
 3395              		@ frame_needed = 0, uses_anonymous_args = 0
 3396              		.loc 1 1143 1 is_stmt 0 view .LVU1132
 3397 0000 70B5     		push	{r4, r5, r6, lr}
 3398              	.LCFI11:
 3399              		.cfi_def_cfa_offset 16
 3400              		.cfi_offset 4, -16
 3401              		.cfi_offset 5, -12
 3402              		.cfi_offset 6, -8
 3403              		.cfi_offset 14, -4
 3404 0002 0446     		mov	r4, r0
 3405 0004 0E46     		mov	r6, r1
1144:libs/ssdv/ssdv.c **** 	if(s->mcupart > 0 || s->acpart > 0)
 3406              		.loc 1 1144 2 is_stmt 1 view .LVU1133
 3407              		.loc 1 1144 20 is_stmt 0 view .LVU1134
 3408 0006 836D     		ldr	r3, [r0, #88]
 3409 0008 23F07F43 		bic	r3, r3, #-16777216
 3410 000c 23F0FF03 		bic	r3, r3, #255
 3411              		.loc 1 1144 4 view .LVU1135
 3412 0010 002B     		cmp	r3, #0
 3413 0012 61D0     		beq	.L259
1145:libs/ssdv/ssdv.c **** 	{
1146:libs/ssdv/ssdv.c **** 		/* Cleanly end the current MCU part */
1147:libs/ssdv/ssdv.c **** 		if(s->acpart > 0)
 3414              		.loc 1 1147 3 is_stmt 1 view .LVU1136
 3415              		.loc 1 1147 7 is_stmt 0 view .LVU1137
 3416 0014 90F85A30 		ldrb	r3, [r0, #90]	@ zero_extendqisi2
 3417              		.loc 1 1147 5 view .LVU1138
 3418 0018 1BB3     		cbz	r3, .L255
1148:libs/ssdv/ssdv.c **** 		{
1149:libs/ssdv/ssdv.c **** 			ssdv_out_jpeg_int(s, 0, 0);
 3419              		.loc 1 1149 4 is_stmt 1 view .LVU1139
 3420 001a 0022     		movs	r2, #0
 3421 001c 1146     		mov	r1, r2
 3422              	.LVL324:
 3423              		.loc 1 1149 4 is_stmt 0 view .LVU1140
 3424 001e FFF7FEFF 		bl	ssdv_out_jpeg_int
 3425              	.LVL325:
1150:libs/ssdv/ssdv.c **** 			s->mcupart++;
 3426              		.loc 1 1150 4 is_stmt 1 view .LVU1141
 3427              		.loc 1 1150 5 is_stmt 0 view .LVU1142
 3428 0022 94F85930 		ldrb	r3, [r4, #89]	@ zero_extendqisi2
 3429              		.loc 1 1150 14 view .LVU1143
 3430 0026 0133     		adds	r3, r3, #1
 3431 0028 84F85930 		strb	r3, [r4, #89]
 3432 002c 19E0     		b	.L255
 3433              	.L256:
1151:libs/ssdv/ssdv.c **** 		}
1152:libs/ssdv/ssdv.c **** 		
1153:libs/ssdv/ssdv.c **** 		/* End the current MCU block */
1154:libs/ssdv/ssdv.c **** 		for(; s->mcupart < s->ycparts + 2; s->mcupart++)
1155:libs/ssdv/ssdv.c **** 		{
1156:libs/ssdv/ssdv.c **** 			if(s->mcupart < s->ycparts) s->component = 0;
ARM GAS  /tmp/ccKzwklo.s 			page 92


1157:libs/ssdv/ssdv.c **** 			else s->component = s->mcupart - s->ycparts + 1;
 3434              		.loc 1 1157 9 is_stmt 1 view .LVU1144
 3435              		.loc 1 1157 35 is_stmt 0 view .LVU1145
 3436 002e 9B1A     		subs	r3, r3, r2
 3437 0030 DBB2     		uxtb	r3, r3
 3438              		.loc 1 1157 48 view .LVU1146
 3439 0032 0133     		adds	r3, r3, #1
 3440              		.loc 1 1157 22 view .LVU1147
 3441 0034 84F85730 		strb	r3, [r4, #87]
 3442              	.L257:
1158:libs/ssdv/ssdv.c **** 			s->acpart = 0; ssdv_out_jpeg_int(s, 0, 0); /* DC */
 3443              		.loc 1 1158 4 is_stmt 1 view .LVU1148
 3444              		.loc 1 1158 14 is_stmt 0 view .LVU1149
 3445 0038 0025     		movs	r5, #0
 3446 003a 84F85A50 		strb	r5, [r4, #90]
 3447              		.loc 1 1158 19 is_stmt 1 view .LVU1150
 3448 003e 2A46     		mov	r2, r5
 3449 0040 2946     		mov	r1, r5
 3450 0042 2046     		mov	r0, r4
 3451 0044 FFF7FEFF 		bl	ssdv_out_jpeg_int
 3452              	.LVL326:
1159:libs/ssdv/ssdv.c **** 			s->acpart = 1; ssdv_out_jpeg_int(s, 0, 0); /* AC */
 3453              		.loc 1 1159 4 view .LVU1151
 3454              		.loc 1 1159 14 is_stmt 0 view .LVU1152
 3455 0048 0123     		movs	r3, #1
 3456 004a 84F85A30 		strb	r3, [r4, #90]
 3457              		.loc 1 1159 19 is_stmt 1 view .LVU1153
 3458 004e 2A46     		mov	r2, r5
 3459 0050 2946     		mov	r1, r5
 3460 0052 2046     		mov	r0, r4
 3461 0054 FFF7FEFF 		bl	ssdv_out_jpeg_int
 3462              	.LVL327:
1154:libs/ssdv/ssdv.c **** 		{
 3463              		.loc 1 1154 38 view .LVU1154
1154:libs/ssdv/ssdv.c **** 		{
 3464              		.loc 1 1154 39 is_stmt 0 view .LVU1155
 3465 0058 94F85930 		ldrb	r3, [r4, #89]	@ zero_extendqisi2
1154:libs/ssdv/ssdv.c **** 		{
 3466              		.loc 1 1154 48 view .LVU1156
 3467 005c 0133     		adds	r3, r3, #1
 3468 005e 84F85930 		strb	r3, [r4, #89]
 3469              	.L255:
1154:libs/ssdv/ssdv.c **** 		{
 3470              		.loc 1 1154 9 is_stmt 1 discriminator 1 view .LVU1157
1154:libs/ssdv/ssdv.c **** 		{
 3471              		.loc 1 1154 23 is_stmt 0 discriminator 1 view .LVU1158
 3472 0062 94F85820 		ldrb	r2, [r4, #88]	@ zero_extendqisi2
1154:libs/ssdv/ssdv.c **** 		{
 3473              		.loc 1 1154 20 discriminator 1 view .LVU1159
 3474 0066 511C     		adds	r1, r2, #1
1154:libs/ssdv/ssdv.c **** 		{
 3475              		.loc 1 1154 10 discriminator 1 view .LVU1160
 3476 0068 94F85930 		ldrb	r3, [r4, #89]	@ zero_extendqisi2
1154:libs/ssdv/ssdv.c **** 		{
 3477              		.loc 1 1154 3 discriminator 1 view .LVU1161
 3478 006c 9942     		cmp	r1, r3
 3479 006e 05DB     		blt	.L266
ARM GAS  /tmp/ccKzwklo.s 			page 93


1156:libs/ssdv/ssdv.c **** 			else s->component = s->mcupart - s->ycparts + 1;
 3480              		.loc 1 1156 4 is_stmt 1 view .LVU1162
1156:libs/ssdv/ssdv.c **** 			else s->component = s->mcupart - s->ycparts + 1;
 3481              		.loc 1 1156 6 is_stmt 0 view .LVU1163
 3482 0070 9A42     		cmp	r2, r3
 3483 0072 DCD9     		bls	.L256
1156:libs/ssdv/ssdv.c **** 			else s->component = s->mcupart - s->ycparts + 1;
 3484              		.loc 1 1156 32 is_stmt 1 discriminator 1 view .LVU1164
1156:libs/ssdv/ssdv.c **** 			else s->component = s->mcupart - s->ycparts + 1;
 3485              		.loc 1 1156 45 is_stmt 0 discriminator 1 view .LVU1165
 3486 0074 0023     		movs	r3, #0
 3487 0076 84F85730 		strb	r3, [r4, #87]
 3488 007a DDE7     		b	.L257
 3489              	.L266:
1160:libs/ssdv/ssdv.c **** 		}
1161:libs/ssdv/ssdv.c **** 		
1162:libs/ssdv/ssdv.c **** 		s->mcu_id++;
 3490              		.loc 1 1162 3 is_stmt 1 view .LVU1166
 3491              		.loc 1 1162 4 is_stmt 0 view .LVU1167
 3492 007c E38A     		ldrh	r3, [r4, #22]
 3493              		.loc 1 1162 12 view .LVU1168
 3494 007e 0133     		adds	r3, r3, #1
 3495 0080 E382     		strh	r3, [r4, #22]	@ movhi
 3496 0082 29E0     		b	.L259
 3497              	.L261:
1163:libs/ssdv/ssdv.c **** 	}
1164:libs/ssdv/ssdv.c **** 	
1165:libs/ssdv/ssdv.c **** 	/* Pad out missing MCUs */
1166:libs/ssdv/ssdv.c **** 	for(; s->mcu_id < next_mcu; s->mcu_id++)
1167:libs/ssdv/ssdv.c **** 	{
1168:libs/ssdv/ssdv.c **** 		/* End the current MCU block */
1169:libs/ssdv/ssdv.c **** 		for(s->mcupart = 0; s->mcupart < s->ycparts + 2; s->mcupart++)
1170:libs/ssdv/ssdv.c **** 		{
1171:libs/ssdv/ssdv.c **** 			if(s->mcupart < s->ycparts) s->component = 0;
1172:libs/ssdv/ssdv.c **** 			else s->component = s->mcupart - s->ycparts + 1;
 3498              		.loc 1 1172 9 is_stmt 1 view .LVU1169
 3499              		.loc 1 1172 35 is_stmt 0 view .LVU1170
 3500 0084 9B1A     		subs	r3, r3, r2
 3501 0086 DBB2     		uxtb	r3, r3
 3502              		.loc 1 1172 48 view .LVU1171
 3503 0088 0133     		adds	r3, r3, #1
 3504              		.loc 1 1172 22 view .LVU1172
 3505 008a 84F85730 		strb	r3, [r4, #87]
 3506              	.L262:
1173:libs/ssdv/ssdv.c **** 			s->acpart = 0; ssdv_out_jpeg_int(s, 0, 0); /* DC */
 3507              		.loc 1 1173 4 is_stmt 1 discriminator 2 view .LVU1173
 3508              		.loc 1 1173 14 is_stmt 0 discriminator 2 view .LVU1174
 3509 008e 0025     		movs	r5, #0
 3510 0090 84F85A50 		strb	r5, [r4, #90]
 3511              		.loc 1 1173 19 is_stmt 1 discriminator 2 view .LVU1175
 3512 0094 2A46     		mov	r2, r5
 3513 0096 2946     		mov	r1, r5
 3514 0098 2046     		mov	r0, r4
 3515 009a FFF7FEFF 		bl	ssdv_out_jpeg_int
 3516              	.LVL328:
1174:libs/ssdv/ssdv.c **** 			s->acpart = 1; ssdv_out_jpeg_int(s, 0, 0); /* AC */
 3517              		.loc 1 1174 4 discriminator 2 view .LVU1176
ARM GAS  /tmp/ccKzwklo.s 			page 94


 3518              		.loc 1 1174 14 is_stmt 0 discriminator 2 view .LVU1177
 3519 009e 0123     		movs	r3, #1
 3520 00a0 84F85A30 		strb	r3, [r4, #90]
 3521              		.loc 1 1174 19 is_stmt 1 discriminator 2 view .LVU1178
 3522 00a4 2A46     		mov	r2, r5
 3523 00a6 2946     		mov	r1, r5
 3524 00a8 2046     		mov	r0, r4
 3525 00aa FFF7FEFF 		bl	ssdv_out_jpeg_int
 3526              	.LVL329:
1169:libs/ssdv/ssdv.c **** 		{
 3527              		.loc 1 1169 52 discriminator 2 view .LVU1179
1169:libs/ssdv/ssdv.c **** 		{
 3528              		.loc 1 1169 53 is_stmt 0 discriminator 2 view .LVU1180
 3529 00ae 94F85930 		ldrb	r3, [r4, #89]	@ zero_extendqisi2
1169:libs/ssdv/ssdv.c **** 		{
 3530              		.loc 1 1169 62 discriminator 2 view .LVU1181
 3531 00b2 0133     		adds	r3, r3, #1
 3532 00b4 84F85930 		strb	r3, [r4, #89]
 3533              	.L260:
1169:libs/ssdv/ssdv.c **** 		{
 3534              		.loc 1 1169 23 is_stmt 1 discriminator 1 view .LVU1182
1169:libs/ssdv/ssdv.c **** 		{
 3535              		.loc 1 1169 37 is_stmt 0 discriminator 1 view .LVU1183
 3536 00b8 94F85820 		ldrb	r2, [r4, #88]	@ zero_extendqisi2
1169:libs/ssdv/ssdv.c **** 		{
 3537              		.loc 1 1169 34 discriminator 1 view .LVU1184
 3538 00bc 511C     		adds	r1, r2, #1
1169:libs/ssdv/ssdv.c **** 		{
 3539              		.loc 1 1169 24 discriminator 1 view .LVU1185
 3540 00be 94F85930 		ldrb	r3, [r4, #89]	@ zero_extendqisi2
1169:libs/ssdv/ssdv.c **** 		{
 3541              		.loc 1 1169 3 discriminator 1 view .LVU1186
 3542 00c2 9942     		cmp	r1, r3
 3543 00c4 05DB     		blt	.L267
1171:libs/ssdv/ssdv.c **** 			else s->component = s->mcupart - s->ycparts + 1;
 3544              		.loc 1 1171 4 is_stmt 1 view .LVU1187
1171:libs/ssdv/ssdv.c **** 			else s->component = s->mcupart - s->ycparts + 1;
 3545              		.loc 1 1171 6 is_stmt 0 view .LVU1188
 3546 00c6 9A42     		cmp	r2, r3
 3547 00c8 DCD9     		bls	.L261
1171:libs/ssdv/ssdv.c **** 			else s->component = s->mcupart - s->ycparts + 1;
 3548              		.loc 1 1171 32 is_stmt 1 discriminator 1 view .LVU1189
1171:libs/ssdv/ssdv.c **** 			else s->component = s->mcupart - s->ycparts + 1;
 3549              		.loc 1 1171 45 is_stmt 0 discriminator 1 view .LVU1190
 3550 00ca 0023     		movs	r3, #0
 3551 00cc 84F85730 		strb	r3, [r4, #87]
 3552 00d0 DDE7     		b	.L262
 3553              	.L267:
1166:libs/ssdv/ssdv.c **** 	{
 3554              		.loc 1 1166 30 is_stmt 1 view .LVU1191
1166:libs/ssdv/ssdv.c **** 	{
 3555              		.loc 1 1166 31 is_stmt 0 view .LVU1192
 3556 00d2 E38A     		ldrh	r3, [r4, #22]
1166:libs/ssdv/ssdv.c **** 	{
 3557              		.loc 1 1166 39 view .LVU1193
 3558 00d4 0133     		adds	r3, r3, #1
 3559 00d6 E382     		strh	r3, [r4, #22]	@ movhi
ARM GAS  /tmp/ccKzwklo.s 			page 95


 3560              	.L259:
1166:libs/ssdv/ssdv.c **** 	{
 3561              		.loc 1 1166 8 is_stmt 1 discriminator 1 view .LVU1194
1166:libs/ssdv/ssdv.c **** 	{
 3562              		.loc 1 1166 9 is_stmt 0 discriminator 1 view .LVU1195
 3563 00d8 E38A     		ldrh	r3, [r4, #22]
1166:libs/ssdv/ssdv.c **** 	{
 3564              		.loc 1 1166 2 discriminator 1 view .LVU1196
 3565 00da B342     		cmp	r3, r6
 3566 00dc 03D2     		bcs	.L268
1169:libs/ssdv/ssdv.c **** 		{
 3567              		.loc 1 1169 3 is_stmt 1 view .LVU1197
1169:libs/ssdv/ssdv.c **** 		{
 3568              		.loc 1 1169 18 is_stmt 0 view .LVU1198
 3569 00de 0023     		movs	r3, #0
 3570 00e0 84F85930 		strb	r3, [r4, #89]
1169:libs/ssdv/ssdv.c **** 		{
 3571              		.loc 1 1169 3 view .LVU1199
 3572 00e4 E8E7     		b	.L260
 3573              	.L268:
1175:libs/ssdv/ssdv.c **** 		}                         
1176:libs/ssdv/ssdv.c **** 	}
1177:libs/ssdv/ssdv.c **** }
 3574              		.loc 1 1177 1 view .LVU1200
 3575 00e6 70BD     		pop	{r4, r5, r6, pc}
 3576              		.loc 1 1177 1 view .LVU1201
 3577              		.cfi_endproc
 3578              	.LFE27:
 3580              		.section	.text.dtblcpy,"ax",%progbits
 3581              		.align	1
 3582              		.syntax unified
 3583              		.thumb
 3584              		.thumb_func
 3585              		.fpu softvfp
 3587              	dtblcpy:
 3588              	.LVL330:
 3589              	.LFB5:
 208:libs/ssdv/ssdv.c **** 	void *r;
 3590              		.loc 1 208 1 is_stmt 1 view -0
 3591              		.cfi_startproc
 3592              		@ args = 0, pretend = 0, frame = 0
 3593              		@ frame_needed = 0, uses_anonymous_args = 0
 208:libs/ssdv/ssdv.c **** 	void *r;
 3594              		.loc 1 208 1 is_stmt 0 view .LVU1203
 3595 0000 38B5     		push	{r3, r4, r5, lr}
 3596              	.LCFI12:
 3597              		.cfi_def_cfa_offset 16
 3598              		.cfi_offset 3, -16
 3599              		.cfi_offset 4, -12
 3600              		.cfi_offset 5, -8
 3601              		.cfi_offset 14, -4
 3602 0002 0546     		mov	r5, r0
 3603 0004 1446     		mov	r4, r2
 209:libs/ssdv/ssdv.c **** 	if(s->dtbl_len + n > TBL_LEN) return(NULL);
 3604              		.loc 1 209 2 is_stmt 1 view .LVU1204
 210:libs/ssdv/ssdv.c **** 	r = memcpy(&s->dtbls[s->dtbl_len], src, n);
 3605              		.loc 1 210 2 view .LVU1205
ARM GAS  /tmp/ccKzwklo.s 			page 96


 210:libs/ssdv/ssdv.c **** 	r = memcpy(&s->dtbls[s->dtbl_len], src, n);
 3606              		.loc 1 210 6 is_stmt 0 view .LVU1206
 3607 0006 B0F80C35 		ldrh	r3, [r0, #1292]
 210:libs/ssdv/ssdv.c **** 	r = memcpy(&s->dtbls[s->dtbl_len], src, n);
 3608              		.loc 1 210 17 view .LVU1207
 3609 000a 9818     		adds	r0, r3, r2
 3610              	.LVL331:
 210:libs/ssdv/ssdv.c **** 	r = memcpy(&s->dtbls[s->dtbl_len], src, n);
 3611              		.loc 1 210 4 view .LVU1208
 3612 000c 40F22222 		movw	r2, #546
 3613              	.LVL332:
 210:libs/ssdv/ssdv.c **** 	r = memcpy(&s->dtbls[s->dtbl_len], src, n);
 3614              		.loc 1 210 4 view .LVU1209
 3615 0010 9042     		cmp	r0, r2
 3616 0012 0CD8     		bhi	.L271
 211:libs/ssdv/ssdv.c **** 	s->dtbl_len += n;
 3617              		.loc 1 211 2 is_stmt 1 view .LVU1210
 211:libs/ssdv/ssdv.c **** 	s->dtbl_len += n;
 3618              		.loc 1 211 13 is_stmt 0 view .LVU1211
 3619 0014 03F53473 		add	r3, r3, #720
 3620 0018 2B44     		add	r3, r3, r5
 211:libs/ssdv/ssdv.c **** 	s->dtbl_len += n;
 3621              		.loc 1 211 6 view .LVU1212
 3622 001a 2246     		mov	r2, r4
 3623 001c 981C     		adds	r0, r3, #2
 3624 001e FFF7FEFF 		bl	memcpy
 3625              	.LVL333:
 212:libs/ssdv/ssdv.c **** 	return(r);
 3626              		.loc 1 212 2 is_stmt 1 view .LVU1213
 212:libs/ssdv/ssdv.c **** 	return(r);
 3627              		.loc 1 212 14 is_stmt 0 view .LVU1214
 3628 0022 B5F80C25 		ldrh	r2, [r5, #1292]
 3629 0026 1444     		add	r4, r4, r2
 3630              	.LVL334:
 212:libs/ssdv/ssdv.c **** 	return(r);
 3631              		.loc 1 212 14 view .LVU1215
 3632 0028 A5F80C45 		strh	r4, [r5, #1292]	@ movhi
 213:libs/ssdv/ssdv.c **** }
 3633              		.loc 1 213 2 is_stmt 1 view .LVU1216
 3634              	.LVL335:
 3635              	.L269:
 214:libs/ssdv/ssdv.c **** 
 3636              		.loc 1 214 1 is_stmt 0 view .LVU1217
 3637 002c 38BD     		pop	{r3, r4, r5, pc}
 3638              	.LVL336:
 3639              	.L271:
 210:libs/ssdv/ssdv.c **** 	r = memcpy(&s->dtbls[s->dtbl_len], src, n);
 3640              		.loc 1 210 38 view .LVU1218
 3641 002e 0020     		movs	r0, #0
 3642 0030 FCE7     		b	.L269
 3643              		.cfi_endproc
 3644              	.LFE5:
 3646              		.section	.text.stblcpy,"ax",%progbits
 3647              		.align	1
 3648              		.syntax unified
 3649              		.thumb
 3650              		.thumb_func
ARM GAS  /tmp/ccKzwklo.s 			page 97


 3651              		.fpu softvfp
 3653              	stblcpy:
 3654              	.LVL337:
 3655              	.LFB4:
 199:libs/ssdv/ssdv.c **** 	void *r;
 3656              		.loc 1 199 1 is_stmt 1 view -0
 3657              		.cfi_startproc
 3658              		@ args = 0, pretend = 0, frame = 0
 3659              		@ frame_needed = 0, uses_anonymous_args = 0
 199:libs/ssdv/ssdv.c **** 	void *r;
 3660              		.loc 1 199 1 is_stmt 0 view .LVU1220
 3661 0000 38B5     		push	{r3, r4, r5, lr}
 3662              	.LCFI13:
 3663              		.cfi_def_cfa_offset 16
 3664              		.cfi_offset 3, -16
 3665              		.cfi_offset 4, -12
 3666              		.cfi_offset 5, -8
 3667              		.cfi_offset 14, -4
 3668 0002 0546     		mov	r5, r0
 3669 0004 1446     		mov	r4, r2
 200:libs/ssdv/ssdv.c **** 	if(s->stbl_len + n > TBL_LEN + HBUFF_LEN) return(NULL);
 3670              		.loc 1 200 2 is_stmt 1 view .LVU1221
 201:libs/ssdv/ssdv.c **** 	r = memcpy(&s->stbls[s->stbl_len], src, n);
 3671              		.loc 1 201 2 view .LVU1222
 201:libs/ssdv/ssdv.c **** 	r = memcpy(&s->stbls[s->stbl_len], src, n);
 3672              		.loc 1 201 6 is_stmt 0 view .LVU1223
 3673 0006 B0F8D032 		ldrh	r3, [r0, #720]
 201:libs/ssdv/ssdv.c **** 	r = memcpy(&s->stbls[s->stbl_len], src, n);
 3674              		.loc 1 201 17 view .LVU1224
 3675 000a 9818     		adds	r0, r3, r2
 3676              	.LVL338:
 201:libs/ssdv/ssdv.c **** 	r = memcpy(&s->stbls[s->stbl_len], src, n);
 3677              		.loc 1 201 4 view .LVU1225
 3678 000c 40F23222 		movw	r2, #562
 3679              	.LVL339:
 201:libs/ssdv/ssdv.c **** 	r = memcpy(&s->stbls[s->stbl_len], src, n);
 3680              		.loc 1 201 4 view .LVU1226
 3681 0010 9042     		cmp	r0, r2
 3682 0012 0BD8     		bhi	.L275
 202:libs/ssdv/ssdv.c **** 	s->stbl_len += n;
 3683              		.loc 1 202 2 is_stmt 1 view .LVU1227
 202:libs/ssdv/ssdv.c **** 	s->stbl_len += n;
 3684              		.loc 1 202 13 is_stmt 0 view .LVU1228
 3685 0014 8033     		adds	r3, r3, #128
 3686 0016 2B44     		add	r3, r3, r5
 202:libs/ssdv/ssdv.c **** 	s->stbl_len += n;
 3687              		.loc 1 202 6 view .LVU1229
 3688 0018 2246     		mov	r2, r4
 3689 001a 581D     		adds	r0, r3, #5
 3690 001c FFF7FEFF 		bl	memcpy
 3691              	.LVL340:
 203:libs/ssdv/ssdv.c **** 	return(r);
 3692              		.loc 1 203 2 is_stmt 1 view .LVU1230
 203:libs/ssdv/ssdv.c **** 	return(r);
 3693              		.loc 1 203 14 is_stmt 0 view .LVU1231
 3694 0020 B5F8D022 		ldrh	r2, [r5, #720]
 3695 0024 1444     		add	r4, r4, r2
ARM GAS  /tmp/ccKzwklo.s 			page 98


 3696              	.LVL341:
 203:libs/ssdv/ssdv.c **** 	return(r);
 3697              		.loc 1 203 14 view .LVU1232
 3698 0026 A5F8D042 		strh	r4, [r5, #720]	@ movhi
 204:libs/ssdv/ssdv.c **** }
 3699              		.loc 1 204 2 is_stmt 1 view .LVU1233
