ARM GAS  /tmp/ccBAjIZV.s 			page 1


   1              		.cpu cortex-m3
   2              		.arch armv7-m
   3              		.fpu softvfp
   4              		.eabi_attribute 20, 1
   5              		.eabi_attribute 21, 1
   6              		.eabi_attribute 23, 3
   7              		.eabi_attribute 24, 1
   8              		.eabi_attribute 25, 1
   9              		.eabi_attribute 26, 1
  10              		.eabi_attribute 30, 1
  11              		.eabi_attribute 34, 1
  12              		.eabi_attribute 18, 4
  13              		.file	"camera.c"
  14              		.text
  15              	.Ltext0:
  16              		.cfi_sections	.debug_frame
  17              		.file 1 "Core/Src/camera.c"
  18              		.section	.text.arducam_write_register,"ax",%progbits
  19              		.align	1
  20              		.global	arducam_write_register
  21              		.syntax unified
  22              		.thumb
  23              		.thumb_func
  25              	arducam_write_register:
  26              	.LVL0:
  27              	.LFB68:
   1:Core/Src/camera.c **** #include "camera.h"
   2:Core/Src/camera.c **** 
   3:Core/Src/camera.c **** 
   4:Core/Src/camera.c **** uint8_t image_buffer[MAX_IMAGE_SIZE]={0};
   5:Core/Src/camera.c **** 
   6:Core/Src/camera.c **** #define JPEG_SOI 0xFFD8  // Start Of Image
   7:Core/Src/camera.c **** #define JPEG_EOI 0xFFD9  // End Of Image
   8:Core/Src/camera.c **** uint32_t jpeg_size = 0;
   9:Core/Src/camera.c **** 
  10:Core/Src/camera.c **** 
  11:Core/Src/camera.c **** uint32_t ssdv_packets_in_image = 0;
  12:Core/Src/camera.c **** uint32_t ssdv_start_addr = 0; 
  13:Core/Src/camera.c **** 
  14:Core/Src/camera.c **** /* USER CODE BEGIN PD */
  15:Core/Src/camera.c **** extern SPI_HandleTypeDef hspi1;
  16:Core/Src/camera.c **** char ssdv_type = SSDV_TYPE_NORMAL;
  17:Core/Src/camera.c **** char ssdv_call_sign[7] = "CALSIGN";
  18:Core/Src/camera.c **** uint8_t ssdv_image_id = 0;
  19:Core/Src/camera.c **** int8_t ssdv_quality = 4;
  20:Core/Src/camera.c **** 
  21:Core/Src/camera.c **** void arducam_write_register(uint8_t reg, uint8_t value) {
  28              		.loc 1 21 57 view -0
  29              		.cfi_startproc
  30              		@ args = 0, pretend = 0, frame = 8
  31              		@ frame_needed = 0, uses_anonymous_args = 0
  32              		.loc 1 21 57 is_stmt 0 view .LVU1
  33 0000 10B5     		push	{r4, lr}
  34              		.cfi_def_cfa_offset 8
  35              		.cfi_offset 4, -8
  36              		.cfi_offset 14, -4
  37 0002 82B0     		sub	sp, sp, #8
ARM GAS  /tmp/ccBAjIZV.s 			page 2


  38              		.cfi_def_cfa_offset 16
  22:Core/Src/camera.c ****     uint8_t tx_buf[2] = {reg | 0x80, value};
  39              		.loc 1 22 5 is_stmt 1 view .LVU2
  40              		.loc 1 22 13 is_stmt 0 view .LVU3
  41 0004 60F07F00 		orn	r0, r0, #127
  42              	.LVL1:
  43              		.loc 1 22 13 view .LVU4
  44 0008 8DF80400 		strb	r0, [sp, #4]
  45 000c 8DF80510 		strb	r1, [sp, #5]
  23:Core/Src/camera.c ****     CS_LOW(); // Assert CS
  46              		.loc 1 23 5 is_stmt 1 view .LVU5
  47 0010 094C     		ldr	r4, .L3
  48 0012 0022     		movs	r2, #0
  49 0014 1021     		movs	r1, #16
  50              	.LVL2:
  51              		.loc 1 23 5 is_stmt 0 view .LVU6
  52 0016 2046     		mov	r0, r4
  53 0018 FFF7FEFF 		bl	HAL_GPIO_WritePin
  54              	.LVL3:
  24:Core/Src/camera.c ****     HAL_SPI_Transmit(&hspi1, tx_buf, 2, HAL_MAX_DELAY);
  55              		.loc 1 24 5 is_stmt 1 view .LVU7
  56 001c 4FF0FF33 		mov	r3, #-1
  57 0020 0222     		movs	r2, #2
  58 0022 01A9     		add	r1, sp, #4
  59 0024 0548     		ldr	r0, .L3+4
  60 0026 FFF7FEFF 		bl	HAL_SPI_Transmit
  61              	.LVL4:
  25:Core/Src/camera.c ****     CS_HIGH();
  62              		.loc 1 25 5 view .LVU8
  63 002a 0122     		movs	r2, #1
  64 002c 1021     		movs	r1, #16
  65 002e 2046     		mov	r0, r4
  66 0030 FFF7FEFF 		bl	HAL_GPIO_WritePin
  67              	.LVL5:
  26:Core/Src/camera.c **** }
  68              		.loc 1 26 1 is_stmt 0 view .LVU9
  69 0034 02B0     		add	sp, sp, #8
  70              		.cfi_def_cfa_offset 8
  71              		@ sp needed
  72 0036 10BD     		pop	{r4, pc}
  73              	.L4:
  74              		.align	2
  75              	.L3:
  76 0038 00080140 		.word	1073809408
  77 003c 00000000 		.word	hspi1
  78              		.cfi_endproc
  79              	.LFE68:
  81              		.section	.text.arducam_read_register,"ax",%progbits
  82              		.align	1
  83              		.global	arducam_read_register
  84              		.syntax unified
  85              		.thumb
  86              		.thumb_func
  88              	arducam_read_register:
  89              	.LVL6:
  90              	.LFB69:
  27:Core/Src/camera.c **** 
ARM GAS  /tmp/ccBAjIZV.s 			page 3


  28:Core/Src/camera.c **** uint8_t arducam_read_register(uint8_t reg) {
  91              		.loc 1 28 44 is_stmt 1 view -0
  92              		.cfi_startproc
  93              		@ args = 0, pretend = 0, frame = 8
  94              		@ frame_needed = 0, uses_anonymous_args = 0
  95              		.loc 1 28 44 is_stmt 0 view .LVU11
  96 0000 10B5     		push	{r4, lr}
  97              		.cfi_def_cfa_offset 8
  98              		.cfi_offset 4, -8
  99              		.cfi_offset 14, -4
 100 0002 84B0     		sub	sp, sp, #16
 101              		.cfi_def_cfa_offset 24
  29:Core/Src/camera.c ****     uint8_t tx_buf[2] = {reg & 0x7F, 0x00}; // Second byte is dummy
 102              		.loc 1 29 5 is_stmt 1 view .LVU12
 103              		.loc 1 29 30 is_stmt 0 view .LVU13
 104 0004 00F07F00 		and	r0, r0, #127
 105              	.LVL7:
 106              		.loc 1 29 13 view .LVU14
 107 0008 8DF80C00 		strb	r0, [sp, #12]
 108 000c 0022     		movs	r2, #0
 109 000e 8DF80D20 		strb	r2, [sp, #13]
  30:Core/Src/camera.c ****     uint8_t rx_buf[2];
 110              		.loc 1 30 5 is_stmt 1 view .LVU15
  31:Core/Src/camera.c ****     CS_LOW(); // Assert CS
 111              		.loc 1 31 5 view .LVU16
 112 0012 0B4C     		ldr	r4, .L7
 113 0014 1021     		movs	r1, #16
 114 0016 2046     		mov	r0, r4
 115 0018 FFF7FEFF 		bl	HAL_GPIO_WritePin
 116              	.LVL8:
  32:Core/Src/camera.c ****     HAL_SPI_TransmitReceive(&hspi1, tx_buf, rx_buf, 2, HAL_MAX_DELAY);
 117              		.loc 1 32 5 view .LVU17
 118 001c 4FF0FF33 		mov	r3, #-1
 119 0020 0093     		str	r3, [sp]
 120 0022 0223     		movs	r3, #2
 121 0024 02AA     		add	r2, sp, #8
 122 0026 03A9     		add	r1, sp, #12
 123 0028 0648     		ldr	r0, .L7+4
 124 002a FFF7FEFF 		bl	HAL_SPI_TransmitReceive
 125              	.LVL9:
  33:Core/Src/camera.c ****     CS_HIGH(); // Assert CS
 126              		.loc 1 33 5 view .LVU18
 127 002e 0122     		movs	r2, #1
 128 0030 1021     		movs	r1, #16
 129 0032 2046     		mov	r0, r4
 130 0034 FFF7FEFF 		bl	HAL_GPIO_WritePin
 131              	.LVL10:
  34:Core/Src/camera.c **** 
  35:Core/Src/camera.c ****     return rx_buf[1]; // Received data
 132              		.loc 1 35 5 view .LVU19
  36:Core/Src/camera.c **** }
 133              		.loc 1 36 1 is_stmt 0 view .LVU20
 134 0038 9DF80900 		ldrb	r0, [sp, #9]	@ zero_extendqisi2
 135 003c 04B0     		add	sp, sp, #16
 136              		.cfi_def_cfa_offset 8
 137              		@ sp needed
 138 003e 10BD     		pop	{r4, pc}
ARM GAS  /tmp/ccBAjIZV.s 			page 4


 139              	.L8:
 140              		.align	2
 141              	.L7:
 142 0040 00080140 		.word	1073809408
 143 0044 00000000 		.word	hspi1
 144              		.cfi_endproc
 145              	.LFE69:
 147              		.section	.text.arducam_burst_read,"ax",%progbits
 148              		.align	1
 149              		.global	arducam_burst_read
 150              		.syntax unified
 151              		.thumb
 152              		.thumb_func
 154              	arducam_burst_read:
 155              	.LVL11:
 156              	.LFB70:
  37:Core/Src/camera.c **** 
  38:Core/Src/camera.c **** 
  39:Core/Src/camera.c **** 
  40:Core/Src/camera.c **** // Burst read from FIFO
  41:Core/Src/camera.c **** uint32_t arducam_burst_read(uint8_t *buf, uint32_t max_len) {
 157              		.loc 1 41 61 is_stmt 1 view -0
 158              		.cfi_startproc
 159              		@ args = 0, pretend = 0, frame = 8
 160              		@ frame_needed = 0, uses_anonymous_args = 0
 161              		.loc 1 41 61 is_stmt 0 view .LVU22
 162 0000 F0B5     		push	{r4, r5, r6, r7, lr}
 163              		.cfi_def_cfa_offset 20
 164              		.cfi_offset 4, -20
 165              		.cfi_offset 5, -16
 166              		.cfi_offset 6, -12
 167              		.cfi_offset 7, -8
 168              		.cfi_offset 14, -4
 169 0002 83B0     		sub	sp, sp, #12
 170              		.cfi_def_cfa_offset 32
 171 0004 0646     		mov	r6, r0
 172 0006 0C46     		mov	r4, r1
  42:Core/Src/camera.c ****     uint8_t burst_cmd = 0x3C; // Burst read register
 173              		.loc 1 42 5 is_stmt 1 view .LVU23
 174              		.loc 1 42 13 is_stmt 0 view .LVU24
 175 0008 3C23     		movs	r3, #60
 176 000a 8DF80730 		strb	r3, [sp, #7]
  43:Core/Src/camera.c ****     CS_LOW();
 177              		.loc 1 43 5 is_stmt 1 view .LVU25
 178 000e 144F     		ldr	r7, .L11
 179 0010 0022     		movs	r2, #0
 180 0012 1021     		movs	r1, #16
 181              	.LVL12:
 182              		.loc 1 43 5 is_stmt 0 view .LVU26
 183 0014 3846     		mov	r0, r7
 184              	.LVL13:
 185              		.loc 1 43 5 view .LVU27
 186 0016 FFF7FEFF 		bl	HAL_GPIO_WritePin
 187              	.LVL14:
  44:Core/Src/camera.c ****     HAL_SPI_Transmit(&hspi1, &burst_cmd, 1, HAL_MAX_DELAY);
 188              		.loc 1 44 5 is_stmt 1 view .LVU28
 189 001a 124D     		ldr	r5, .L11+4
ARM GAS  /tmp/ccBAjIZV.s 			page 5


 190 001c 4FF0FF33 		mov	r3, #-1
 191 0020 0122     		movs	r2, #1
 192 0022 0DF10701 		add	r1, sp, #7
 193 0026 2846     		mov	r0, r5
 194 0028 FFF7FEFF 		bl	HAL_SPI_Transmit
 195              	.LVL15:
  45:Core/Src/camera.c ****     uint8_t dummy = 0x00;
 196              		.loc 1 45 5 view .LVU29
 197              		.loc 1 45 13 is_stmt 0 view .LVU30
 198 002c 0023     		movs	r3, #0
 199 002e 8DF80630 		strb	r3, [sp, #6]
  46:Core/Src/camera.c ****     HAL_SPI_Transmit(&hspi1, &dummy, 1, HAL_MAX_DELAY); // First dummy byte
 200              		.loc 1 46 5 is_stmt 1 view .LVU31
 201 0032 4FF0FF33 		mov	r3, #-1
 202 0036 0122     		movs	r2, #1
 203 0038 0DF10601 		add	r1, sp, #6
 204 003c 2846     		mov	r0, r5
 205 003e FFF7FEFF 		bl	HAL_SPI_Transmit
 206              	.LVL16:
  47:Core/Src/camera.c **** 
  48:Core/Src/camera.c ****     HAL_SPI_Receive(&hspi1, buf, max_len, HAL_MAX_DELAY);
 207              		.loc 1 48 5 view .LVU32
 208 0042 4FF0FF33 		mov	r3, #-1
 209 0046 A2B2     		uxth	r2, r4
 210 0048 3146     		mov	r1, r6
 211 004a 2846     		mov	r0, r5
 212 004c FFF7FEFF 		bl	HAL_SPI_Receive
 213              	.LVL17:
  49:Core/Src/camera.c ****     CS_HIGH();
 214              		.loc 1 49 5 view .LVU33
 215 0050 0122     		movs	r2, #1
 216 0052 1021     		movs	r1, #16
 217 0054 3846     		mov	r0, r7
 218 0056 FFF7FEFF 		bl	HAL_GPIO_WritePin
 219              	.LVL18:
  50:Core/Src/camera.c ****     return max_len;
 220              		.loc 1 50 5 view .LVU34
  51:Core/Src/camera.c **** }
 221              		.loc 1 51 1 is_stmt 0 view .LVU35
 222 005a 2046     		mov	r0, r4
 223 005c 03B0     		add	sp, sp, #12
 224              		.cfi_def_cfa_offset 20
 225              		@ sp needed
 226 005e F0BD     		pop	{r4, r5, r6, r7, pc}
 227              	.LVL19:
 228              	.L12:
 229              		.loc 1 51 1 view .LVU36
 230              		.align	2
 231              	.L11:
 232 0060 00080140 		.word	1073809408
 233 0064 00000000 		.word	hspi1
 234              		.cfi_endproc
 235              	.LFE70:
 237              		.section	.text.camersSetBrightness,"ax",%progbits
 238              		.align	1
 239              		.global	camersSetBrightness
 240              		.syntax unified
ARM GAS  /tmp/ccBAjIZV.s 			page 6


 241              		.thumb
 242              		.thumb_func
 244              	camersSetBrightness:
 245              	.LVL20:
 246              	.LFB71:
  52:Core/Src/camera.c **** 
  53:Core/Src/camera.c **** 
  54:Core/Src/camera.c **** void camersSetBrightness(CAM_BRIGHTNESS_LEVEL level )
  55:Core/Src/camera.c **** {
 247              		.loc 1 55 1 is_stmt 1 view -0
 248              		.cfi_startproc
 249              		@ args = 0, pretend = 0, frame = 0
 250              		@ frame_needed = 0, uses_anonymous_args = 0
 251              		.loc 1 55 1 is_stmt 0 view .LVU38
 252 0000 08B5     		push	{r3, lr}
 253              		.cfi_def_cfa_offset 8
 254              		.cfi_offset 3, -8
 255              		.cfi_offset 14, -4
 256 0002 0146     		mov	r1, r0
  56:Core/Src/camera.c ****   arducam_write_register(0x22,level);
 257              		.loc 1 56 3 is_stmt 1 view .LVU39
 258 0004 2220     		movs	r0, #34
 259              	.LVL21:
 260              		.loc 1 56 3 is_stmt 0 view .LVU40
 261 0006 FFF7FEFF 		bl	arducam_write_register
 262              	.LVL22:
  57:Core/Src/camera.c **** }
 263              		.loc 1 57 1 view .LVU41
 264 000a 08BD     		pop	{r3, pc}
 265              		.cfi_endproc
 266              	.LFE71:
 268              		.section	.text.cameraSetSharpness,"ax",%progbits
 269              		.align	1
 270              		.global	cameraSetSharpness
 271              		.syntax unified
 272              		.thumb
 273              		.thumb_func
 275              	cameraSetSharpness:
 276              	.LVL23:
 277              	.LFB72:
  58:Core/Src/camera.c **** 
  59:Core/Src/camera.c **** void cameraSetSharpness(CAM_SHARPNESS_LEVEL level)
  60:Core/Src/camera.c **** {
 278              		.loc 1 60 1 is_stmt 1 view -0
 279              		.cfi_startproc
 280              		@ args = 0, pretend = 0, frame = 0
 281              		@ frame_needed = 0, uses_anonymous_args = 0
 282              		.loc 1 60 1 is_stmt 0 view .LVU43
 283 0000 08B5     		push	{r3, lr}
 284              		.cfi_def_cfa_offset 8
 285              		.cfi_offset 3, -8
 286              		.cfi_offset 14, -4
 287 0002 0146     		mov	r1, r0
  61:Core/Src/camera.c ****   arducam_write_register(0x28,level);
 288              		.loc 1 61 3 is_stmt 1 view .LVU44
 289 0004 2820     		movs	r0, #40
 290              	.LVL24:
ARM GAS  /tmp/ccBAjIZV.s 			page 7


 291              		.loc 1 61 3 is_stmt 0 view .LVU45
 292 0006 FFF7FEFF 		bl	arducam_write_register
 293              	.LVL25:
  62:Core/Src/camera.c **** 
  63:Core/Src/camera.c **** }
 294              		.loc 1 63 1 view .LVU46
 295 000a 08BD     		pop	{r3, pc}
 296              		.cfi_endproc
 297              	.LFE72:
 299              		.section	.text.cameraSetContrast,"ax",%progbits
 300              		.align	1
 301              		.global	cameraSetContrast
 302              		.syntax unified
 303              		.thumb
 304              		.thumb_func
 306              	cameraSetContrast:
 307              	.LVL26:
 308              	.LFB73:
  64:Core/Src/camera.c **** 
  65:Core/Src/camera.c **** void cameraSetContrast (CAM_CONTRAST_LEVEL level)
  66:Core/Src/camera.c **** {
 309              		.loc 1 66 1 is_stmt 1 view -0
 310              		.cfi_startproc
 311              		@ args = 0, pretend = 0, frame = 0
 312              		@ frame_needed = 0, uses_anonymous_args = 0
 313              		.loc 1 66 1 is_stmt 0 view .LVU48
 314 0000 08B5     		push	{r3, lr}
 315              		.cfi_def_cfa_offset 8
 316              		.cfi_offset 3, -8
 317              		.cfi_offset 14, -4
 318 0002 0146     		mov	r1, r0
  67:Core/Src/camera.c ****   arducam_write_register(0x23,level);
 319              		.loc 1 67 3 is_stmt 1 view .LVU49
 320 0004 2320     		movs	r0, #35
 321              	.LVL27:
 322              		.loc 1 67 3 is_stmt 0 view .LVU50
 323 0006 FFF7FEFF 		bl	arducam_write_register
 324              	.LVL28:
  68:Core/Src/camera.c **** }
 325              		.loc 1 68 1 view .LVU51
 326 000a 08BD     		pop	{r3, pc}
 327              		.cfi_endproc
 328              	.LFE73:
 330              		.section	.text.cameraSetEV,"ax",%progbits
 331              		.align	1
 332              		.global	cameraSetEV
 333              		.syntax unified
 334              		.thumb
 335              		.thumb_func
 337              	cameraSetEV:
 338              	.LVL29:
 339              	.LFB74:
  69:Core/Src/camera.c **** 
  70:Core/Src/camera.c **** void cameraSetEV (CAM_EV_LEVEL level)
  71:Core/Src/camera.c **** {
 340              		.loc 1 71 1 is_stmt 1 view -0
 341              		.cfi_startproc
ARM GAS  /tmp/ccBAjIZV.s 			page 8


 342              		@ args = 0, pretend = 0, frame = 0
 343              		@ frame_needed = 0, uses_anonymous_args = 0
 344              		.loc 1 71 1 is_stmt 0 view .LVU53
 345 0000 08B5     		push	{r3, lr}
 346              		.cfi_def_cfa_offset 8
 347              		.cfi_offset 3, -8
 348              		.cfi_offset 14, -4
 349 0002 0146     		mov	r1, r0
  72:Core/Src/camera.c ****   arducam_write_register(0x25,level);
 350              		.loc 1 72 3 is_stmt 1 view .LVU54
 351 0004 2520     		movs	r0, #37
 352              	.LVL30:
 353              		.loc 1 72 3 is_stmt 0 view .LVU55
 354 0006 FFF7FEFF 		bl	arducam_write_register
 355              	.LVL31:
  73:Core/Src/camera.c **** 
  74:Core/Src/camera.c **** }
 356              		.loc 1 74 1 view .LVU56
 357 000a 08BD     		pop	{r3, pc}
 358              		.cfi_endproc
 359              	.LFE74:
 361              		.section	.text.cameraSetSaturation,"ax",%progbits
 362              		.align	1
 363              		.global	cameraSetSaturation
 364              		.syntax unified
 365              		.thumb
 366              		.thumb_func
 368              	cameraSetSaturation:
 369              	.LVL32:
 370              	.LFB75:
  75:Core/Src/camera.c **** 
  76:Core/Src/camera.c **** void cameraSetSaturation (CAM_STAURATION_LEVEL level)
  77:Core/Src/camera.c **** {
 371              		.loc 1 77 1 is_stmt 1 view -0
 372              		.cfi_startproc
 373              		@ args = 0, pretend = 0, frame = 0
 374              		@ frame_needed = 0, uses_anonymous_args = 0
 375              		.loc 1 77 1 is_stmt 0 view .LVU58
 376 0000 08B5     		push	{r3, lr}
 377              		.cfi_def_cfa_offset 8
 378              		.cfi_offset 3, -8
 379              		.cfi_offset 14, -4
 380 0002 0146     		mov	r1, r0
  78:Core/Src/camera.c ****   arducam_write_register(0x24,level);
 381              		.loc 1 78 3 is_stmt 1 view .LVU59
 382 0004 2420     		movs	r0, #36
 383              	.LVL33:
 384              		.loc 1 78 3 is_stmt 0 view .LVU60
 385 0006 FFF7FEFF 		bl	arducam_write_register
 386              	.LVL34:
  79:Core/Src/camera.c **** 
  80:Core/Src/camera.c **** }
 387              		.loc 1 80 1 view .LVU61
 388 000a 08BD     		pop	{r3, pc}
 389              		.cfi_endproc
 390              	.LFE75:
 392              		.section	.text.cameraSetColorEffect,"ax",%progbits
ARM GAS  /tmp/ccBAjIZV.s 			page 9


 393              		.align	1
 394              		.global	cameraSetColorEffect
 395              		.syntax unified
 396              		.thumb
 397              		.thumb_func
 399              	cameraSetColorEffect:
 400              	.LVL35:
 401              	.LFB76:
  81:Core/Src/camera.c **** 
  82:Core/Src/camera.c **** void cameraSetColorEffect (CAM_COLOR_FX effect)
  83:Core/Src/camera.c **** {
 402              		.loc 1 83 1 is_stmt 1 view -0
 403              		.cfi_startproc
 404              		@ args = 0, pretend = 0, frame = 0
 405              		@ frame_needed = 0, uses_anonymous_args = 0
 406              		.loc 1 83 1 is_stmt 0 view .LVU63
 407 0000 08B5     		push	{r3, lr}
 408              		.cfi_def_cfa_offset 8
 409              		.cfi_offset 3, -8
 410              		.cfi_offset 14, -4
 411 0002 0146     		mov	r1, r0
  84:Core/Src/camera.c ****   arducam_write_register(0x27,effect);
 412              		.loc 1 84 3 is_stmt 1 view .LVU64
 413 0004 2720     		movs	r0, #39
 414              	.LVL36:
 415              		.loc 1 84 3 is_stmt 0 view .LVU65
 416 0006 FFF7FEFF 		bl	arducam_write_register
 417              	.LVL37:
  85:Core/Src/camera.c **** 
  86:Core/Src/camera.c **** }
 418              		.loc 1 86 1 view .LVU66
 419 000a 08BD     		pop	{r3, pc}
 420              		.cfi_endproc
 421              	.LFE76:
 423              		.section	.text.arducam_set_jpeg_mode,"ax",%progbits
 424              		.align	1
 425              		.global	arducam_set_jpeg_mode
 426              		.syntax unified
 427              		.thumb
 428              		.thumb_func
 430              	arducam_set_jpeg_mode:
 431              	.LFB77:
  87:Core/Src/camera.c **** 
  88:Core/Src/camera.c **** void arducam_set_jpeg_mode() {
 432              		.loc 1 88 30 is_stmt 1 view -0
 433              		.cfi_startproc
 434              		@ args = 0, pretend = 0, frame = 0
 435              		@ frame_needed = 0, uses_anonymous_args = 0
 436 0000 08B5     		push	{r3, lr}
 437              		.cfi_def_cfa_offset 8
 438              		.cfi_offset 3, -8
 439              		.cfi_offset 14, -4
  89:Core/Src/camera.c ****     // Write JPEG basic configuration to register 0x20
  90:Core/Src/camera.c ****     arducam_write_register(0x20, 0x01);  // JPEG mode
 440              		.loc 1 90 5 view .LVU68
 441 0002 0121     		movs	r1, #1
 442 0004 2020     		movs	r0, #32
ARM GAS  /tmp/ccBAjIZV.s 			page 10


 443 0006 FFF7FEFF 		bl	arducam_write_register
 444              	.LVL38:
  91:Core/Src/camera.c ****     HAL_Delay(10);  // Small delay for settings to apply
 445              		.loc 1 91 5 view .LVU69
 446 000a 0A20     		movs	r0, #10
 447 000c FFF7FEFF 		bl	HAL_Delay
 448              	.LVL39:
  92:Core/Src/camera.c **** 
  93:Core/Src/camera.c ****      // 2. Set resolution to 320x240
  94:Core/Src/camera.c ****     arducam_write_register(0x21, 0x01);  // Resolution = 320x240
 449              		.loc 1 94 5 view .LVU70
 450 0010 0121     		movs	r1, #1
 451 0012 2120     		movs	r0, #33
 452 0014 FFF7FEFF 		bl	arducam_write_register
 453              	.LVL40:
  95:Core/Src/camera.c ****     HAL_Delay(10);
 454              		.loc 1 95 5 view .LVU71
 455 0018 0A20     		movs	r0, #10
 456 001a FFF7FEFF 		bl	HAL_Delay
 457              	.LVL41:
  96:Core/Src/camera.c **** 
  97:Core/Src/camera.c ****     camersSetBrightness(CAM_BRIGHTNESS_LEVEL_4);
 458              		.loc 1 97 5 view .LVU72
 459 001e 0720     		movs	r0, #7
 460 0020 FFF7FEFF 		bl	camersSetBrightness
 461              	.LVL42:
  98:Core/Src/camera.c ****     HAL_Delay(10);
 462              		.loc 1 98 5 view .LVU73
 463 0024 0A20     		movs	r0, #10
 464 0026 FFF7FEFF 		bl	HAL_Delay
 465              	.LVL43:
  99:Core/Src/camera.c **** 
 100:Core/Src/camera.c ****     // cameraSetSaturation(CAM_STAURATION_LEVEL_3);
 101:Core/Src/camera.c ****     // HAL_Delay(10);
 102:Core/Src/camera.c **** 
 103:Core/Src/camera.c ****     // cameraSetEV(CAM_EV_LEVEL_3);
 104:Core/Src/camera.c ****     // HAL_Delay(10);
 105:Core/Src/camera.c **** 
 106:Core/Src/camera.c ****     // cameraSetContrast(CAM_CONTRAST_LEVEL_3);
 107:Core/Src/camera.c ****     // HAL_Delay(10);
 108:Core/Src/camera.c **** 
 109:Core/Src/camera.c ****     // cameraSetSharpness(CAM_SHARPNESS_LEVEL_8);
 110:Core/Src/camera.c ****     // HAL_Delay(10);
 111:Core/Src/camera.c **** 
 112:Core/Src/camera.c ****     // cameraSetColorEffect(CAM_COLOR_FX_BW);
 113:Core/Src/camera.c ****     // HAL_Delay(10);
 114:Core/Src/camera.c **** 
 115:Core/Src/camera.c **** }
 466              		.loc 1 115 1 is_stmt 0 view .LVU74
 467 002a 08BD     		pop	{r3, pc}
 468              		.cfi_endproc
 469              	.LFE77:
 471              		.section	.text.arducam_capture_image,"ax",%progbits
 472              		.align	1
 473              		.global	arducam_capture_image
 474              		.syntax unified
 475              		.thumb
ARM GAS  /tmp/ccBAjIZV.s 			page 11


 476              		.thumb_func
 478              	arducam_capture_image:
 479              	.LFB78:
 116:Core/Src/camera.c **** 
 117:Core/Src/camera.c **** 
 118:Core/Src/camera.c **** // Capture image
 119:Core/Src/camera.c **** void arducam_capture_image() {
 480              		.loc 1 119 30 is_stmt 1 view -0
 481              		.cfi_startproc
 482              		@ args = 0, pretend = 0, frame = 0
 483              		@ frame_needed = 0, uses_anonymous_args = 0
 484 0000 08B5     		push	{r3, lr}
 485              		.cfi_def_cfa_offset 8
 486              		.cfi_offset 3, -8
 487              		.cfi_offset 14, -4
 120:Core/Src/camera.c ****     // 1. Clear FIFO write done flag
 121:Core/Src/camera.c ****     arducam_write_register(0x04, 0x01);
 488              		.loc 1 121 5 view .LVU76
 489 0002 0121     		movs	r1, #1
 490 0004 0420     		movs	r0, #4
 491 0006 FFF7FEFF 		bl	arducam_write_register
 492              	.LVL44:
 122:Core/Src/camera.c ****     HAL_Delay(10);
 493              		.loc 1 122 5 view .LVU77
 494 000a 0A20     		movs	r0, #10
 495 000c FFF7FEFF 		bl	HAL_Delay
 496              	.LVL45:
 123:Core/Src/camera.c **** 
 124:Core/Src/camera.c ****     // 2. Start image capture
 125:Core/Src/camera.c ****     arducam_write_register(0x04, 0x02);
 497              		.loc 1 125 5 view .LVU78
 498 0010 0221     		movs	r1, #2
 499 0012 0420     		movs	r0, #4
 500 0014 FFF7FEFF 		bl	arducam_write_register
 501              	.LVL46:
 126:Core/Src/camera.c ****     HAL_Delay(200);  // Adjust delay as needed
 502              		.loc 1 126 5 view .LVU79
 503 0018 C820     		movs	r0, #200
 504 001a FFF7FEFF 		bl	HAL_Delay
 505              	.LVL47:
 127:Core/Src/camera.c **** 
 128:Core/Src/camera.c ****     // Optional: Wait until FIFO done (polling or timeout)
 129:Core/Src/camera.c ****     // If camera sets flag in 0x01 (frames written), you could poll here
 130:Core/Src/camera.c **** }
 506              		.loc 1 130 1 is_stmt 0 view .LVU80
 507 001e 08BD     		pop	{r3, pc}
 508              		.cfi_endproc
 509              	.LFE78:
 511              		.section	.rodata.find_jpeg.str1.4,"aMS",%progbits,1
 512              		.align	2
 513              	.LC0:
 514 0000 4A504547 		.ascii	"JPEG found: start=%d, end=%d\012\000"
 514      20666F75 
 514      6E643A20 
 514      73746172 
 514      743D2564 
 515              		.section	.text.find_jpeg,"ax",%progbits
ARM GAS  /tmp/ccBAjIZV.s 			page 12


 516              		.align	1
 517              		.global	find_jpeg
 518              		.syntax unified
 519              		.thumb
 520              		.thumb_func
 522              	find_jpeg:
 523              	.LVL48:
 524              	.LFB79:
 131:Core/Src/camera.c **** 
 132:Core/Src/camera.c **** 
 133:Core/Src/camera.c **** uint32_t find_jpeg( uint32_t bytes_read,  uint8_t image_buffer[MAX_IMAGE_SIZE])    
 134:Core/Src/camera.c **** {
 525              		.loc 1 134 1 is_stmt 1 view -0
 526              		.cfi_startproc
 527              		@ args = 0, pretend = 0, frame = 0
 528              		@ frame_needed = 0, uses_anonymous_args = 0
 529              		.loc 1 134 1 is_stmt 0 view .LVU82
 530 0000 38B5     		push	{r3, r4, r5, lr}
 531              		.cfi_def_cfa_offset 16
 532              		.cfi_offset 3, -16
 533              		.cfi_offset 4, -12
 534              		.cfi_offset 5, -8
 535              		.cfi_offset 14, -4
 135:Core/Src/camera.c ****     // Find JPEG start (0xFFD8) and end (0xFFD9)
 136:Core/Src/camera.c ****     uint32_t jpeg_length=0;
 536              		.loc 1 136 5 is_stmt 1 view .LVU83
 537              	.LVL49:
 137:Core/Src/camera.c ****     int start_index = -1, end_index = -1;
 538              		.loc 1 137 5 view .LVU84
 138:Core/Src/camera.c ****     for (uint32_t i = 0; i < bytes_read - 1; i++) {
 539              		.loc 1 138 5 view .LVU85
 540              	.LBB2:
 541              		.loc 1 138 10 view .LVU86
 542              		.loc 1 138 19 is_stmt 0 view .LVU87
 543 0002 0023     		movs	r3, #0
 544              	.LBE2:
 137:Core/Src/camera.c ****     int start_index = -1, end_index = -1;
 545              		.loc 1 137 9 view .LVU88
 546 0004 4FF0FF35 		mov	r5, #-1
 547              	.LBB3:
 548              		.loc 1 138 5 view .LVU89
 549 0008 02E0     		b	.L30
 550              	.LVL50:
 551              	.L31:
 139:Core/Src/camera.c ****         if (image_buffer[i] == 0xFF && image_buffer[i + 1] == 0xD8 && start_index == -1) {
 140:Core/Src/camera.c ****             start_index = i;
 141:Core/Src/camera.c ****         }
 142:Core/Src/camera.c ****         if (image_buffer[i] == 0xFF && image_buffer[i + 1] == 0xD9) {
 552              		.loc 1 142 9 is_stmt 1 view .LVU90
 553              		.loc 1 142 12 is_stmt 0 view .LVU91
 554 000a FF2A     		cmp	r2, #255
 555 000c 0FD0     		beq	.L40
 556              	.L32:
 138:Core/Src/camera.c ****     for (uint32_t i = 0; i < bytes_read - 1; i++) {
 557              		.loc 1 138 47 is_stmt 1 discriminator 2 view .LVU92
 558 000e 0133     		adds	r3, r3, #1
 559              	.LVL51:
ARM GAS  /tmp/ccBAjIZV.s 			page 13


 560              	.L30:
 138:Core/Src/camera.c ****     for (uint32_t i = 0; i < bytes_read - 1; i++) {
 561              		.loc 1 138 28 discriminator 1 view .LVU93
 138:Core/Src/camera.c ****     for (uint32_t i = 0; i < bytes_read - 1; i++) {
 562              		.loc 1 138 41 is_stmt 0 discriminator 1 view .LVU94
 563 0010 421E     		subs	r2, r0, #1
 138:Core/Src/camera.c ****     for (uint32_t i = 0; i < bytes_read - 1; i++) {
 564              		.loc 1 138 28 discriminator 1 view .LVU95
 565 0012 9A42     		cmp	r2, r3
 566 0014 11D9     		bls	.L41
 139:Core/Src/camera.c ****         if (image_buffer[i] == 0xFF && image_buffer[i + 1] == 0xD8 && start_index == -1) {
 567              		.loc 1 139 9 is_stmt 1 view .LVU96
 139:Core/Src/camera.c ****         if (image_buffer[i] == 0xFF && image_buffer[i + 1] == 0xD8 && start_index == -1) {
 568              		.loc 1 139 25 is_stmt 0 view .LVU97
 569 0016 CA5C     		ldrb	r2, [r1, r3]	@ zero_extendqisi2
 139:Core/Src/camera.c ****         if (image_buffer[i] == 0xFF && image_buffer[i + 1] == 0xD8 && start_index == -1) {
 570              		.loc 1 139 12 view .LVU98
 571 0018 FF2A     		cmp	r2, #255
 572 001a F6D1     		bne	.L31
 139:Core/Src/camera.c ****         if (image_buffer[i] == 0xFF && image_buffer[i + 1] == 0xD8 && start_index == -1) {
 573              		.loc 1 139 52 discriminator 1 view .LVU99
 574 001c CC18     		adds	r4, r1, r3
 575 001e 6478     		ldrb	r4, [r4, #1]	@ zero_extendqisi2
 139:Core/Src/camera.c ****         if (image_buffer[i] == 0xFF && image_buffer[i + 1] == 0xD8 && start_index == -1) {
 576              		.loc 1 139 37 discriminator 1 view .LVU100
 577 0020 D82C     		cmp	r4, #216
 578 0022 F2D1     		bne	.L31
 139:Core/Src/camera.c ****         if (image_buffer[i] == 0xFF && image_buffer[i + 1] == 0xD8 && start_index == -1) {
 579              		.loc 1 139 68 discriminator 2 view .LVU101
 580 0024 B5F1FF3F 		cmp	r5, #-1
 581 0028 EFD1     		bne	.L31
 140:Core/Src/camera.c ****         }
 582              		.loc 1 140 13 is_stmt 1 view .LVU102
 140:Core/Src/camera.c ****         }
 583              		.loc 1 140 25 is_stmt 0 view .LVU103
 584 002a 1D46     		mov	r5, r3
 585              	.LVL52:
 140:Core/Src/camera.c ****         }
 586              		.loc 1 140 25 view .LVU104
 587 002c EDE7     		b	.L31
 588              	.LVL53:
 589              	.L40:
 590              		.loc 1 142 52 discriminator 1 view .LVU105
 591 002e 5A1C     		adds	r2, r3, #1
 592 0030 8C5C     		ldrb	r4, [r1, r2]	@ zero_extendqisi2
 593              		.loc 1 142 37 discriminator 1 view .LVU106
 594 0032 D92C     		cmp	r4, #217
 595 0034 EBD1     		bne	.L32
 143:Core/Src/camera.c ****             end_index = i + 1;
 596              		.loc 1 143 13 is_stmt 1 view .LVU107
 597              		.loc 1 143 23 is_stmt 0 view .LVU108
 598 0036 1446     		mov	r4, r2
 599              	.LVL54:
 144:Core/Src/camera.c ****             break;
 600              		.loc 1 144 13 is_stmt 1 view .LVU109
 601 0038 01E0     		b	.L33
 602              	.LVL55:
ARM GAS  /tmp/ccBAjIZV.s 			page 14


 603              	.L41:
 604              		.loc 1 144 13 is_stmt 0 view .LVU110
 605              	.LBE3:
 137:Core/Src/camera.c ****     for (uint32_t i = 0; i < bytes_read - 1; i++) {
 606              		.loc 1 137 27 view .LVU111
 607 003a 4FF0FF34 		mov	r4, #-1
 608              	.LVL56:
 609              	.L33:
 145:Core/Src/camera.c ****         }
 146:Core/Src/camera.c ****     }
 147:Core/Src/camera.c **** 
 148:Core/Src/camera.c ****     if (start_index != -1 && end_index != -1 && end_index > start_index) 
 610              		.loc 1 148 5 is_stmt 1 view .LVU112
 611              		.loc 1 148 8 is_stmt 0 view .LVU113
 612 003e B5F1FF3F 		cmp	r5, #-1
 613 0042 0ED0     		beq	.L36
 614              		.loc 1 148 27 discriminator 1 view .LVU114
 615 0044 B4F1FF3F 		cmp	r4, #-1
 616 0048 0DD0     		beq	.L37
 617              		.loc 1 148 46 discriminator 2 view .LVU115
 618 004a A542     		cmp	r5, r4
 619 004c 01DB     		blt	.L42
 136:Core/Src/camera.c ****     int start_index = -1, end_index = -1;
 620              		.loc 1 136 14 view .LVU116
 621 004e 0020     		movs	r0, #0
 622              	.LVL57:
 149:Core/Src/camera.c ****     {
 150:Core/Src/camera.c ****         printf("JPEG found: start=%d, end=%d\n", start_index, end_index);
 151:Core/Src/camera.c ****         // for (int i = start_index; i <= end_index; i++) {
 152:Core/Src/camera.c ****         //     printf("%02X ", image_buffer[i]);
 153:Core/Src/camera.c ****         // }
 154:Core/Src/camera.c ****         // printf("\nJPEG extraction complete (%d bytes).\n", end_index - start_index + 1);
 155:Core/Src/camera.c ****         jpeg_length=end_index - start_index + 1;
 156:Core/Src/camera.c ****     } 
 157:Core/Src/camera.c ****     // uint32_t jpeg_length=end_index - start_index + 1;
 158:Core/Src/camera.c ****     return jpeg_length;
 623              		.loc 1 158 5 is_stmt 1 view .LVU117
 624              		.loc 1 158 12 is_stmt 0 view .LVU118
 625 0050 08E0     		b	.L29
 626              	.LVL58:
 627              	.L42:
 150:Core/Src/camera.c ****         // for (int i = start_index; i <= end_index; i++) {
 628              		.loc 1 150 9 is_stmt 1 view .LVU119
 629 0052 2246     		mov	r2, r4
 630 0054 2946     		mov	r1, r5
 631              	.LVL59:
 150:Core/Src/camera.c ****         // for (int i = start_index; i <= end_index; i++) {
 632              		.loc 1 150 9 is_stmt 0 view .LVU120
 633 0056 0548     		ldr	r0, .L43
 634              	.LVL60:
 150:Core/Src/camera.c ****         // for (int i = start_index; i <= end_index; i++) {
 635              		.loc 1 150 9 view .LVU121
 636 0058 FFF7FEFF 		bl	printf
 637              	.LVL61:
 155:Core/Src/camera.c ****     } 
 638              		.loc 1 155 9 is_stmt 1 view .LVU122
 155:Core/Src/camera.c ****     } 
ARM GAS  /tmp/ccBAjIZV.s 			page 15


 639              		.loc 1 155 31 is_stmt 0 view .LVU123
 640 005c 621B     		subs	r2, r4, r5
 155:Core/Src/camera.c ****     } 
 641              		.loc 1 155 45 view .LVU124
 642 005e 501C     		adds	r0, r2, #1
 643              	.LVL62:
 155:Core/Src/camera.c ****     } 
 644              		.loc 1 155 45 view .LVU125
 645 0060 00E0     		b	.L29
 646              	.LVL63:
 647              	.L36:
 136:Core/Src/camera.c ****     int start_index = -1, end_index = -1;
 648              		.loc 1 136 14 view .LVU126
 649 0062 0020     		movs	r0, #0
 650              	.LVL64:
 651              	.L29:
 159:Core/Src/camera.c **** 
 160:Core/Src/camera.c **** 
 161:Core/Src/camera.c ****     // else {
 162:Core/Src/camera.c ****         // printf("JPEG not found in the image buffer.\n");
 163:Core/Src/camera.c ****         // return false;
 164:Core/Src/camera.c **** 
 165:Core/Src/camera.c ****     // }
 166:Core/Src/camera.c **** }
 652              		.loc 1 166 1 view .LVU127
 653 0064 38BD     		pop	{r3, r4, r5, pc}
 654              	.LVL65:
 655              	.L37:
 136:Core/Src/camera.c ****     int start_index = -1, end_index = -1;
 656              		.loc 1 136 14 view .LVU128
 657 0066 0020     		movs	r0, #0
 658              	.LVL66:
 136:Core/Src/camera.c ****     int start_index = -1, end_index = -1;
 659              		.loc 1 136 14 view .LVU129
 660 0068 FCE7     		b	.L29
 661              	.L44:
 662 006a 00BF     		.align	2
 663              	.L43:
 664 006c 00000000 		.word	.LC0
 665              		.cfi_endproc
 666              	.LFE79:
 668              		.section	.rodata.process_image_capture.str1.4,"aMS",%progbits,1
 669              		.align	2
 670              	.LC1:
 671 0000 53746172 		.ascii	"Starting image capture...\000"
 671      74696E67 
 671      20696D61 
 671      67652063 
 671      61707475 
 672 001a 0000     		.align	2
 673              	.LC2:
 674 001c 52656164 		.ascii	"Reading image from FIFO...\000"
 674      696E6720 
 674      696D6167 
 674      65206672 
 674      6F6D2046 
 675 0037 00       		.align	2
ARM GAS  /tmp/ccBAjIZV.s 			page 16


 676              	.LC3:
 677 0038 4A504547 		.ascii	"JPEG not found in buffer\000"
 677      206E6F74 
 677      20666F75 
 677      6E642069 
 677      6E206275 
 678 0051 000000   		.align	2
 679              	.LC4:
 680 0054 4A504547 		.ascii	"JPEG found: start=%d, end=%d, length=%lu\012\000"
 680      20666F75 
 680      6E643A20 
 680      73746172 
 680      743D2564 
 681 007e 0000     		.align	2
 682              	.LC5:
 683 0080 466C6173 		.ascii	"Flash not found or not matching (ID: 0x%lX)\015\012"
 683      68206E6F 
 683      7420666F 
 683      756E6420 
 683      6F72206E 
 684 00ad 00       		.ascii	"\000"
 685 00ae 0000     		.align	2
 686              	.LC6:
 687 00b0 466C6173 		.ascii	"Flash found (ID: 0x%lX)\015\012\000"
 687      6820666F 
 687      756E6420 
 687      2849443A 
 687      20307825 
 688 00ca 0000     		.align	2
 689              	.LC7:
 690 00cc 454F4920 		.ascii	"EOI Packet.\000"
 690      5061636B 
 690      65742E00 
 691              		.align	2
 692              	.LC8:
 693 00d8 57726974 		.ascii	"Writing SSDV packet to flash...\000"
 693      696E6720 
 693      53534456 
 693      20706163 
 693      6B657420 
 694              		.align	2
 695              	.LC9:
 696 00f8 7C205353 		.ascii	"| SSDV packet %02lu stored at address 0x%06lX |\012"
 696      44562070 
 696      61636B65 
 696      74202530 
 696      326C7520 
 697 0128 00       		.ascii	"\000"
 698 0129 000000   		.align	2
 699              	.LC10:
 700 012c 5B535344 		.ascii	"[SSDV] Error or unexpected result.\000"
 700      565D2045 
 700      72726F72 
 700      206F7220 
 700      756E6578 
 701 014f 00       		.align	2
 702              	.LC11:
ARM GAS  /tmp/ccBAjIZV.s 			page 17


 703 0150 5B464C41 		.ascii	"[FLASH READ COMPLETE]\015\000"
 703      53482052 
 703      45414420 
 703      434F4D50 
 703      4C455445 
 704              		.section	.text.process_image_capture,"ax",%progbits
 705              		.align	1
 706              		.global	process_image_capture
 707              		.syntax unified
 708              		.thumb
 709              		.thumb_func
 711              	process_image_capture:
 712              	.LFB80:
 167:Core/Src/camera.c **** 
 168:Core/Src/camera.c **** 
 169:Core/Src/camera.c **** //5th iteration
 170:Core/Src/camera.c **** void process_image_capture()
 171:Core/Src/camera.c **** {
 713              		.loc 1 171 1 is_stmt 1 view -0
 714              		.cfi_startproc
 715              		@ args = 0, pretend = 0, frame = 1520
 716              		@ frame_needed = 0, uses_anonymous_args = 0
 717 0000 F0B5     		push	{r4, r5, r6, r7, lr}
 718              		.cfi_def_cfa_offset 20
 719              		.cfi_offset 4, -20
 720              		.cfi_offset 5, -16
 721              		.cfi_offset 6, -12
 722              		.cfi_offset 7, -8
 723              		.cfi_offset 14, -4
 724 0002 ADF2FC5D 		subw	sp, sp, #1532
 725              		.cfi_def_cfa_offset 1552
 172:Core/Src/camera.c **** 
 173:Core/Src/camera.c ****     // printf("setttinggggg.....camera\r\n");
 174:Core/Src/camera.c ****     arducam_set_jpeg_mode();
 726              		.loc 1 174 5 view .LVU131
 727 0006 FFF7FEFF 		bl	arducam_set_jpeg_mode
 728              	.LVL67:
 175:Core/Src/camera.c ****     // HAL_Delay(10);   
 176:Core/Src/camera.c ****     printf("Starting image capture...\n");
 729              		.loc 1 176 5 view .LVU132
 730 000a 5448     		ldr	r0, .L70
 731 000c FFF7FEFF 		bl	puts
 732              	.LVL68:
 177:Core/Src/camera.c ****     arducam_capture_image();
 733              		.loc 1 177 5 view .LVU133
 734 0010 FFF7FEFF 		bl	arducam_capture_image
 735              	.LVL69:
 178:Core/Src/camera.c **** 
 179:Core/Src/camera.c ****     printf("Reading image from FIFO...\n");
 736              		.loc 1 179 5 view .LVU134
 737 0014 5248     		ldr	r0, .L70+4
 738 0016 FFF7FEFF 		bl	puts
 739              	.LVL70:
 180:Core/Src/camera.c ****     uint32_t bytes_read = arducam_burst_read(image_buffer, MAX_IMAGE_SIZE);
 740              		.loc 1 180 5 view .LVU135
 741              		.loc 1 180 27 is_stmt 0 view .LVU136
 742 001a 43F69821 		movw	r1, #15000
ARM GAS  /tmp/ccBAjIZV.s 			page 18


 743 001e 5148     		ldr	r0, .L70+8
 744 0020 FFF7FEFF 		bl	arducam_burst_read
 745              	.LVL71:
 181:Core/Src/camera.c ****     uint32_t jpeg_length = 0;
 746              		.loc 1 181 5 is_stmt 1 view .LVU137
 182:Core/Src/camera.c ****     int start_index = -1, end_index = -1;
 747              		.loc 1 182 5 view .LVU138
 183:Core/Src/camera.c **** 
 184:Core/Src/camera.c ****     // Find JPEG SOI and EOI markers
 185:Core/Src/camera.c ****     for (uint32_t i = 0; i < bytes_read - 1; i++) {
 748              		.loc 1 185 5 view .LVU139
 749              	.LBB4:
 750              		.loc 1 185 10 view .LVU140
 751              		.loc 1 185 19 is_stmt 0 view .LVU141
 752 0024 0023     		movs	r3, #0
 753              	.LBE4:
 182:Core/Src/camera.c ****     int start_index = -1, end_index = -1;
 754              		.loc 1 182 9 view .LVU142
 755 0026 4FF0FF34 		mov	r4, #-1
 756              	.LBB5:
 757              		.loc 1 185 5 view .LVU143
 758 002a 0AE0     		b	.L46
 759              	.LVL72:
 760              	.L67:
 186:Core/Src/camera.c ****         if (image_buffer[i] == 0xFF && image_buffer[i + 1] == 0xD8 && start_index == -1) {
 761              		.loc 1 186 55 discriminator 1 view .LVU144
 762 002c 591C     		adds	r1, r3, #1
 763              		.loc 1 186 52 discriminator 1 view .LVU145
 764 002e 4D4D     		ldr	r5, .L70+8
 765 0030 695C     		ldrb	r1, [r5, r1]	@ zero_extendqisi2
 766              		.loc 1 186 37 discriminator 1 view .LVU146
 767 0032 D829     		cmp	r1, #216
 768 0034 0CD1     		bne	.L47
 769              		.loc 1 186 68 discriminator 2 view .LVU147
 770 0036 B4F1FF3F 		cmp	r4, #-1
 771 003a 09D1     		bne	.L47
 187:Core/Src/camera.c ****             start_index = i;
 772              		.loc 1 187 13 is_stmt 1 view .LVU148
 773              		.loc 1 187 25 is_stmt 0 view .LVU149
 774 003c 1C46     		mov	r4, r3
 775              	.LVL73:
 776              		.loc 1 187 25 view .LVU150
 777 003e 07E0     		b	.L47
 778              	.LVL74:
 779              	.L48:
 185:Core/Src/camera.c ****         if (image_buffer[i] == 0xFF && image_buffer[i + 1] == 0xD8 && start_index == -1) {
 780              		.loc 1 185 47 is_stmt 1 discriminator 2 view .LVU151
 781 0040 0133     		adds	r3, r3, #1
 782              	.LVL75:
 783              	.L46:
 185:Core/Src/camera.c ****         if (image_buffer[i] == 0xFF && image_buffer[i + 1] == 0xD8 && start_index == -1) {
 784              		.loc 1 185 28 discriminator 1 view .LVU152
 185:Core/Src/camera.c ****         if (image_buffer[i] == 0xFF && image_buffer[i + 1] == 0xD8 && start_index == -1) {
 785              		.loc 1 185 41 is_stmt 0 discriminator 1 view .LVU153
 786 0042 421E     		subs	r2, r0, #1
 185:Core/Src/camera.c ****         if (image_buffer[i] == 0xFF && image_buffer[i + 1] == 0xD8 && start_index == -1) {
 787              		.loc 1 185 28 discriminator 1 view .LVU154
ARM GAS  /tmp/ccBAjIZV.s 			page 19


 788 0044 9A42     		cmp	r2, r3
 789 0046 0BD9     		bls	.L66
 186:Core/Src/camera.c ****         if (image_buffer[i] == 0xFF && image_buffer[i + 1] == 0xD8 && start_index == -1) {
 790              		.loc 1 186 9 is_stmt 1 view .LVU155
 186:Core/Src/camera.c ****         if (image_buffer[i] == 0xFF && image_buffer[i + 1] == 0xD8 && start_index == -1) {
 791              		.loc 1 186 25 is_stmt 0 view .LVU156
 792 0048 464A     		ldr	r2, .L70+8
 793 004a D25C     		ldrb	r2, [r2, r3]	@ zero_extendqisi2
 186:Core/Src/camera.c ****         if (image_buffer[i] == 0xFF && image_buffer[i + 1] == 0xD8 && start_index == -1) {
 794              		.loc 1 186 12 view .LVU157
 795 004c FF2A     		cmp	r2, #255
 796 004e EDD0     		beq	.L67
 797              	.L47:
 188:Core/Src/camera.c ****         }
 189:Core/Src/camera.c ****         if (image_buffer[i] == 0xFF && image_buffer[i + 1] == 0xD9) {
 798              		.loc 1 189 9 is_stmt 1 view .LVU158
 799              		.loc 1 189 12 is_stmt 0 view .LVU159
 800 0050 FF2A     		cmp	r2, #255
 801 0052 F5D1     		bne	.L48
 802              		.loc 1 189 55 discriminator 1 view .LVU160
 803 0054 5A1C     		adds	r2, r3, #1
 804              		.loc 1 189 52 discriminator 1 view .LVU161
 805 0056 4349     		ldr	r1, .L70+8
 806 0058 895C     		ldrb	r1, [r1, r2]	@ zero_extendqisi2
 807              		.loc 1 189 37 discriminator 1 view .LVU162
 808 005a D929     		cmp	r1, #217
 809 005c F0D1     		bne	.L48
 810 005e 01E0     		b	.L49
 811              	.L66:
 812              		.loc 1 189 37 discriminator 1 view .LVU163
 813              	.LBE5:
 182:Core/Src/camera.c **** 
 814              		.loc 1 182 27 view .LVU164
 815 0060 4FF0FF32 		mov	r2, #-1
 816              	.L49:
 817              	.LVL76:
 190:Core/Src/camera.c ****             end_index = i + 1;
 191:Core/Src/camera.c ****             break;
 192:Core/Src/camera.c ****         }
 193:Core/Src/camera.c ****     }
 194:Core/Src/camera.c **** 
 195:Core/Src/camera.c ****     if (start_index == -1 || end_index == -1 || end_index <= start_index) {
 818              		.loc 1 195 5 is_stmt 1 view .LVU165
 819              		.loc 1 195 8 is_stmt 0 view .LVU166
 820 0064 B4F1FF3F 		cmp	r4, #-1
 821 0068 04D0     		beq	.L51
 822              		.loc 1 195 27 discriminator 1 view .LVU167
 823 006a B2F1FF3F 		cmp	r2, #-1
 824 006e 01D0     		beq	.L51
 825              		.loc 1 195 46 discriminator 2 view .LVU168
 826 0070 9442     		cmp	r4, r2
 827 0072 05DB     		blt	.L52
 828              	.L51:
 196:Core/Src/camera.c ****         printf("JPEG not found in buffer\n");
 829              		.loc 1 196 9 is_stmt 1 view .LVU169
 830 0074 3C48     		ldr	r0, .L70+12
 831              	.LVL77:
ARM GAS  /tmp/ccBAjIZV.s 			page 20


 832              		.loc 1 196 9 is_stmt 0 view .LVU170
 833 0076 FFF7FEFF 		bl	puts
 834              	.LVL78:
 197:Core/Src/camera.c ****         return;
 835              		.loc 1 197 9 is_stmt 1 view .LVU171
 836              	.L45:
 198:Core/Src/camera.c ****     }
 199:Core/Src/camera.c **** 
 200:Core/Src/camera.c ****     jpeg_length = end_index - start_index + 1;
 201:Core/Src/camera.c ****     printf("JPEG found: start=%d, end=%d, length=%lu\n", start_index, end_index, jpeg_length);
 202:Core/Src/camera.c **** 
 203:Core/Src/camera.c ****     /*------ SSDV ENCODING --------*/
 204:Core/Src/camera.c ****     ssdv_t ssdv;
 205:Core/Src/camera.c ****     uint8_t ssdv_pkt[SSDV_PKT_SIZE];
 206:Core/Src/camera.c **** 
 207:Core/Src/camera.c ****     ssdv_enc_init(&ssdv, ssdv_type, ssdv_call_sign, ssdv_image_id++, ssdv_quality);
 208:Core/Src/camera.c ****     ssdv_enc_set_buffer(&ssdv, ssdv_pkt);
 209:Core/Src/camera.c **** 
 210:Core/Src/camera.c ****     // size_t ssdv_packets_in_image = 0;
 211:Core/Src/camera.c **** 
 212:Core/Src/camera.c ****     // Flash initialization
 213:Core/Src/camera.c ****     flash_init();
 214:Core/Src/camera.c **** 
 215:Core/Src/camera.c ****     uint32_t flash_id = flash_read_id();
 216:Core/Src/camera.c ****     if (flash_id != FLASH_ID_512) {
 217:Core/Src/camera.c ****         printf("Flash not found or not matching (ID: 0x%lX)\r\n", flash_id);
 218:Core/Src/camera.c ****         while (1);
 219:Core/Src/camera.c ****     } else {
 220:Core/Src/camera.c ****         printf("Flash found (ID: 0x%lX)\r\n", flash_id);
 221:Core/Src/camera.c ****     }
 222:Core/Src/camera.c **** 
 223:Core/Src/camera.c ****     // Address for current image
 224:Core/Src/camera.c ****     uint32_t image_index = 0;  // Replace with a persistent value for multi-image storage
 225:Core/Src/camera.c ****     uint32_t ssdv_start_addr = image_index * (SSDV_PKT_SIZE * MAX_SSDV_PACKETS);
 226:Core/Src/camera.c **** 
 227:Core/Src/camera.c ****     // Erase necessary sectors
 228:Core/Src/camera.c ****     for (uint32_t addr = ssdv_start_addr; addr < (ssdv_start_addr + (SSDV_PKT_SIZE * MAX_SSDV_PACKE
 229:Core/Src/camera.c ****         flash_erase_sector(addr);
 230:Core/Src/camera.c ****     }
 231:Core/Src/camera.c **** 
 232:Core/Src/camera.c ****     // SSDV encoding and flash writing
 233:Core/Src/camera.c ****     uint32_t bi = 0;
 234:Core/Src/camera.c ****     int c;
 235:Core/Src/camera.c ****     while (1) {
 236:Core/Src/camera.c ****         while ((c = ssdv_enc_get_packet(&ssdv)) == SSDV_FEED_ME) {
 237:Core/Src/camera.c ****             uint32_t chunk_size = ((jpeg_length - bi) >= 128) ? 128 : (jpeg_length - bi);
 238:Core/Src/camera.c ****             if (chunk_size == 0) break;
 239:Core/Src/camera.c ****             ssdv_enc_feed(&ssdv, &image_buffer[start_index + bi], chunk_size);
 240:Core/Src/camera.c ****             bi += chunk_size;
 241:Core/Src/camera.c ****         }
 242:Core/Src/camera.c **** 
 243:Core/Src/camera.c ****         if (c == SSDV_EOI) {
 244:Core/Src/camera.c ****             printf("EOI Packet.\n");
 245:Core/Src/camera.c ****             break;
 246:Core/Src/camera.c ****         } else if (c == SSDV_OK) {
 247:Core/Src/camera.c ****             printf("Writing SSDV packet to flash...\n");
 248:Core/Src/camera.c ****             flash_write_buffer(ssdv_pkt, ssdv_start_addr + ssdv_packets_in_image * SSDV_PKT_SIZE, S
ARM GAS  /tmp/ccBAjIZV.s 			page 21


 249:Core/Src/camera.c ****             printf("| SSDV packet %02lu stored at address 0x%06lX |\n", ssdv_packets_in_image + 1,
 250:Core/Src/camera.c ****                    (unsigned long)(ssdv_start_addr + ssdv_packets_in_image * SSDV_PKT_SIZE));
 251:Core/Src/camera.c ****             ssdv_packets_in_image++;
 252:Core/Src/camera.c ****         } else {
 253:Core/Src/camera.c ****             printf("[SSDV] Error or unexpected result.\n");
 254:Core/Src/camera.c ****             break;
 255:Core/Src/camera.c ****         }
 256:Core/Src/camera.c ****     }
 257:Core/Src/camera.c **** 
 258:Core/Src/camera.c ****     /*------ READ BACK SSDV PACKETS --------*/
 259:Core/Src/camera.c ****     // printf("\n[READING BACK %lu SSDV PACKETS FROM FLASH]\n", ssdv_packets_in_image);
 260:Core/Src/camera.c ****     // for (uint32_t i = 0; i < ssdv_packets_in_image; i++) {
 261:Core/Src/camera.c ****     //     uint8_t buffer[SSDV_PKT_SIZE] = {0};
 262:Core/Src/camera.c ****     //     flash_read_buffer(buffer, ssdv_start_addr + i * SSDV_PKT_SIZE, SSDV_PKT_SIZE);
 263:Core/Src/camera.c ****     //     HAL_Delay(10);
 264:Core/Src/camera.c **** 
 265:Core/Src/camera.c ****     //     printf("Packet %02lu: ", i + 1);
 266:Core/Src/camera.c ****     //     for (uint16_t j = 0; j < SSDV_PKT_SIZE; j++) {
 267:Core/Src/camera.c ****     //         printf("0x%02X, ", buffer[j]);
 268:Core/Src/camera.c ****     //         if ((j + 1) % 16 == 0) printf("\n");
 269:Core/Src/camera.c ****     //     }
 270:Core/Src/camera.c ****     //     printf("\n-----------------------------\n");
 271:Core/Src/camera.c ****     // }
 272:Core/Src/camera.c **** 
 273:Core/Src/camera.c ****     printf("[FLASH READ COMPLETE]\r\n");
 274:Core/Src/camera.c **** }
 837              		.loc 1 274 1 is_stmt 0 view .LVU172
 838 007a 0DF2FC5D 		addw	sp, sp, #1532
 839              		.cfi_remember_state
 840              		.cfi_def_cfa_offset 20
 841              		@ sp needed
 842 007e F0BD     		pop	{r4, r5, r6, r7, pc}
 843              	.LVL79:
 844              	.L52:
 845              		.cfi_restore_state
 200:Core/Src/camera.c ****     printf("JPEG found: start=%d, end=%d, length=%lu\n", start_index, end_index, jpeg_length);
 846              		.loc 1 200 5 is_stmt 1 view .LVU173
 200:Core/Src/camera.c ****     printf("JPEG found: start=%d, end=%d, length=%lu\n", start_index, end_index, jpeg_length);
 847              		.loc 1 200 29 is_stmt 0 view .LVU174
 848 0080 161B     		subs	r6, r2, r4
 200:Core/Src/camera.c ****     printf("JPEG found: start=%d, end=%d, length=%lu\n", start_index, end_index, jpeg_length);
 849              		.loc 1 200 43 view .LVU175
 850 0082 0136     		adds	r6, r6, #1
 851              	.LVL80:
 201:Core/Src/camera.c **** 
 852              		.loc 1 201 5 is_stmt 1 view .LVU176
 853 0084 3346     		mov	r3, r6
 854              	.LVL81:
 201:Core/Src/camera.c **** 
 855              		.loc 1 201 5 is_stmt 0 view .LVU177
 856 0086 2146     		mov	r1, r4
 857 0088 3848     		ldr	r0, .L70+16
 858              	.LVL82:
 201:Core/Src/camera.c **** 
 859              		.loc 1 201 5 view .LVU178
 860 008a FFF7FEFF 		bl	printf
 861              	.LVL83:
ARM GAS  /tmp/ccBAjIZV.s 			page 22


 204:Core/Src/camera.c ****     uint8_t ssdv_pkt[SSDV_PKT_SIZE];
 862              		.loc 1 204 5 is_stmt 1 view .LVU179
 205:Core/Src/camera.c **** 
 863              		.loc 1 205 5 view .LVU180
 207:Core/Src/camera.c ****     ssdv_enc_set_buffer(&ssdv, ssdv_pkt);
 864              		.loc 1 207 5 view .LVU181
 865 008e 384A     		ldr	r2, .L70+20
 866 0090 1378     		ldrb	r3, [r2]	@ zero_extendqisi2
 867 0092 591C     		adds	r1, r3, #1
 868 0094 1170     		strb	r1, [r2]
 869 0096 374A     		ldr	r2, .L70+24
 870 0098 92F90020 		ldrsb	r2, [r2]
 871 009c 0092     		str	r2, [sp]
 872 009e 364A     		ldr	r2, .L70+28
 873 00a0 3649     		ldr	r1, .L70+32
 874 00a2 0978     		ldrb	r1, [r1]	@ zero_extendqisi2
 875 00a4 3AA8     		add	r0, sp, #232
 876 00a6 FFF7FEFF 		bl	ssdv_enc_init
 877              	.LVL84:
 208:Core/Src/camera.c **** 
 878              		.loc 1 208 5 view .LVU182
 879 00aa 02A9     		add	r1, sp, #8
 880 00ac 3AA8     		add	r0, sp, #232
 881 00ae FFF7FEFF 		bl	ssdv_enc_set_buffer
 882              	.LVL85:
 213:Core/Src/camera.c **** 
 883              		.loc 1 213 5 view .LVU183
 884 00b2 FFF7FEFF 		bl	flash_init
 885              	.LVL86:
 215:Core/Src/camera.c ****     if (flash_id != FLASH_ID_512) {
 886              		.loc 1 215 5 view .LVU184
 215:Core/Src/camera.c ****     if (flash_id != FLASH_ID_512) {
 887              		.loc 1 215 25 is_stmt 0 view .LVU185
 888 00b6 FFF7FEFF 		bl	flash_read_id
 889              	.LVL87:
 890 00ba 0146     		mov	r1, r0
 891              	.LVL88:
 216:Core/Src/camera.c ****         printf("Flash not found or not matching (ID: 0x%lX)\r\n", flash_id);
 892              		.loc 1 216 5 is_stmt 1 view .LVU186
 216:Core/Src/camera.c ****         printf("Flash not found or not matching (ID: 0x%lX)\r\n", flash_id);
 893              		.loc 1 216 8 is_stmt 0 view .LVU187
 894 00bc 304B     		ldr	r3, .L70+36
 895 00be 9842     		cmp	r0, r3
 896 00c0 03D0     		beq	.L54
 217:Core/Src/camera.c ****         while (1);
 897              		.loc 1 217 9 is_stmt 1 view .LVU188
 898 00c2 3048     		ldr	r0, .L70+40
 899              	.LVL89:
 217:Core/Src/camera.c ****         while (1);
 900              		.loc 1 217 9 is_stmt 0 view .LVU189
 901 00c4 FFF7FEFF 		bl	printf
 902              	.LVL90:
 903              	.L55:
 218:Core/Src/camera.c ****     } else {
 904              		.loc 1 218 9 is_stmt 1 view .LVU190
 218:Core/Src/camera.c ****     } else {
 905              		.loc 1 218 15 view .LVU191
ARM GAS  /tmp/ccBAjIZV.s 			page 23


 906 00c8 FEE7     		b	.L55
 907              	.LVL91:
 908              	.L54:
 220:Core/Src/camera.c ****     }
 909              		.loc 1 220 9 view .LVU192
 910 00ca 2F48     		ldr	r0, .L70+44
 911              	.LVL92:
 220:Core/Src/camera.c ****     }
 912              		.loc 1 220 9 is_stmt 0 view .LVU193
 913 00cc FFF7FEFF 		bl	printf
 914              	.LVL93:
 224:Core/Src/camera.c ****     uint32_t ssdv_start_addr = image_index * (SSDV_PKT_SIZE * MAX_SSDV_PACKETS);
 915              		.loc 1 224 5 is_stmt 1 view .LVU194
 225:Core/Src/camera.c **** 
 916              		.loc 1 225 5 view .LVU195
 228:Core/Src/camera.c ****         flash_erase_sector(addr);
 917              		.loc 1 228 5 view .LVU196
 918              	.LBB6:
 228:Core/Src/camera.c ****         flash_erase_sector(addr);
 919              		.loc 1 228 10 view .LVU197
 228:Core/Src/camera.c ****         flash_erase_sector(addr);
 920              		.loc 1 228 19 is_stmt 0 view .LVU198
 921 00d0 0025     		movs	r5, #0
 922              	.LVL94:
 923              	.L56:
 228:Core/Src/camera.c ****         flash_erase_sector(addr);
 924              		.loc 1 228 48 is_stmt 1 discriminator 1 view .LVU199
 925 00d2 42F25F73 		movw	r3, #10079
 926 00d6 9D42     		cmp	r5, r3
 927 00d8 05D8     		bhi	.L68
 229:Core/Src/camera.c ****     }
 928              		.loc 1 229 9 view .LVU200
 929 00da 2846     		mov	r0, r5
 930 00dc FFF7FEFF 		bl	flash_erase_sector
 931              	.LVL95:
 228:Core/Src/camera.c ****         flash_erase_sector(addr);
 932              		.loc 1 228 111 discriminator 3 view .LVU201
 933 00e0 05F58055 		add	r5, r5, #4096
 934              	.LVL96:
 228:Core/Src/camera.c ****         flash_erase_sector(addr);
 935              		.loc 1 228 111 is_stmt 0 discriminator 3 view .LVU202
 936 00e4 F5E7     		b	.L56
 937              	.L68:
 228:Core/Src/camera.c ****         flash_erase_sector(addr);
 938              		.loc 1 228 111 discriminator 3 view .LVU203
 939              	.LBE6:
 233:Core/Src/camera.c ****     int c;
 940              		.loc 1 233 14 view .LVU204
 941 00e6 0027     		movs	r7, #0
 942 00e8 19E0     		b	.L58
 943              	.LVL97:
 944              	.L59:
 243:Core/Src/camera.c ****             printf("EOI Packet.\n");
 945              		.loc 1 243 9 is_stmt 1 view .LVU205
 243:Core/Src/camera.c ****             printf("EOI Packet.\n");
 946              		.loc 1 243 12 is_stmt 0 view .LVU206
 947 00ea 0428     		cmp	r0, #4
ARM GAS  /tmp/ccBAjIZV.s 			page 24


 948 00ec 2BD0     		beq	.L69
 246:Core/Src/camera.c ****             printf("Writing SSDV packet to flash...\n");
 949              		.loc 1 246 16 is_stmt 1 view .LVU207
 246:Core/Src/camera.c ****             printf("Writing SSDV packet to flash...\n");
 950              		.loc 1 246 19 is_stmt 0 view .LVU208
 951 00ee 88BB     		cbnz	r0, .L63
 247:Core/Src/camera.c ****             flash_write_buffer(ssdv_pkt, ssdv_start_addr + ssdv_packets_in_image * SSDV_PKT_SIZE, S
 952              		.loc 1 247 13 is_stmt 1 view .LVU209
 953 00f0 2648     		ldr	r0, .L70+48
 954              	.LVL98:
 247:Core/Src/camera.c ****             flash_write_buffer(ssdv_pkt, ssdv_start_addr + ssdv_packets_in_image * SSDV_PKT_SIZE, S
 955              		.loc 1 247 13 is_stmt 0 view .LVU210
 956 00f2 FFF7FEFF 		bl	puts
 957              	.LVL99:
 248:Core/Src/camera.c ****             printf("| SSDV packet %02lu stored at address 0x%06lX |\n", ssdv_packets_in_image + 1,
 958              		.loc 1 248 13 is_stmt 1 view .LVU211
 248:Core/Src/camera.c ****             printf("| SSDV packet %02lu stored at address 0x%06lX |\n", ssdv_packets_in_image + 1,
 959              		.loc 1 248 82 is_stmt 0 view .LVU212
 960 00f6 264D     		ldr	r5, .L70+52
 961 00f8 2968     		ldr	r1, [r5]
 962 00fa C1EBC101 		rsb	r1, r1, r1, lsl #3
 248:Core/Src/camera.c ****             printf("| SSDV packet %02lu stored at address 0x%06lX |\n", ssdv_packets_in_image + 1,
 963              		.loc 1 248 13 view .LVU213
 964 00fe E022     		movs	r2, #224
 965 0100 4901     		lsls	r1, r1, #5
 966 0102 02A8     		add	r0, sp, #8
 967 0104 FFF7FEFF 		bl	flash_write_buffer
 968              	.LVL100:
 249:Core/Src/camera.c ****                    (unsigned long)(ssdv_start_addr + ssdv_packets_in_image * SSDV_PKT_SIZE));
 969              		.loc 1 249 13 is_stmt 1 view .LVU214
 970 0108 2968     		ldr	r1, [r5]
 250:Core/Src/camera.c ****             ssdv_packets_in_image++;
 971              		.loc 1 250 76 is_stmt 0 view .LVU215
 972 010a C1EBC102 		rsb	r2, r1, r1, lsl #3
 249:Core/Src/camera.c ****                    (unsigned long)(ssdv_start_addr + ssdv_packets_in_image * SSDV_PKT_SIZE));
 973              		.loc 1 249 13 view .LVU216
 974 010e 5201     		lsls	r2, r2, #5
 975 0110 0131     		adds	r1, r1, #1
 976 0112 2048     		ldr	r0, .L70+56
 977 0114 FFF7FEFF 		bl	printf
 978              	.LVL101:
 251:Core/Src/camera.c ****         } else {
 979              		.loc 1 251 13 is_stmt 1 view .LVU217
 251:Core/Src/camera.c ****         } else {
 980              		.loc 1 251 34 is_stmt 0 view .LVU218
 981 0118 2B68     		ldr	r3, [r5]
 982 011a 0133     		adds	r3, r3, #1
 983 011c 2B60     		str	r3, [r5]
 235:Core/Src/camera.c ****         while ((c = ssdv_enc_get_packet(&ssdv)) == SSDV_FEED_ME) {
 984              		.loc 1 235 11 is_stmt 1 view .LVU219
 985              	.LVL102:
 986              	.L58:
 236:Core/Src/camera.c ****             uint32_t chunk_size = ((jpeg_length - bi) >= 128) ? 128 : (jpeg_length - bi);
 987              		.loc 1 236 49 view .LVU220
 236:Core/Src/camera.c ****             uint32_t chunk_size = ((jpeg_length - bi) >= 128) ? 128 : (jpeg_length - bi);
 988              		.loc 1 236 21 is_stmt 0 view .LVU221
 989 011e 3AA8     		add	r0, sp, #232
ARM GAS  /tmp/ccBAjIZV.s 			page 25


 990 0120 FFF7FEFF 		bl	ssdv_enc_get_packet
 991              	.LVL103:
 236:Core/Src/camera.c ****             uint32_t chunk_size = ((jpeg_length - bi) >= 128) ? 128 : (jpeg_length - bi);
 992              		.loc 1 236 49 discriminator 1 view .LVU222
 993 0124 0128     		cmp	r0, #1
 994 0126 E0D1     		bne	.L59
 995              	.LBB7:
 237:Core/Src/camera.c ****             if (chunk_size == 0) break;
 996              		.loc 1 237 13 is_stmt 1 view .LVU223
 237:Core/Src/camera.c ****             if (chunk_size == 0) break;
 997              		.loc 1 237 49 is_stmt 0 view .LVU224
 998 0128 F21B     		subs	r2, r6, r7
 237:Core/Src/camera.c ****             if (chunk_size == 0) break;
 999              		.loc 1 237 22 view .LVU225
 1000 012a 802A     		cmp	r2, #128
 1001 012c 28BF     		it	cs
 1002 012e 8022     		movcs	r2, #128
 1003 0130 1546     		mov	r5, r2
 1004              	.LVL104:
 238:Core/Src/camera.c ****             ssdv_enc_feed(&ssdv, &image_buffer[start_index + bi], chunk_size);
 1005              		.loc 1 238 13 is_stmt 1 view .LVU226
 238:Core/Src/camera.c ****             ssdv_enc_feed(&ssdv, &image_buffer[start_index + bi], chunk_size);
 1006              		.loc 1 238 16 is_stmt 0 view .LVU227
 1007 0132 B742     		cmp	r7, r6
 1008 0134 D9D0     		beq	.L59
 239:Core/Src/camera.c ****             bi += chunk_size;
 1009              		.loc 1 239 13 is_stmt 1 view .LVU228
 239:Core/Src/camera.c ****             bi += chunk_size;
 1010              		.loc 1 239 60 is_stmt 0 view .LVU229
 1011 0136 E319     		adds	r3, r4, r7
 239:Core/Src/camera.c ****             bi += chunk_size;
 1012              		.loc 1 239 13 view .LVU230
 1013 0138 0A49     		ldr	r1, .L70+8
 1014 013a 1944     		add	r1, r1, r3
 1015 013c 3AA8     		add	r0, sp, #232
 1016              	.LVL105:
 239:Core/Src/camera.c ****             bi += chunk_size;
 1017              		.loc 1 239 13 view .LVU231
 1018 013e FFF7FEFF 		bl	ssdv_enc_feed
 1019              	.LVL106:
 240:Core/Src/camera.c ****         }
 1020              		.loc 1 240 13 is_stmt 1 view .LVU232
 240:Core/Src/camera.c ****         }
 1021              		.loc 1 240 16 is_stmt 0 view .LVU233
 1022 0142 2F44     		add	r7, r7, r5
 1023              	.LVL107:
 240:Core/Src/camera.c ****         }
 1024              		.loc 1 240 16 view .LVU234
 1025 0144 EBE7     		b	.L58
 1026              	.LVL108:
 1027              	.L69:
 240:Core/Src/camera.c ****         }
 1028              		.loc 1 240 16 view .LVU235
 1029              	.LBE7:
 244:Core/Src/camera.c ****             break;
 1030              		.loc 1 244 13 is_stmt 1 view .LVU236
 1031 0146 1448     		ldr	r0, .L70+60
ARM GAS  /tmp/ccBAjIZV.s 			page 26


 1032              	.LVL109:
 244:Core/Src/camera.c ****             break;
 1033              		.loc 1 244 13 is_stmt 0 view .LVU237
 1034 0148 FFF7FEFF 		bl	puts
 1035              	.LVL110:
 245:Core/Src/camera.c ****         } else if (c == SSDV_OK) {
 1036              		.loc 1 245 13 is_stmt 1 view .LVU238
 1037              	.L62:
 273:Core/Src/camera.c **** }
 1038              		.loc 1 273 5 view .LVU239
 1039 014c 1348     		ldr	r0, .L70+64
 1040 014e FFF7FEFF 		bl	puts
 1041              	.LVL111:
 1042 0152 92E7     		b	.L45
 1043              	.LVL112:
 1044              	.L63:
 253:Core/Src/camera.c ****             break;
 1045              		.loc 1 253 13 view .LVU240
 1046 0154 1248     		ldr	r0, .L70+68
 1047              	.LVL113:
 253:Core/Src/camera.c ****             break;
 1048              		.loc 1 253 13 is_stmt 0 view .LVU241
 1049 0156 FFF7FEFF 		bl	puts
 1050              	.LVL114:
 254:Core/Src/camera.c ****         }
 1051              		.loc 1 254 13 is_stmt 1 view .LVU242
 1052 015a F7E7     		b	.L62
 1053              	.L71:
 1054              		.align	2
 1055              	.L70:
 1056 015c 00000000 		.word	.LC1
 1057 0160 1C000000 		.word	.LC2
 1058 0164 00000000 		.word	image_buffer
 1059 0168 38000000 		.word	.LC3
 1060 016c 54000000 		.word	.LC4
 1061 0170 00000000 		.word	ssdv_image_id
 1062 0174 00000000 		.word	ssdv_quality
 1063 0178 00000000 		.word	ssdv_call_sign
 1064 017c 00000000 		.word	ssdv_type
 1065 0180 2040EF00 		.word	15679520
 1066 0184 80000000 		.word	.LC5
 1067 0188 B0000000 		.word	.LC6
 1068 018c D8000000 		.word	.LC8
 1069 0190 00000000 		.word	ssdv_packets_in_image
 1070 0194 F8000000 		.word	.LC9
 1071 0198 CC000000 		.word	.LC7
 1072 019c 50010000 		.word	.LC11
 1073 01a0 2C010000 		.word	.LC10
 1074              		.cfi_endproc
 1075              	.LFE80:
 1077              		.global	ssdv_quality
 1078              		.section	.data.ssdv_quality,"aw"
 1081              	ssdv_quality:
 1082 0000 04       		.byte	4
 1083              		.global	ssdv_image_id
 1084              		.section	.bss.ssdv_image_id,"aw",%nobits
 1087              	ssdv_image_id:
ARM GAS  /tmp/ccBAjIZV.s 			page 27


 1088 0000 00       		.space	1
 1089              		.global	ssdv_call_sign
 1090              		.section	.data.ssdv_call_sign,"aw"
 1091              		.align	2
 1094              	ssdv_call_sign:
 1095 0000 43414C53 		.ascii	"CALSIGN"
 1095      49474E
 1096              		.global	ssdv_type
 1097              		.section	.bss.ssdv_type,"aw",%nobits
 1100              	ssdv_type:
 1101 0000 00       		.space	1
 1102              		.global	ssdv_start_addr
 1103              		.section	.bss.ssdv_start_addr,"aw",%nobits
 1104              		.align	2
 1107              	ssdv_start_addr:
 1108 0000 00000000 		.space	4
 1109              		.global	ssdv_packets_in_image
 1110              		.section	.bss.ssdv_packets_in_image,"aw",%nobits
 1111              		.align	2
 1114              	ssdv_packets_in_image:
 1115 0000 00000000 		.space	4
 1116              		.global	jpeg_size
 1117              		.section	.bss.jpeg_size,"aw",%nobits
 1118              		.align	2
 1121              	jpeg_size:
 1122 0000 00000000 		.space	4
 1123              		.global	image_buffer
 1124              		.section	.bss.image_buffer,"aw",%nobits
 1125              		.align	2
 1128              	image_buffer:
 1129 0000 00000000 		.space	15000
 1129      00000000 
 1129      00000000 
 1129      00000000 
 1129      00000000 
 1130              		.text
 1131              	.Letext0:
 1132              		.file 2 "/home/sarthak/.config/Code/User/globalStorage/bmd.stm32-for-vscode/@xpack-dev-tools/arm-n
 1133              		.file 3 "/home/sarthak/.config/Code/User/globalStorage/bmd.stm32-for-vscode/@xpack-dev-tools/arm-n
 1134              		.file 4 "Drivers/CMSIS/Device/ST/STM32F1xx/Include/stm32f103xb.h"
 1135              		.file 5 "/home/sarthak/.config/Code/User/globalStorage/bmd.stm32-for-vscode/@xpack-dev-tools/arm-n
 1136              		.file 6 "Drivers/STM32F1xx_HAL_Driver/Inc/stm32f1xx_hal_def.h"
 1137              		.file 7 "Drivers/STM32F1xx_HAL_Driver/Inc/stm32f1xx_hal_gpio.h"
 1138              		.file 8 "Drivers/STM32F1xx_HAL_Driver/Inc/stm32f1xx_hal_dma.h"
 1139              		.file 9 "Drivers/STM32F1xx_HAL_Driver/Inc/stm32f1xx_hal_spi.h"
 1140              		.file 10 "libs/ssdv/ssdv.h"
 1141              		.file 11 "Core/Inc/camera.h"
 1142              		.file 12 "libs/flash/flash.h"
 1143              		.file 13 "/home/sarthak/.config/Code/User/globalStorage/bmd.stm32-for-vscode/@xpack-dev-tools/arm-
 1144              		.file 14 "Drivers/STM32F1xx_HAL_Driver/Inc/stm32f1xx_hal.h"
 1145              		.file 15 "<built-in>"
ARM GAS  /tmp/ccBAjIZV.s 			page 28

