ARM GAS  /tmp/cc6kAde8.s 			page 1


   1              		.cpu cortex-m3
   2              		.arch armv7-m
   3              		.fpu softvfp
   4              		.eabi_attribute 20, 1
   5              		.eabi_attribute 21, 1
   6              		.eabi_attribute 23, 3
   7              		.eabi_attribute 24, 1
   8              		.eabi_attribute 25, 1
   9              		.eabi_attribute 26, 1
  10              		.eabi_attribute 30, 1
  11              		.eabi_attribute 34, 1
  12              		.eabi_attribute 18, 4
  13              		.file	"i2c_slave.c"
  14              		.text
  15              	.Ltext0:
  16              		.cfi_sections	.debug_frame
  17              		.file 1 "Core/Src/i2c_slave.c"
  18              		.section	.text.HAL_I2C_ListenCpltCallback,"ax",%progbits
  19              		.align	1
  20              		.global	HAL_I2C_ListenCpltCallback
  21              		.syntax unified
  22              		.thumb
  23              		.thumb_func
  25              	HAL_I2C_ListenCpltCallback:
  26              	.LVL0:
  27              	.LFB68:
   1:Core/Src/i2c_slave.c **** #include "main.h"
   2:Core/Src/i2c_slave.c **** #include "i2c_slave.h"
   3:Core/Src/i2c_slave.c **** #include "camera.h"
   4:Core/Src/i2c_slave.c **** 
   5:Core/Src/i2c_slave.c **** volatile uint8_t capture_requested = 0;
   6:Core/Src/i2c_slave.c **** 
   7:Core/Src/i2c_slave.c **** volatile uint8_t send_all_packets = 0;
   8:Core/Src/i2c_slave.c **** volatile uint16_t current_packet_index = 0;
   9:Core/Src/i2c_slave.c **** 
  10:Core/Src/i2c_slave.c **** 
  11:Core/Src/i2c_slave.c **** extern uint32_t ssdv_start_addr;
  12:Core/Src/i2c_slave.c **** extern uint32_t ssdv_packets_in_image;
  13:Core/Src/i2c_slave.c **** 
  14:Core/Src/i2c_slave.c **** extern I2C_HandleTypeDef hi2c2;
  15:Core/Src/i2c_slave.c **** #define RxSize 1
  16:Core/Src/i2c_slave.c **** uint8_t RxData[RxSize];
  17:Core/Src/i2c_slave.c **** 
  18:Core/Src/i2c_slave.c **** int rxcount = 0 ;
  19:Core/Src/i2c_slave.c **** // extern ssdv_packets_in_image, ssdv_start_addr;
  20:Core/Src/i2c_slave.c **** 
  21:Core/Src/i2c_slave.c **** 
  22:Core/Src/i2c_slave.c **** void HAL_I2C_ListenCpltCallback(I2C_HandleTypeDef *hi2c)
  23:Core/Src/i2c_slave.c **** {
  28              		.loc 1 23 1 view -0
  29              		.cfi_startproc
  30              		@ args = 0, pretend = 0, frame = 0
  31              		@ frame_needed = 0, uses_anonymous_args = 0
  32              		.loc 1 23 1 is_stmt 0 view .LVU1
  33 0000 08B5     		push	{r3, lr}
  34              		.cfi_def_cfa_offset 8
  35              		.cfi_offset 3, -8
ARM GAS  /tmp/cc6kAde8.s 			page 2


  36              		.cfi_offset 14, -4
  24:Core/Src/i2c_slave.c ****     HAL_I2C_EnableListen_IT(hi2c);
  37              		.loc 1 24 5 is_stmt 1 view .LVU2
  38 0002 FFF7FEFF 		bl	HAL_I2C_EnableListen_IT
  39              	.LVL1:
  25:Core/Src/i2c_slave.c **** }
  40              		.loc 1 25 1 is_stmt 0 view .LVU3
  41 0006 08BD     		pop	{r3, pc}
  42              		.cfi_endproc
  43              	.LFE68:
  45              		.section	.rodata.HAL_I2C_AddrCallback.str1.4,"aMS",%progbits,1
  46              		.align	2
  47              	.LC0:
  48 0000 53656E74 		.ascii	"Sent SSDV packet %d\012\000"
  48      20535344 
  48      56207061 
  48      636B6574 
  48      2025640A 
  49              		.section	.text.HAL_I2C_AddrCallback,"ax",%progbits
  50              		.align	1
  51              		.global	HAL_I2C_AddrCallback
  52              		.syntax unified
  53              		.thumb
  54              		.thumb_func
  56              	HAL_I2C_AddrCallback:
  57              	.LVL2:
  58              	.LFB69:
  26:Core/Src/i2c_slave.c **** 
  27:Core/Src/i2c_slave.c **** 
  28:Core/Src/i2c_slave.c **** 
  29:Core/Src/i2c_slave.c **** void HAL_I2C_AddrCallback(I2C_HandleTypeDef *hi2c, uint8_t TransferDirection, uint16_t AddrMatchCod
  30:Core/Src/i2c_slave.c **** {
  59              		.loc 1 30 1 is_stmt 1 view -0
  60              		.cfi_startproc
  61              		@ args = 0, pretend = 0, frame = 224
  62              		@ frame_needed = 0, uses_anonymous_args = 0
  63              		.loc 1 30 1 is_stmt 0 view .LVU5
  64 0000 70B5     		push	{r4, r5, r6, lr}
  65              		.cfi_def_cfa_offset 16
  66              		.cfi_offset 4, -16
  67              		.cfi_offset 5, -12
  68              		.cfi_offset 6, -8
  69              		.cfi_offset 14, -4
  70 0002 B8B0     		sub	sp, sp, #224
  71              		.cfi_def_cfa_offset 240
  72 0004 0446     		mov	r4, r0
  31:Core/Src/i2c_slave.c ****     if (TransferDirection == I2C_DIRECTION_TRANSMIT) {
  73              		.loc 1 31 5 is_stmt 1 view .LVU6
  74              		.loc 1 31 8 is_stmt 0 view .LVU7
  75 0006 0129     		cmp	r1, #1
  76 0008 18D0     		beq	.L8
  32:Core/Src/i2c_slave.c ****         HAL_I2C_Slave_Seq_Receive_IT(hi2c, RxData, RxSize, I2C_FIRST_AND_LAST_FRAME);
  33:Core/Src/i2c_slave.c ****     } 
  34:Core/Src/i2c_slave.c ****     else if (TransferDirection == I2C_DIRECTION_RECEIVE) {
  77              		.loc 1 34 10 is_stmt 1 view .LVU8
  78              		.loc 1 34 13 is_stmt 0 view .LVU9
  79 000a A9B9     		cbnz	r1, .L3
ARM GAS  /tmp/cc6kAde8.s 			page 3


  35:Core/Src/i2c_slave.c ****         if (send_all_packets && current_packet_index < ssdv_packets_in_image) {
  80              		.loc 1 35 9 is_stmt 1 view .LVU10
  81              		.loc 1 35 13 is_stmt 0 view .LVU11
  82 000c 204B     		ldr	r3, .L10
  83 000e 1B78     		ldrb	r3, [r3]	@ zero_extendqisi2
  84              		.loc 1 35 12 view .LVU12
  85 0010 33B1     		cbz	r3, .L6
  86              		.loc 1 35 54 discriminator 1 view .LVU13
  87 0012 204B     		ldr	r3, .L10+4
  88 0014 1B88     		ldrh	r3, [r3]
  89 0016 9BB2     		uxth	r3, r3
  90 0018 1F4A     		ldr	r2, .L10+8
  91              	.LVL3:
  92              		.loc 1 35 54 discriminator 1 view .LVU14
  93 001a 1268     		ldr	r2, [r2]
  94              		.loc 1 35 30 discriminator 1 view .LVU15
  95 001c 9342     		cmp	r3, r2
  96 001e 13D3     		bcc	.L9
  97              	.L6:
  98              	.LBB2:
  36:Core/Src/i2c_slave.c ****             uint8_t ssdv_pkt[SSDV_PKT_SIZE] = {0};
  37:Core/Src/i2c_slave.c ****             flash_read_buffer(ssdv_pkt, ssdv_start_addr + current_packet_index * SSDV_PKT_SIZE, SSD
  38:Core/Src/i2c_slave.c **** 
  39:Core/Src/i2c_slave.c ****             HAL_I2C_Slave_Seq_Transmit_IT(hi2c, ssdv_pkt, SSDV_PKT_SIZE, I2C_FIRST_AND_LAST_FRAME);
  40:Core/Src/i2c_slave.c ****             printf("Sent SSDV packet %d\n", current_packet_index);
  41:Core/Src/i2c_slave.c ****             current_packet_index++;
  42:Core/Src/i2c_slave.c ****         } else {
  43:Core/Src/i2c_slave.c ****             // All packets sent or transfer not started
  44:Core/Src/i2c_slave.c ****             uint8_t dummy[1] = {0xFF};
  99              		.loc 1 44 13 is_stmt 1 view .LVU16
 100              		.loc 1 44 21 is_stmt 0 view .LVU17
 101 0020 FF23     		movs	r3, #255
 102 0022 8DF80030 		strb	r3, [sp]
  45:Core/Src/i2c_slave.c ****             HAL_I2C_Slave_Seq_Transmit_IT(hi2c, dummy, 1, I2C_FIRST_AND_LAST_FRAME);
 103              		.loc 1 45 13 is_stmt 1 view .LVU18
 104 0026 0823     		movs	r3, #8
 105 0028 0122     		movs	r2, #1
 106 002a 6946     		mov	r1, sp
 107              	.LVL4:
 108              		.loc 1 45 13 is_stmt 0 view .LVU19
 109 002c 2046     		mov	r0, r4
 110              	.LVL5:
 111              		.loc 1 45 13 view .LVU20
 112 002e FFF7FEFF 		bl	HAL_I2C_Slave_Seq_Transmit_IT
 113              	.LVL6:
  46:Core/Src/i2c_slave.c ****             send_all_packets = 0;  // Reset stream mode
 114              		.loc 1 46 13 is_stmt 1 view .LVU21
 115              		.loc 1 46 30 is_stmt 0 view .LVU22
 116 0032 174B     		ldr	r3, .L10
 117 0034 0022     		movs	r2, #0
 118 0036 1A70     		strb	r2, [r3]
 119              	.L3:
 120              		.loc 1 46 30 view .LVU23
 121              	.LBE2:
  47:Core/Src/i2c_slave.c ****         }
  48:Core/Src/i2c_slave.c ****     }
  49:Core/Src/i2c_slave.c **** }
ARM GAS  /tmp/cc6kAde8.s 			page 4


 122              		.loc 1 49 1 view .LVU24
 123 0038 38B0     		add	sp, sp, #224
 124              		.cfi_remember_state
 125              		.cfi_def_cfa_offset 16
 126              		@ sp needed
 127 003a 70BD     		pop	{r4, r5, r6, pc}
 128              	.LVL7:
 129              	.L8:
 130              		.cfi_restore_state
  32:Core/Src/i2c_slave.c ****     } 
 131              		.loc 1 32 9 is_stmt 1 view .LVU25
 132 003c 0823     		movs	r3, #8
 133 003e 0122     		movs	r2, #1
 134              	.LVL8:
  32:Core/Src/i2c_slave.c ****     } 
 135              		.loc 1 32 9 is_stmt 0 view .LVU26
 136 0040 1649     		ldr	r1, .L10+12
 137              	.LVL9:
  32:Core/Src/i2c_slave.c ****     } 
 138              		.loc 1 32 9 view .LVU27
 139 0042 FFF7FEFF 		bl	HAL_I2C_Slave_Seq_Receive_IT
 140              	.LVL10:
  32:Core/Src/i2c_slave.c ****     } 
 141              		.loc 1 32 9 view .LVU28
 142 0046 F7E7     		b	.L3
 143              	.LVL11:
 144              	.L9:
 145              	.LBB3:
  36:Core/Src/i2c_slave.c ****             flash_read_buffer(ssdv_pkt, ssdv_start_addr + current_packet_index * SSDV_PKT_SIZE, SSD
 146              		.loc 1 36 13 is_stmt 1 view .LVU29
  36:Core/Src/i2c_slave.c ****             flash_read_buffer(ssdv_pkt, ssdv_start_addr + current_packet_index * SSDV_PKT_SIZE, SSD
 147              		.loc 1 36 21 is_stmt 0 view .LVU30
 148 0048 E026     		movs	r6, #224
 149 004a 3246     		mov	r2, r6
 150 004c 6846     		mov	r0, sp
 151              	.LVL12:
  36:Core/Src/i2c_slave.c ****             flash_read_buffer(ssdv_pkt, ssdv_start_addr + current_packet_index * SSDV_PKT_SIZE, SSD
 152              		.loc 1 36 21 view .LVU31
 153 004e FFF7FEFF 		bl	memset
 154              	.LVL13:
  37:Core/Src/i2c_slave.c **** 
 155              		.loc 1 37 13 is_stmt 1 view .LVU32
  37:Core/Src/i2c_slave.c **** 
 156              		.loc 1 37 80 is_stmt 0 view .LVU33
 157 0052 104D     		ldr	r5, .L10+4
 158 0054 2988     		ldrh	r1, [r5]
 159 0056 89B2     		uxth	r1, r1
 160 0058 C1EBC101 		rsb	r1, r1, r1, lsl #3
  37:Core/Src/i2c_slave.c **** 
 161              		.loc 1 37 13 view .LVU34
 162 005c 104B     		ldr	r3, .L10+16
 163 005e 1B68     		ldr	r3, [r3]
 164 0060 3246     		mov	r2, r6
 165 0062 03EB4111 		add	r1, r3, r1, lsl #5
 166 0066 6846     		mov	r0, sp
 167 0068 FFF7FEFF 		bl	flash_read_buffer
 168              	.LVL14:
ARM GAS  /tmp/cc6kAde8.s 			page 5


  39:Core/Src/i2c_slave.c ****             printf("Sent SSDV packet %d\n", current_packet_index);
 169              		.loc 1 39 13 is_stmt 1 view .LVU35
 170 006c 0823     		movs	r3, #8
 171 006e 3246     		mov	r2, r6
 172 0070 6946     		mov	r1, sp
 173 0072 2046     		mov	r0, r4
 174 0074 FFF7FEFF 		bl	HAL_I2C_Slave_Seq_Transmit_IT
 175              	.LVL15:
  40:Core/Src/i2c_slave.c ****             current_packet_index++;
 176              		.loc 1 40 13 view .LVU36
 177 0078 2988     		ldrh	r1, [r5]
 178 007a 89B2     		uxth	r1, r1
 179 007c 0948     		ldr	r0, .L10+20
 180 007e FFF7FEFF 		bl	printf
 181              	.LVL16:
  41:Core/Src/i2c_slave.c ****         } else {
 182              		.loc 1 41 13 view .LVU37
  41:Core/Src/i2c_slave.c ****         } else {
 183              		.loc 1 41 33 is_stmt 0 view .LVU38
 184 0082 2B88     		ldrh	r3, [r5]
 185 0084 9BB2     		uxth	r3, r3
 186 0086 0133     		adds	r3, r3, #1
 187 0088 9BB2     		uxth	r3, r3
 188 008a 2B80     		strh	r3, [r5]	@ movhi
 189              	.LBE3:
  35:Core/Src/i2c_slave.c ****             uint8_t ssdv_pkt[SSDV_PKT_SIZE] = {0};
 190              		.loc 1 35 79 view .LVU39
 191 008c D4E7     		b	.L3
 192              	.L11:
 193 008e 00BF     		.align	2
 194              	.L10:
 195 0090 00000000 		.word	send_all_packets
 196 0094 00000000 		.word	current_packet_index
 197 0098 00000000 		.word	ssdv_packets_in_image
 198 009c 00000000 		.word	RxData
 199 00a0 00000000 		.word	ssdv_start_addr
 200 00a4 00000000 		.word	.LC0
 201              		.cfi_endproc
 202              	.LFE69:
 204              		.section	.rodata.HAL_I2C_SlaveRxCpltCallback.str1.4,"aMS",%progbits,1
 205              		.align	2
 206              	.LC1:
 207 0000 43617074 		.ascii	"Capture command received\015\000"
 207      75726520 
 207      636F6D6D 
 207      616E6420 
 207      72656365 
 208 001a 0000     		.align	2
 209              	.LC2:
 210 001c 53534456 		.ascii	"SSDV stream requested\015\000"
 210      20737472 
 210      65616D20 
 210      72657175 
 210      65737465 
 211              		.section	.text.HAL_I2C_SlaveRxCpltCallback,"ax",%progbits
 212              		.align	1
 213              		.global	HAL_I2C_SlaveRxCpltCallback
ARM GAS  /tmp/cc6kAde8.s 			page 6


 214              		.syntax unified
 215              		.thumb
 216              		.thumb_func
 218              	HAL_I2C_SlaveRxCpltCallback:
 219              	.LVL17:
 220              	.LFB70:
  50:Core/Src/i2c_slave.c **** 
  51:Core/Src/i2c_slave.c **** 
  52:Core/Src/i2c_slave.c **** void HAL_I2C_SlaveRxCpltCallback(I2C_HandleTypeDef *hi2c)
  53:Core/Src/i2c_slave.c **** {
 221              		.loc 1 53 1 is_stmt 1 view -0
 222              		.cfi_startproc
 223              		@ args = 0, pretend = 0, frame = 0
 224              		@ frame_needed = 0, uses_anonymous_args = 0
 225              		.loc 1 53 1 is_stmt 0 view .LVU41
 226 0000 08B5     		push	{r3, lr}
 227              		.cfi_def_cfa_offset 8
 228              		.cfi_offset 3, -8
 229              		.cfi_offset 14, -4
  54:Core/Src/i2c_slave.c ****     rxcount++;
 230              		.loc 1 54 5 is_stmt 1 view .LVU42
 231              		.loc 1 54 12 is_stmt 0 view .LVU43
 232 0002 0E4A     		ldr	r2, .L18
 233 0004 1368     		ldr	r3, [r2]
 234 0006 0133     		adds	r3, r3, #1
 235 0008 1360     		str	r3, [r2]
  55:Core/Src/i2c_slave.c ****     uint8_t cmd = RxData[0];
 236              		.loc 1 55 5 is_stmt 1 view .LVU44
 237              		.loc 1 55 13 is_stmt 0 view .LVU45
 238 000a 0D4B     		ldr	r3, .L18+4
 239 000c 1B78     		ldrb	r3, [r3]	@ zero_extendqisi2
 240              	.LVL18:
  56:Core/Src/i2c_slave.c **** 
  57:Core/Src/i2c_slave.c ****     if (cmd == 0x10) {
 241              		.loc 1 57 5 is_stmt 1 view .LVU46
 242              		.loc 1 57 8 is_stmt 0 view .LVU47
 243 000e 102B     		cmp	r3, #16
 244 0010 02D0     		beq	.L16
  58:Core/Src/i2c_slave.c ****         printf("Capture command received\r\n");
  59:Core/Src/i2c_slave.c ****         capture_requested = 1;
  60:Core/Src/i2c_slave.c ****     }
  61:Core/Src/i2c_slave.c ****     else if (cmd == 0x40) {
 245              		.loc 1 61 10 is_stmt 1 view .LVU48
 246              		.loc 1 61 13 is_stmt 0 view .LVU49
 247 0012 402B     		cmp	r3, #64
 248 0014 07D0     		beq	.L17
 249              	.LVL19:
 250              	.L12:
  62:Core/Src/i2c_slave.c ****         printf("SSDV stream requested\r\n");
  63:Core/Src/i2c_slave.c ****         send_all_packets = 1;
  64:Core/Src/i2c_slave.c ****         current_packet_index = 0;
  65:Core/Src/i2c_slave.c ****     }
  66:Core/Src/i2c_slave.c **** }
 251              		.loc 1 66 1 view .LVU50
 252 0016 08BD     		pop	{r3, pc}
 253              	.LVL20:
 254              	.L16:
ARM GAS  /tmp/cc6kAde8.s 			page 7


  58:Core/Src/i2c_slave.c ****         printf("Capture command received\r\n");
 255              		.loc 1 58 9 is_stmt 1 view .LVU51
 256 0018 0A48     		ldr	r0, .L18+8
 257              	.LVL21:
  58:Core/Src/i2c_slave.c ****         printf("Capture command received\r\n");
 258              		.loc 1 58 9 is_stmt 0 view .LVU52
 259 001a FFF7FEFF 		bl	puts
 260              	.LVL22:
  59:Core/Src/i2c_slave.c ****     }
 261              		.loc 1 59 9 is_stmt 1 view .LVU53
  59:Core/Src/i2c_slave.c ****     }
 262              		.loc 1 59 27 is_stmt 0 view .LVU54
 263 001e 0A4B     		ldr	r3, .L18+12
 264 0020 0122     		movs	r2, #1
 265 0022 1A70     		strb	r2, [r3]
 266 0024 F7E7     		b	.L12
 267              	.LVL23:
 268              	.L17:
  62:Core/Src/i2c_slave.c ****         printf("SSDV stream requested\r\n");
 269              		.loc 1 62 9 is_stmt 1 view .LVU55
 270 0026 0948     		ldr	r0, .L18+16
 271              	.LVL24:
  62:Core/Src/i2c_slave.c ****         printf("SSDV stream requested\r\n");
 272              		.loc 1 62 9 is_stmt 0 view .LVU56
 273 0028 FFF7FEFF 		bl	puts
 274              	.LVL25:
  63:Core/Src/i2c_slave.c ****         current_packet_index = 0;
 275              		.loc 1 63 9 is_stmt 1 view .LVU57
  63:Core/Src/i2c_slave.c ****         current_packet_index = 0;
 276              		.loc 1 63 26 is_stmt 0 view .LVU58
 277 002c 084B     		ldr	r3, .L18+20
 278 002e 0122     		movs	r2, #1
 279 0030 1A70     		strb	r2, [r3]
  64:Core/Src/i2c_slave.c ****     }
 280              		.loc 1 64 9 is_stmt 1 view .LVU59
  64:Core/Src/i2c_slave.c ****     }
 281              		.loc 1 64 30 is_stmt 0 view .LVU60
 282 0032 084B     		ldr	r3, .L18+24
 283 0034 0022     		movs	r2, #0
 284 0036 1A80     		strh	r2, [r3]	@ movhi
 285              		.loc 1 66 1 view .LVU61
 286 0038 EDE7     		b	.L12
 287              	.L19:
 288 003a 00BF     		.align	2
 289              	.L18:
 290 003c 00000000 		.word	rxcount
 291 0040 00000000 		.word	RxData
 292 0044 00000000 		.word	.LC1
 293 0048 00000000 		.word	capture_requested
 294 004c 1C000000 		.word	.LC2
 295 0050 00000000 		.word	send_all_packets
 296 0054 00000000 		.word	current_packet_index
 297              		.cfi_endproc
 298              	.LFE70:
 300              		.section	.text.HAL_I2C_ErrorCallback,"ax",%progbits
 301              		.align	1
 302              		.global	HAL_I2C_ErrorCallback
ARM GAS  /tmp/cc6kAde8.s 			page 8


 303              		.syntax unified
 304              		.thumb
 305              		.thumb_func
 307              	HAL_I2C_ErrorCallback:
 308              	.LVL26:
 309              	.LFB71:
  67:Core/Src/i2c_slave.c **** 
  68:Core/Src/i2c_slave.c **** 
  69:Core/Src/i2c_slave.c **** 
  70:Core/Src/i2c_slave.c **** void HAL_I2C_ErrorCallback(I2C_HandleTypeDef *hi2c)
  71:Core/Src/i2c_slave.c **** {
 310              		.loc 1 71 1 is_stmt 1 view -0
 311              		.cfi_startproc
 312              		@ args = 0, pretend = 0, frame = 0
 313              		@ frame_needed = 0, uses_anonymous_args = 0
 314              		.loc 1 71 1 is_stmt 0 view .LVU63
 315 0000 08B5     		push	{r3, lr}
 316              		.cfi_def_cfa_offset 8
 317              		.cfi_offset 3, -8
 318              		.cfi_offset 14, -4
  72:Core/Src/i2c_slave.c ****     HAL_I2C_EnableListen_IT(hi2c);
 319              		.loc 1 72 5 is_stmt 1 view .LVU64
 320 0002 FFF7FEFF 		bl	HAL_I2C_EnableListen_IT
 321              	.LVL27:
  73:Core/Src/i2c_slave.c **** }
 322              		.loc 1 73 1 is_stmt 0 view .LVU65
 323 0006 08BD     		pop	{r3, pc}
 324              		.cfi_endproc
 325              	.LFE71:
 327              		.global	rxcount
 328              		.section	.bss.rxcount,"aw",%nobits
 329              		.align	2
 332              	rxcount:
 333 0000 00000000 		.space	4
 334              		.global	RxData
 335              		.section	.bss.RxData,"aw",%nobits
 336              		.align	2
 339              	RxData:
 340 0000 00       		.space	1
 341              		.global	current_packet_index
 342              		.section	.bss.current_packet_index,"aw",%nobits
 343              		.align	1
 346              	current_packet_index:
 347 0000 0000     		.space	2
 348              		.global	send_all_packets
 349              		.section	.bss.send_all_packets,"aw",%nobits
 352              	send_all_packets:
 353 0000 00       		.space	1
 354              		.global	capture_requested
 355              		.section	.bss.capture_requested,"aw",%nobits
 358              	capture_requested:
 359 0000 00       		.space	1
 360              		.text
 361              	.Letext0:
 362              		.file 2 "/home/sarthak/.config/Code/User/globalStorage/bmd.stm32-for-vscode/@xpack-dev-tools/arm-n
 363              		.file 3 "/home/sarthak/.config/Code/User/globalStorage/bmd.stm32-for-vscode/@xpack-dev-tools/arm-n
 364              		.file 4 "Drivers/CMSIS/Device/ST/STM32F1xx/Include/stm32f103xb.h"
ARM GAS  /tmp/cc6kAde8.s 			page 9


 365              		.file 5 "Drivers/STM32F1xx_HAL_Driver/Inc/stm32f1xx_hal_def.h"
 366              		.file 6 "Drivers/STM32F1xx_HAL_Driver/Inc/stm32f1xx_hal_dma.h"
 367              		.file 7 "Drivers/STM32F1xx_HAL_Driver/Inc/stm32f1xx_hal_i2c.h"
 368              		.file 8 "Core/Inc/i2c_slave.h"
 369              		.file 9 "/home/sarthak/.config/Code/User/globalStorage/bmd.stm32-for-vscode/@xpack-dev-tools/arm-n
 370              		.file 10 "<built-in>"
 371              		.file 11 "libs/flash/flash.h"
ARM GAS  /tmp/cc6kAde8.s 			page 10

