ARM GAS  /tmp/ccAwUBCd.s 			page 1


   1              		.cpu cortex-m3
   2              		.eabi_attribute 20, 1
   3              		.eabi_attribute 21, 1
   4              		.eabi_attribute 23, 3
   5              		.eabi_attribute 24, 1
   6              		.eabi_attribute 25, 1
   7              		.eabi_attribute 26, 1
   8              		.eabi_attribute 30, 1
   9              		.eabi_attribute 34, 1
  10              		.eabi_attribute 18, 4
  11              		.file	"flash.c"
  12              		.text
  13              	.Ltext0:
  14              		.cfi_sections	.debug_frame
  15              		.section	.text.flash_cs_low,"ax",%progbits
  16              		.align	1
  17              		.global	flash_cs_low
  18              		.arch armv7-m
  19              		.syntax unified
  20              		.thumb
  21              		.thumb_func
  22              		.fpu softvfp
  24              	flash_cs_low:
  25              	.LFB65:
  26              		.file 1 "libs/flash/flash.c"
   1:libs/flash/flash.c **** #include "flash.h"
   2:libs/flash/flash.c **** #include "main.h"
   3:libs/flash/flash.c **** #include "spi.h"
   4:libs/flash/flash.c **** 
   5:libs/flash/flash.c **** extern SPI_HandleTypeDef hspi1;
   6:libs/flash/flash.c **** 
   7:libs/flash/flash.c **** void flash_cs_low(void) {
  27              		.loc 1 7 25 view -0
  28              		.cfi_startproc
  29              		@ args = 0, pretend = 0, frame = 0
  30              		@ frame_needed = 0, uses_anonymous_args = 0
  31 0000 08B5     		push	{r3, lr}
  32              	.LCFI0:
  33              		.cfi_def_cfa_offset 8
  34              		.cfi_offset 3, -8
  35              		.cfi_offset 14, -4
   8:libs/flash/flash.c ****     HAL_GPIO_WritePin(FLASH_CS_GPIO_Port, FLASH_CS_Pin, GPIO_PIN_RESET);
  36              		.loc 1 8 5 view .LVU1
  37 0002 0022     		movs	r2, #0
  38 0004 0821     		movs	r1, #8
  39 0006 0248     		ldr	r0, .L3
  40 0008 FFF7FEFF 		bl	HAL_GPIO_WritePin
  41              	.LVL0:
   9:libs/flash/flash.c **** }
  42              		.loc 1 9 1 is_stmt 0 view .LVU2
  43 000c 08BD     		pop	{r3, pc}
  44              	.L4:
  45 000e 00BF     		.align	2
  46              	.L3:
  47 0010 00080140 		.word	1073809408
  48              		.cfi_endproc
  49              	.LFE65:
ARM GAS  /tmp/ccAwUBCd.s 			page 2


  51              		.section	.text.flash_cs_high,"ax",%progbits
  52              		.align	1
  53              		.global	flash_cs_high
  54              		.syntax unified
  55              		.thumb
  56              		.thumb_func
  57              		.fpu softvfp
  59              	flash_cs_high:
  60              	.LFB66:
  10:libs/flash/flash.c **** 
  11:libs/flash/flash.c **** void flash_cs_high(void) {
  61              		.loc 1 11 26 is_stmt 1 view -0
  62              		.cfi_startproc
  63              		@ args = 0, pretend = 0, frame = 0
  64              		@ frame_needed = 0, uses_anonymous_args = 0
  65 0000 08B5     		push	{r3, lr}
  66              	.LCFI1:
  67              		.cfi_def_cfa_offset 8
  68              		.cfi_offset 3, -8
  69              		.cfi_offset 14, -4
  12:libs/flash/flash.c ****     HAL_GPIO_WritePin(FLASH_CS_GPIO_Port, FLASH_CS_Pin, GPIO_PIN_SET);
  70              		.loc 1 12 5 view .LVU4
  71 0002 0122     		movs	r2, #1
  72 0004 0821     		movs	r1, #8
  73 0006 0248     		ldr	r0, .L7
  74 0008 FFF7FEFF 		bl	HAL_GPIO_WritePin
  75              	.LVL1:
  13:libs/flash/flash.c **** }
  76              		.loc 1 13 1 is_stmt 0 view .LVU5
  77 000c 08BD     		pop	{r3, pc}
  78              	.L8:
  79 000e 00BF     		.align	2
  80              	.L7:
  81 0010 00080140 		.word	1073809408
  82              		.cfi_endproc
  83              	.LFE66:
  85              		.section	.text.flash_init,"ax",%progbits
  86              		.align	1
  87              		.global	flash_init
  88              		.syntax unified
  89              		.thumb
  90              		.thumb_func
  91              		.fpu softvfp
  93              	flash_init:
  94              	.LFB67:
  14:libs/flash/flash.c **** 
  15:libs/flash/flash.c **** void flash_init(void) {
  95              		.loc 1 15 23 is_stmt 1 view -0
  96              		.cfi_startproc
  97              		@ args = 0, pretend = 0, frame = 24
  98              		@ frame_needed = 0, uses_anonymous_args = 0
  99 0000 00B5     		push	{lr}
 100              	.LCFI2:
 101              		.cfi_def_cfa_offset 4
 102              		.cfi_offset 14, -4
 103 0002 87B0     		sub	sp, sp, #28
 104              	.LCFI3:
ARM GAS  /tmp/ccAwUBCd.s 			page 3


 105              		.cfi_def_cfa_offset 32
  16:libs/flash/flash.c ****     GPIO_InitTypeDef GPIO_InitStruct = {0};
 106              		.loc 1 16 5 view .LVU7
 107              		.loc 1 16 22 is_stmt 0 view .LVU8
 108 0004 0023     		movs	r3, #0
 109 0006 0293     		str	r3, [sp, #8]
 110 0008 0393     		str	r3, [sp, #12]
 111 000a 0493     		str	r3, [sp, #16]
 112 000c 0593     		str	r3, [sp, #20]
  17:libs/flash/flash.c **** 
  18:libs/flash/flash.c ****     // CS pin setup (manually handle)
  19:libs/flash/flash.c ****     __HAL_RCC_GPIOA_CLK_ENABLE(); // Or your actual port
 113              		.loc 1 19 5 is_stmt 1 view .LVU9
 114              	.LBB2:
 115              		.loc 1 19 5 view .LVU10
 116              		.loc 1 19 5 view .LVU11
 117 000e 03F18043 		add	r3, r3, #1073741824
 118 0012 03F50433 		add	r3, r3, #135168
 119 0016 9A69     		ldr	r2, [r3, #24]
 120 0018 42F00402 		orr	r2, r2, #4
 121 001c 9A61     		str	r2, [r3, #24]
 122              		.loc 1 19 5 view .LVU12
 123 001e 9B69     		ldr	r3, [r3, #24]
 124 0020 03F00403 		and	r3, r3, #4
 125 0024 0193     		str	r3, [sp, #4]
 126              		.loc 1 19 5 view .LVU13
 127 0026 019B     		ldr	r3, [sp, #4]
 128              	.LBE2:
 129              		.loc 1 19 5 view .LVU14
  20:libs/flash/flash.c **** 
  21:libs/flash/flash.c ****     GPIO_InitStruct.Pin = FLASH_CS_Pin;
 130              		.loc 1 21 5 view .LVU15
 131              		.loc 1 21 25 is_stmt 0 view .LVU16
 132 0028 0823     		movs	r3, #8
 133 002a 0293     		str	r3, [sp, #8]
  22:libs/flash/flash.c ****     GPIO_InitStruct.Mode = GPIO_MODE_OUTPUT_PP;
 134              		.loc 1 22 5 is_stmt 1 view .LVU17
 135              		.loc 1 22 26 is_stmt 0 view .LVU18
 136 002c 0123     		movs	r3, #1
 137 002e 0393     		str	r3, [sp, #12]
  23:libs/flash/flash.c ****     GPIO_InitStruct.Speed = GPIO_SPEED_FREQ_HIGH;
 138              		.loc 1 23 5 is_stmt 1 view .LVU19
 139              		.loc 1 23 27 is_stmt 0 view .LVU20
 140 0030 0323     		movs	r3, #3
 141 0032 0593     		str	r3, [sp, #20]
  24:libs/flash/flash.c ****     HAL_GPIO_Init(FLASH_CS_GPIO_Port, &GPIO_InitStruct);
 142              		.loc 1 24 5 is_stmt 1 view .LVU21
 143 0034 02A9     		add	r1, sp, #8
 144 0036 0448     		ldr	r0, .L11
 145 0038 FFF7FEFF 		bl	HAL_GPIO_Init
 146              	.LVL2:
  25:libs/flash/flash.c **** 
  26:libs/flash/flash.c ****     flash_cs_high(); // Deselect chip
 147              		.loc 1 26 5 view .LVU22
 148 003c FFF7FEFF 		bl	flash_cs_high
 149              	.LVL3:
  27:libs/flash/flash.c **** 
ARM GAS  /tmp/ccAwUBCd.s 			page 4


  28:libs/flash/flash.c **** }
 150              		.loc 1 28 1 is_stmt 0 view .LVU23
 151 0040 07B0     		add	sp, sp, #28
 152              	.LCFI4:
 153              		.cfi_def_cfa_offset 4
 154              		@ sp needed
 155 0042 5DF804FB 		ldr	pc, [sp], #4
 156              	.L12:
 157 0046 00BF     		.align	2
 158              	.L11:
 159 0048 00080140 		.word	1073809408
 160              		.cfi_endproc
 161              	.LFE67:
 163              		.section	.text.flash_deinit,"ax",%progbits
 164              		.align	1
 165              		.global	flash_deinit
 166              		.syntax unified
 167              		.thumb
 168              		.thumb_func
 169              		.fpu softvfp
 171              	flash_deinit:
 172              	.LFB68:
  29:libs/flash/flash.c **** 
  30:libs/flash/flash.c **** void flash_deinit(void) {
 173              		.loc 1 30 25 is_stmt 1 view -0
 174              		.cfi_startproc
 175              		@ args = 0, pretend = 0, frame = 0
 176              		@ frame_needed = 0, uses_anonymous_args = 0
 177 0000 08B5     		push	{r3, lr}
 178              	.LCFI5:
 179              		.cfi_def_cfa_offset 8
 180              		.cfi_offset 3, -8
 181              		.cfi_offset 14, -4
  31:libs/flash/flash.c ****     HAL_SPI_DeInit(&hspi1);
 182              		.loc 1 31 5 view .LVU25
 183 0002 0248     		ldr	r0, .L15
 184 0004 FFF7FEFF 		bl	HAL_SPI_DeInit
 185              	.LVL4:
  32:libs/flash/flash.c **** }
 186              		.loc 1 32 1 is_stmt 0 view .LVU26
 187 0008 08BD     		pop	{r3, pc}
 188              	.L16:
 189 000a 00BF     		.align	2
 190              	.L15:
 191 000c 00000000 		.word	hspi1
 192              		.cfi_endproc
 193              	.LFE68:
 195              		.section	.text.flash_send_byte,"ax",%progbits
 196              		.align	1
 197              		.global	flash_send_byte
 198              		.syntax unified
 199              		.thumb
 200              		.thumb_func
 201              		.fpu softvfp
 203              	flash_send_byte:
 204              	.LVL5:
 205              	.LFB69:
ARM GAS  /tmp/ccAwUBCd.s 			page 5


  33:libs/flash/flash.c **** 
  34:libs/flash/flash.c **** uint8_t flash_send_byte(uint8_t byte) {
 206              		.loc 1 34 39 is_stmt 1 view -0
 207              		.cfi_startproc
 208              		@ args = 0, pretend = 0, frame = 16
 209              		@ frame_needed = 0, uses_anonymous_args = 0
 210              		.loc 1 34 39 is_stmt 0 view .LVU28
 211 0000 00B5     		push	{lr}
 212              	.LCFI6:
 213              		.cfi_def_cfa_offset 4
 214              		.cfi_offset 14, -4
 215 0002 87B0     		sub	sp, sp, #28
 216              	.LCFI7:
 217              		.cfi_def_cfa_offset 32
 218 0004 8DF80F00 		strb	r0, [sp, #15]
  35:libs/flash/flash.c ****     uint8_t received = 0;
 219              		.loc 1 35 5 is_stmt 1 view .LVU29
 220              		.loc 1 35 13 is_stmt 0 view .LVU30
 221 0008 0023     		movs	r3, #0
 222 000a 8DF81730 		strb	r3, [sp, #23]
  36:libs/flash/flash.c ****     HAL_SPI_TransmitReceive(&hspi1, &byte, &received, 1, HAL_MAX_DELAY);
 223              		.loc 1 36 5 is_stmt 1 view .LVU31
 224 000e 4FF0FF33 		mov	r3, #-1
 225 0012 0093     		str	r3, [sp]
 226 0014 0123     		movs	r3, #1
 227 0016 0DF11702 		add	r2, sp, #23
 228 001a 0DF10F01 		add	r1, sp, #15
 229 001e 0448     		ldr	r0, .L19
 230              	.LVL6:
 231              		.loc 1 36 5 is_stmt 0 view .LVU32
 232 0020 FFF7FEFF 		bl	HAL_SPI_TransmitReceive
 233              	.LVL7:
  37:libs/flash/flash.c ****     return received;
 234              		.loc 1 37 5 is_stmt 1 view .LVU33
  38:libs/flash/flash.c **** }
 235              		.loc 1 38 1 is_stmt 0 view .LVU34
 236 0024 9DF81700 		ldrb	r0, [sp, #23]	@ zero_extendqisi2
 237 0028 07B0     		add	sp, sp, #28
 238              	.LCFI8:
 239              		.cfi_def_cfa_offset 4
 240              		@ sp needed
 241 002a 5DF804FB 		ldr	pc, [sp], #4
 242              	.L20:
 243 002e 00BF     		.align	2
 244              	.L19:
 245 0030 00000000 		.word	hspi1
 246              		.cfi_endproc
 247              	.LFE69:
 249              		.section	.text.FLASH_SendHalfWord,"ax",%progbits
 250              		.align	1
 251              		.global	FLASH_SendHalfWord
 252              		.syntax unified
 253              		.thumb
 254              		.thumb_func
 255              		.fpu softvfp
 257              	FLASH_SendHalfWord:
 258              	.LVL8:
ARM GAS  /tmp/ccAwUBCd.s 			page 6


 259              	.LFB70:
  39:libs/flash/flash.c **** 
  40:libs/flash/flash.c **** uint16_t FLASH_SendHalfWord(uint16_t HalfWord) {
 260              		.loc 1 40 48 is_stmt 1 view -0
 261              		.cfi_startproc
 262              		@ args = 0, pretend = 0, frame = 16
 263              		@ frame_needed = 0, uses_anonymous_args = 0
 264              		.loc 1 40 48 is_stmt 0 view .LVU36
 265 0000 00B5     		push	{lr}
 266              	.LCFI9:
 267              		.cfi_def_cfa_offset 4
 268              		.cfi_offset 14, -4
 269 0002 87B0     		sub	sp, sp, #28
 270              	.LCFI10:
 271              		.cfi_def_cfa_offset 32
 272 0004 ADF80E00 		strh	r0, [sp, #14]	@ movhi
  41:libs/flash/flash.c ****     uint16_t received = 0;
 273              		.loc 1 41 5 is_stmt 1 view .LVU37
 274              		.loc 1 41 14 is_stmt 0 view .LVU38
 275 0008 0023     		movs	r3, #0
 276 000a ADF81630 		strh	r3, [sp, #22]	@ movhi
  42:libs/flash/flash.c ****     HAL_SPI_TransmitReceive(&hspi1, (uint8_t*)&HalfWord, (uint8_t*)&received, 1, HAL_MAX_DELAY);
 277              		.loc 1 42 5 is_stmt 1 view .LVU39
 278 000e 4FF0FF33 		mov	r3, #-1
 279 0012 0093     		str	r3, [sp]
 280 0014 0123     		movs	r3, #1
 281 0016 0DF11602 		add	r2, sp, #22
 282 001a 0DF10E01 		add	r1, sp, #14
 283 001e 0448     		ldr	r0, .L23
 284              	.LVL9:
 285              		.loc 1 42 5 is_stmt 0 view .LVU40
 286 0020 FFF7FEFF 		bl	HAL_SPI_TransmitReceive
 287              	.LVL10:
  43:libs/flash/flash.c ****     return received;
 288              		.loc 1 43 5 is_stmt 1 view .LVU41
  44:libs/flash/flash.c **** }
 289              		.loc 1 44 1 is_stmt 0 view .LVU42
 290 0024 BDF81600 		ldrh	r0, [sp, #22]
 291 0028 07B0     		add	sp, sp, #28
 292              	.LCFI11:
 293              		.cfi_def_cfa_offset 4
 294              		@ sp needed
 295 002a 5DF804FB 		ldr	pc, [sp], #4
 296              	.L24:
 297 002e 00BF     		.align	2
 298              	.L23:
 299 0030 00000000 		.word	hspi1
 300              		.cfi_endproc
 301              	.LFE70:
 303              		.section	.text.flash_write_enable,"ax",%progbits
 304              		.align	1
 305              		.global	flash_write_enable
 306              		.syntax unified
 307              		.thumb
 308              		.thumb_func
 309              		.fpu softvfp
 311              	flash_write_enable:
ARM GAS  /tmp/ccAwUBCd.s 			page 7


 312              	.LFB71:
  45:libs/flash/flash.c **** 
  46:libs/flash/flash.c **** void flash_write_enable(void) {
 313              		.loc 1 46 31 is_stmt 1 view -0
 314              		.cfi_startproc
 315              		@ args = 0, pretend = 0, frame = 0
 316              		@ frame_needed = 0, uses_anonymous_args = 0
 317 0000 08B5     		push	{r3, lr}
 318              	.LCFI12:
 319              		.cfi_def_cfa_offset 8
 320              		.cfi_offset 3, -8
 321              		.cfi_offset 14, -4
  47:libs/flash/flash.c ****     flash_cs_low();
 322              		.loc 1 47 5 view .LVU44
 323 0002 FFF7FEFF 		bl	flash_cs_low
 324              	.LVL11:
  48:libs/flash/flash.c ****     flash_send_byte(FLASH_CMD_WREN);
 325              		.loc 1 48 5 view .LVU45
 326 0006 0620     		movs	r0, #6
 327 0008 FFF7FEFF 		bl	flash_send_byte
 328              	.LVL12:
  49:libs/flash/flash.c ****     flash_cs_high();
 329              		.loc 1 49 5 view .LVU46
 330 000c FFF7FEFF 		bl	flash_cs_high
 331              	.LVL13:
  50:libs/flash/flash.c **** }
 332              		.loc 1 50 1 is_stmt 0 view .LVU47
 333 0010 08BD     		pop	{r3, pc}
 334              		.cfi_endproc
 335              	.LFE71:
 337              		.section	.text.flash_wait_for_write_end,"ax",%progbits
 338              		.align	1
 339              		.global	flash_wait_for_write_end
 340              		.syntax unified
 341              		.thumb
 342              		.thumb_func
 343              		.fpu softvfp
 345              	flash_wait_for_write_end:
 346              	.LFB72:
  51:libs/flash/flash.c **** 
  52:libs/flash/flash.c **** void flash_wait_for_write_end(void) {
 347              		.loc 1 52 37 is_stmt 1 view -0
 348              		.cfi_startproc
 349              		@ args = 0, pretend = 0, frame = 0
 350              		@ frame_needed = 0, uses_anonymous_args = 0
 351 0000 08B5     		push	{r3, lr}
 352              	.LCFI13:
 353              		.cfi_def_cfa_offset 8
 354              		.cfi_offset 3, -8
 355              		.cfi_offset 14, -4
  53:libs/flash/flash.c ****     uint8_t status = 0;
 356              		.loc 1 53 5 view .LVU49
 357              	.LVL14:
  54:libs/flash/flash.c **** 
  55:libs/flash/flash.c ****     flash_cs_low();
 358              		.loc 1 55 5 view .LVU50
 359 0002 FFF7FEFF 		bl	flash_cs_low
ARM GAS  /tmp/ccAwUBCd.s 			page 8


 360              	.LVL15:
  56:libs/flash/flash.c ****     flash_send_byte(FLASH_CMD_RDSR);
 361              		.loc 1 56 5 view .LVU51
 362 0006 0520     		movs	r0, #5
 363 0008 FFF7FEFF 		bl	flash_send_byte
 364              	.LVL16:
 365              	.L28:
  57:libs/flash/flash.c **** 
  58:libs/flash/flash.c ****     do {
 366              		.loc 1 58 5 discriminator 1 view .LVU52
  59:libs/flash/flash.c ****         status = flash_send_byte(FLASH_DUMMY_BYTE);
 367              		.loc 1 59 9 discriminator 1 view .LVU53
 368              		.loc 1 59 18 is_stmt 0 discriminator 1 view .LVU54
 369 000c A520     		movs	r0, #165
 370 000e FFF7FEFF 		bl	flash_send_byte
 371              	.LVL17:
  60:libs/flash/flash.c ****     } while ((status & FLASH_WIP_FLAG) == SET);
 372              		.loc 1 60 13 is_stmt 1 discriminator 1 view .LVU55
 373              		.loc 1 60 5 is_stmt 0 discriminator 1 view .LVU56
 374 0012 10F0010F 		tst	r0, #1
 375 0016 F9D1     		bne	.L28
  61:libs/flash/flash.c **** 
  62:libs/flash/flash.c ****     flash_cs_high();
 376              		.loc 1 62 5 is_stmt 1 view .LVU57
 377 0018 FFF7FEFF 		bl	flash_cs_high
 378              	.LVL18:
  63:libs/flash/flash.c **** }
 379              		.loc 1 63 1 is_stmt 0 view .LVU58
 380 001c 08BD     		pop	{r3, pc}
 381              		.cfi_endproc
 382              	.LFE72:
 384              		.section	.text.flash_erase_sector,"ax",%progbits
 385              		.align	1
 386              		.global	flash_erase_sector
 387              		.syntax unified
 388              		.thumb
 389              		.thumb_func
 390              		.fpu softvfp
 392              	flash_erase_sector:
 393              	.LVL19:
 394              	.LFB73:
  64:libs/flash/flash.c **** 
  65:libs/flash/flash.c **** void flash_erase_sector(uint32_t SectorAddr) {
 395              		.loc 1 65 46 is_stmt 1 view -0
 396              		.cfi_startproc
 397              		@ args = 0, pretend = 0, frame = 0
 398              		@ frame_needed = 0, uses_anonymous_args = 0
 399              		.loc 1 65 46 is_stmt 0 view .LVU60
 400 0000 10B5     		push	{r4, lr}
 401              	.LCFI14:
 402              		.cfi_def_cfa_offset 8
 403              		.cfi_offset 4, -8
 404              		.cfi_offset 14, -4
 405 0002 0446     		mov	r4, r0
  66:libs/flash/flash.c ****     flash_write_enable();
 406              		.loc 1 66 5 is_stmt 1 view .LVU61
 407 0004 FFF7FEFF 		bl	flash_write_enable
ARM GAS  /tmp/ccAwUBCd.s 			page 9


 408              	.LVL20:
  67:libs/flash/flash.c ****     flash_cs_low();
 409              		.loc 1 67 5 view .LVU62
 410 0008 FFF7FEFF 		bl	flash_cs_low
 411              	.LVL21:
  68:libs/flash/flash.c ****     flash_send_byte(FLASH_CMD_SE);
 412              		.loc 1 68 5 view .LVU63
 413 000c 2020     		movs	r0, #32
 414 000e FFF7FEFF 		bl	flash_send_byte
 415              	.LVL22:
  69:libs/flash/flash.c ****     flash_send_byte((SectorAddr & 0xFF0000) >> 16);
 416              		.loc 1 69 5 view .LVU64
 417 0012 C4F30740 		ubfx	r0, r4, #16, #8
 418 0016 FFF7FEFF 		bl	flash_send_byte
 419              	.LVL23:
  70:libs/flash/flash.c ****     flash_send_byte((SectorAddr & 0xFF00) >> 8);
 420              		.loc 1 70 5 view .LVU65
 421 001a C4F30720 		ubfx	r0, r4, #8, #8
 422 001e FFF7FEFF 		bl	flash_send_byte
 423              	.LVL24:
  71:libs/flash/flash.c ****     flash_send_byte(SectorAddr & 0xFF);
 424              		.loc 1 71 5 view .LVU66
 425 0022 E0B2     		uxtb	r0, r4
 426 0024 FFF7FEFF 		bl	flash_send_byte
 427              	.LVL25:
  72:libs/flash/flash.c ****     flash_cs_high();
 428              		.loc 1 72 5 view .LVU67
 429 0028 FFF7FEFF 		bl	flash_cs_high
 430              	.LVL26:
  73:libs/flash/flash.c ****     flash_wait_for_write_end();
 431              		.loc 1 73 5 view .LVU68
 432 002c FFF7FEFF 		bl	flash_wait_for_write_end
 433              	.LVL27:
  74:libs/flash/flash.c **** }
 434              		.loc 1 74 1 is_stmt 0 view .LVU69
 435 0030 10BD     		pop	{r4, pc}
 436              		.loc 1 74 1 view .LVU70
 437              		.cfi_endproc
 438              	.LFE73:
 440              		.section	.text.flash_erase_block,"ax",%progbits
 441              		.align	1
 442              		.global	flash_erase_block
 443              		.syntax unified
 444              		.thumb
 445              		.thumb_func
 446              		.fpu softvfp
 448              	flash_erase_block:
 449              	.LFB74:
  75:libs/flash/flash.c **** 
  76:libs/flash/flash.c **** void flash_erase_block(void) {
 450              		.loc 1 76 30 is_stmt 1 view -0
 451              		.cfi_startproc
 452              		@ args = 0, pretend = 0, frame = 0
 453              		@ frame_needed = 0, uses_anonymous_args = 0
 454 0000 08B5     		push	{r3, lr}
 455              	.LCFI15:
 456              		.cfi_def_cfa_offset 8
ARM GAS  /tmp/ccAwUBCd.s 			page 10


 457              		.cfi_offset 3, -8
 458              		.cfi_offset 14, -4
  77:libs/flash/flash.c ****     flash_write_enable();
 459              		.loc 1 77 5 view .LVU72
 460 0002 FFF7FEFF 		bl	flash_write_enable
 461              	.LVL28:
  78:libs/flash/flash.c ****     flash_cs_low();
 462              		.loc 1 78 5 view .LVU73
 463 0006 FFF7FEFF 		bl	flash_cs_low
 464              	.LVL29:
  79:libs/flash/flash.c ****     flash_send_byte(FLASH_CMD_BE);
 465              		.loc 1 79 5 view .LVU74
 466 000a C720     		movs	r0, #199
 467 000c FFF7FEFF 		bl	flash_send_byte
 468              	.LVL30:
  80:libs/flash/flash.c ****     flash_cs_high();
 469              		.loc 1 80 5 view .LVU75
 470 0010 FFF7FEFF 		bl	flash_cs_high
 471              	.LVL31:
  81:libs/flash/flash.c ****     flash_wait_for_write_end();
 472              		.loc 1 81 5 view .LVU76
 473 0014 FFF7FEFF 		bl	flash_wait_for_write_end
 474              	.LVL32:
  82:libs/flash/flash.c **** }
 475              		.loc 1 82 1 is_stmt 0 view .LVU77
 476 0018 08BD     		pop	{r3, pc}
 477              		.cfi_endproc
 478              	.LFE74:
 480              		.section	.text.flash_write_page,"ax",%progbits
 481              		.align	1
 482              		.global	flash_write_page
 483              		.syntax unified
 484              		.thumb
 485              		.thumb_func
 486              		.fpu softvfp
 488              	flash_write_page:
 489              	.LVL33:
 490              	.LFB75:
  83:libs/flash/flash.c **** 
  84:libs/flash/flash.c **** void flash_write_page(uint8_t *pBuffer, uint32_t WriteAddr, uint16_t NumByteToWrite) {
 491              		.loc 1 84 86 is_stmt 1 view -0
 492              		.cfi_startproc
 493              		@ args = 0, pretend = 0, frame = 0
 494              		@ frame_needed = 0, uses_anonymous_args = 0
 495              		.loc 1 84 86 is_stmt 0 view .LVU79
 496 0000 70B5     		push	{r4, r5, r6, lr}
 497              	.LCFI16:
 498              		.cfi_def_cfa_offset 16
 499              		.cfi_offset 4, -16
 500              		.cfi_offset 5, -12
 501              		.cfi_offset 6, -8
 502              		.cfi_offset 14, -4
 503 0002 0646     		mov	r6, r0
 504 0004 0C46     		mov	r4, r1
 505 0006 1546     		mov	r5, r2
  85:libs/flash/flash.c ****     flash_write_enable();
 506              		.loc 1 85 5 is_stmt 1 view .LVU80
ARM GAS  /tmp/ccAwUBCd.s 			page 11


 507 0008 FFF7FEFF 		bl	flash_write_enable
 508              	.LVL34:
  86:libs/flash/flash.c ****     flash_cs_low();
 509              		.loc 1 86 5 view .LVU81
 510 000c FFF7FEFF 		bl	flash_cs_low
 511              	.LVL35:
  87:libs/flash/flash.c ****     flash_send_byte(FLASH_CMD_WRITE);
 512              		.loc 1 87 5 view .LVU82
 513 0010 0220     		movs	r0, #2
 514 0012 FFF7FEFF 		bl	flash_send_byte
 515              	.LVL36:
  88:libs/flash/flash.c ****     flash_send_byte((WriteAddr & 0xFF0000) >> 16);
 516              		.loc 1 88 5 view .LVU83
 517 0016 C4F30740 		ubfx	r0, r4, #16, #8
 518 001a FFF7FEFF 		bl	flash_send_byte
 519              	.LVL37:
  89:libs/flash/flash.c ****     flash_send_byte((WriteAddr & 0xFF00) >> 8);
 520              		.loc 1 89 5 view .LVU84
 521 001e C4F30720 		ubfx	r0, r4, #8, #8
 522 0022 FFF7FEFF 		bl	flash_send_byte
 523              	.LVL38:
  90:libs/flash/flash.c ****     flash_send_byte(WriteAddr & 0xFF);
 524              		.loc 1 90 5 view .LVU85
 525 0026 E0B2     		uxtb	r0, r4
 526 0028 FFF7FEFF 		bl	flash_send_byte
 527              	.LVL39:
  91:libs/flash/flash.c **** 
  92:libs/flash/flash.c ****     for (uint16_t i = 0; i < NumByteToWrite; i++) {
 528              		.loc 1 92 5 view .LVU86
 529              	.LBB3:
 530              		.loc 1 92 10 view .LVU87
 531              		.loc 1 92 19 is_stmt 0 view .LVU88
 532 002c 0024     		movs	r4, #0
 533              	.LVL40:
 534              		.loc 1 92 5 view .LVU89
 535 002e 04E0     		b	.L35
 536              	.LVL41:
 537              	.L36:
  93:libs/flash/flash.c ****         flash_send_byte(pBuffer[i]);
 538              		.loc 1 93 9 is_stmt 1 discriminator 3 view .LVU90
 539 0030 305D     		ldrb	r0, [r6, r4]	@ zero_extendqisi2
 540 0032 FFF7FEFF 		bl	flash_send_byte
 541              	.LVL42:
  92:libs/flash/flash.c ****         flash_send_byte(pBuffer[i]);
 542              		.loc 1 92 46 discriminator 3 view .LVU91
  92:libs/flash/flash.c ****         flash_send_byte(pBuffer[i]);
 543              		.loc 1 92 47 is_stmt 0 discriminator 3 view .LVU92
 544 0036 0134     		adds	r4, r4, #1
 545              	.LVL43:
  92:libs/flash/flash.c ****         flash_send_byte(pBuffer[i]);
 546              		.loc 1 92 47 discriminator 3 view .LVU93
 547 0038 A4B2     		uxth	r4, r4
 548              	.LVL44:
 549              	.L35:
  92:libs/flash/flash.c ****         flash_send_byte(pBuffer[i]);
 550              		.loc 1 92 26 is_stmt 1 discriminator 1 view .LVU94
  92:libs/flash/flash.c ****         flash_send_byte(pBuffer[i]);
ARM GAS  /tmp/ccAwUBCd.s 			page 12


 551              		.loc 1 92 5 is_stmt 0 discriminator 1 view .LVU95
 552 003a AC42     		cmp	r4, r5
 553 003c F8D3     		bcc	.L36
 554              	.LBE3:
  94:libs/flash/flash.c ****     }
  95:libs/flash/flash.c **** 
  96:libs/flash/flash.c ****     flash_cs_high();
 555              		.loc 1 96 5 is_stmt 1 view .LVU96
 556 003e FFF7FEFF 		bl	flash_cs_high
 557              	.LVL45:
  97:libs/flash/flash.c ****     flash_wait_for_write_end();
 558              		.loc 1 97 5 view .LVU97
 559 0042 FFF7FEFF 		bl	flash_wait_for_write_end
 560              	.LVL46:
  98:libs/flash/flash.c **** }
 561              		.loc 1 98 1 is_stmt 0 view .LVU98
 562 0046 70BD     		pop	{r4, r5, r6, pc}
 563              		.loc 1 98 1 view .LVU99
 564              		.cfi_endproc
 565              	.LFE75:
 567              		.section	.text.flash_write_buffer,"ax",%progbits
 568              		.align	1
 569              		.global	flash_write_buffer
 570              		.syntax unified
 571              		.thumb
 572              		.thumb_func
 573              		.fpu softvfp
 575              	flash_write_buffer:
 576              	.LVL47:
 577              	.LFB76:
  99:libs/flash/flash.c **** 
 100:libs/flash/flash.c **** void flash_write_buffer(uint8_t *pBuffer, uint32_t WriteAddr, uint16_t NumByteToWrite) {
 578              		.loc 1 100 88 is_stmt 1 view -0
 579              		.cfi_startproc
 580              		@ args = 0, pretend = 0, frame = 0
 581              		@ frame_needed = 0, uses_anonymous_args = 0
 582              		.loc 1 100 88 is_stmt 0 view .LVU101
 583 0000 2DE9F843 		push	{r3, r4, r5, r6, r7, r8, r9, lr}
 584              	.LCFI17:
 585              		.cfi_def_cfa_offset 32
 586              		.cfi_offset 3, -32
 587              		.cfi_offset 4, -28
 588              		.cfi_offset 5, -24
 589              		.cfi_offset 6, -20
 590              		.cfi_offset 7, -16
 591              		.cfi_offset 8, -12
 592              		.cfi_offset 9, -8
 593              		.cfi_offset 14, -4
 594 0004 0546     		mov	r5, r0
 595 0006 0C46     		mov	r4, r1
 596 0008 1746     		mov	r7, r2
 101:libs/flash/flash.c ****     uint8_t NumOfPage = 0, NumOfSingle = 0, Addr = 0, count = 0, temp = 0;
 597              		.loc 1 101 5 is_stmt 1 view .LVU102
 598              	.LVL48:
 102:libs/flash/flash.c **** 
 103:libs/flash/flash.c ****     Addr = WriteAddr % FLASH_SPI_PAGESIZE;
 599              		.loc 1 103 5 view .LVU103
ARM GAS  /tmp/ccAwUBCd.s 			page 13


 600              		.loc 1 103 10 is_stmt 0 view .LVU104
 601 000a CBB2     		uxtb	r3, r1
 602              	.LVL49:
 104:libs/flash/flash.c ****     count = FLASH_SPI_PAGESIZE - Addr;
 603              		.loc 1 104 5 is_stmt 1 view .LVU105
 105:libs/flash/flash.c ****     NumOfPage = NumByteToWrite / FLASH_SPI_PAGESIZE;
 604              		.loc 1 105 5 view .LVU106
 605              		.loc 1 105 15 is_stmt 0 view .LVU107
 606 000c 110A     		lsrs	r1, r2, #8
 607              	.LVL50:
 106:libs/flash/flash.c ****     NumOfSingle = NumByteToWrite % FLASH_SPI_PAGESIZE;
 608              		.loc 1 106 5 is_stmt 1 view .LVU108
 107:libs/flash/flash.c **** 
 108:libs/flash/flash.c ****     if (Addr == 0) {
 609              		.loc 1 108 5 view .LVU109
 610              		.loc 1 108 8 is_stmt 0 view .LVU110
 611 000e D3B9     		cbnz	r3, .L39
 109:libs/flash/flash.c ****         if (NumOfPage == 0) {
 612              		.loc 1 109 9 is_stmt 1 view .LVU111
 613              		.loc 1 109 12 is_stmt 0 view .LVU112
 614 0010 71B9     		cbnz	r1, .L40
 110:libs/flash/flash.c ****             flash_write_page(pBuffer, WriteAddr, NumByteToWrite);
 615              		.loc 1 110 13 is_stmt 1 view .LVU113
 616 0012 2146     		mov	r1, r4
 617              	.LVL51:
 618              		.loc 1 110 13 is_stmt 0 view .LVU114
 619 0014 FFF7FEFF 		bl	flash_write_page
 620              	.LVL52:
 621              		.loc 1 110 13 view .LVU115
 622 0018 13E0     		b	.L38
 623              	.LVL53:
 624              	.L42:
 111:libs/flash/flash.c ****         } else {
 112:libs/flash/flash.c ****             while (NumOfPage--) {
 113:libs/flash/flash.c ****                 flash_write_page(pBuffer, WriteAddr, FLASH_SPI_PAGESIZE);
 625              		.loc 1 113 17 is_stmt 1 view .LVU116
 626 001a 4FF48072 		mov	r2, #256
 627 001e 2146     		mov	r1, r4
 628 0020 2846     		mov	r0, r5
 629 0022 FFF7FEFF 		bl	flash_write_page
 630              	.LVL54:
 114:libs/flash/flash.c ****                 WriteAddr += FLASH_SPI_PAGESIZE;
 631              		.loc 1 114 17 view .LVU117
 632              		.loc 1 114 27 is_stmt 0 view .LVU118
 633 0026 04F58074 		add	r4, r4, #256
 634              	.LVL55:
 115:libs/flash/flash.c ****                 pBuffer += FLASH_SPI_PAGESIZE;
 635              		.loc 1 115 17 is_stmt 1 view .LVU119
 636              		.loc 1 115 25 is_stmt 0 view .LVU120
 637 002a 05F58075 		add	r5, r5, #256
 638              	.LVL56:
 112:libs/flash/flash.c ****                 flash_write_page(pBuffer, WriteAddr, FLASH_SPI_PAGESIZE);
 639              		.loc 1 112 29 view .LVU121
 640 002e 3146     		mov	r1, r6
 641              	.LVL57:
 642              	.L40:
 112:libs/flash/flash.c ****                 flash_write_page(pBuffer, WriteAddr, FLASH_SPI_PAGESIZE);
ARM GAS  /tmp/ccAwUBCd.s 			page 14


 643              		.loc 1 112 19 is_stmt 1 view .LVU122
 112:libs/flash/flash.c ****                 flash_write_page(pBuffer, WriteAddr, FLASH_SPI_PAGESIZE);
 644              		.loc 1 112 29 is_stmt 0 view .LVU123
 645 0030 4B1E     		subs	r3, r1, #1
 646 0032 DEB2     		uxtb	r6, r3
 647              	.LVL58:
 112:libs/flash/flash.c ****                 flash_write_page(pBuffer, WriteAddr, FLASH_SPI_PAGESIZE);
 648              		.loc 1 112 19 view .LVU124
 649 0034 0029     		cmp	r1, #0
 650 0036 F0D1     		bne	.L42
 116:libs/flash/flash.c ****             }
 117:libs/flash/flash.c ****             flash_write_page(pBuffer, WriteAddr, NumOfSingle);
 651              		.loc 1 117 13 is_stmt 1 view .LVU125
 652 0038 FAB2     		uxtb	r2, r7
 653 003a 2146     		mov	r1, r4
 654 003c 2846     		mov	r0, r5
 655 003e FFF7FEFF 		bl	flash_write_page
 656              	.LVL59:
 657              	.L38:
 118:libs/flash/flash.c ****         }
 119:libs/flash/flash.c ****     } else {
 120:libs/flash/flash.c ****         if (NumOfPage == 0) {
 121:libs/flash/flash.c ****             if (NumOfSingle > count) {
 122:libs/flash/flash.c ****                 temp = NumOfSingle - count;
 123:libs/flash/flash.c ****                 flash_write_page(pBuffer, WriteAddr, count);
 124:libs/flash/flash.c ****                 WriteAddr += count;
 125:libs/flash/flash.c ****                 pBuffer += count;
 126:libs/flash/flash.c ****                 flash_write_page(pBuffer, WriteAddr, temp);
 127:libs/flash/flash.c ****             } else {
 128:libs/flash/flash.c ****                 flash_write_page(pBuffer, WriteAddr, NumByteToWrite);
 129:libs/flash/flash.c ****             }
 130:libs/flash/flash.c ****         } else {
 131:libs/flash/flash.c ****             NumByteToWrite -= count;
 132:libs/flash/flash.c ****             NumOfPage = NumByteToWrite / FLASH_SPI_PAGESIZE;
 133:libs/flash/flash.c ****             NumOfSingle = NumByteToWrite % FLASH_SPI_PAGESIZE;
 134:libs/flash/flash.c **** 
 135:libs/flash/flash.c ****             flash_write_page(pBuffer, WriteAddr, count);
 136:libs/flash/flash.c ****             WriteAddr += count;
 137:libs/flash/flash.c ****             pBuffer += count;
 138:libs/flash/flash.c **** 
 139:libs/flash/flash.c ****             while (NumOfPage--) {
 140:libs/flash/flash.c ****                 flash_write_page(pBuffer, WriteAddr, FLASH_SPI_PAGESIZE);
 141:libs/flash/flash.c ****                 WriteAddr += FLASH_SPI_PAGESIZE;
 142:libs/flash/flash.c ****                 pBuffer += FLASH_SPI_PAGESIZE;
 143:libs/flash/flash.c ****             }
 144:libs/flash/flash.c **** 
 145:libs/flash/flash.c ****             if (NumOfSingle != 0) {
 146:libs/flash/flash.c ****                 flash_write_page(pBuffer, WriteAddr, NumOfSingle);
 147:libs/flash/flash.c ****             }
 148:libs/flash/flash.c ****         }
 149:libs/flash/flash.c ****     }
 150:libs/flash/flash.c **** }
 658              		.loc 1 150 1 is_stmt 0 view .LVU126
 659 0042 BDE8F883 		pop	{r3, r4, r5, r6, r7, r8, r9, pc}
 660              	.LVL60:
 661              	.L39:
 662              		.loc 1 150 1 view .LVU127
ARM GAS  /tmp/ccAwUBCd.s 			page 15


 663 0046 C3F10008 		rsb	r8, r3, #0
 664 004a 5FFA88F8 		uxtb	r8, r8
 665 004e D6B2     		uxtb	r6, r2
 120:libs/flash/flash.c ****             if (NumOfSingle > count) {
 666              		.loc 1 120 9 is_stmt 1 view .LVU128
 120:libs/flash/flash.c ****             if (NumOfSingle > count) {
 667              		.loc 1 120 12 is_stmt 0 view .LVU129
 668 0050 99B9     		cbnz	r1, .L43
 121:libs/flash/flash.c ****                 temp = NumOfSingle - count;
 669              		.loc 1 121 13 is_stmt 1 view .LVU130
 121:libs/flash/flash.c ****                 temp = NumOfSingle - count;
 670              		.loc 1 121 16 is_stmt 0 view .LVU131
 671 0052 B045     		cmp	r8, r6
 672 0054 0DD2     		bcs	.L44
 122:libs/flash/flash.c ****                 flash_write_page(pBuffer, WriteAddr, count);
 673              		.loc 1 122 17 is_stmt 1 view .LVU132
 122:libs/flash/flash.c ****                 flash_write_page(pBuffer, WriteAddr, count);
 674              		.loc 1 122 22 is_stmt 0 view .LVU133
 675 0056 3344     		add	r3, r3, r6
 676              	.LVL61:
 122:libs/flash/flash.c ****                 flash_write_page(pBuffer, WriteAddr, count);
 677              		.loc 1 122 22 view .LVU134
 678 0058 DEB2     		uxtb	r6, r3
 679              	.LVL62:
 123:libs/flash/flash.c ****                 WriteAddr += count;
 680              		.loc 1 123 17 is_stmt 1 view .LVU135
 681 005a 4246     		mov	r2, r8
 682              	.LVL63:
 123:libs/flash/flash.c ****                 WriteAddr += count;
 683              		.loc 1 123 17 is_stmt 0 view .LVU136
 684 005c 2146     		mov	r1, r4
 685              	.LVL64:
 123:libs/flash/flash.c ****                 WriteAddr += count;
 686              		.loc 1 123 17 view .LVU137
 687 005e FFF7FEFF 		bl	flash_write_page
 688              	.LVL65:
 124:libs/flash/flash.c ****                 pBuffer += count;
 689              		.loc 1 124 17 is_stmt 1 view .LVU138
 125:libs/flash/flash.c ****                 flash_write_page(pBuffer, WriteAddr, temp);
 690              		.loc 1 125 17 view .LVU139
 126:libs/flash/flash.c ****             } else {
 691              		.loc 1 126 17 view .LVU140
 692 0062 3246     		mov	r2, r6
 693 0064 08EB0401 		add	r1, r8, r4
 694              	.LVL66:
 126:libs/flash/flash.c ****             } else {
 695              		.loc 1 126 17 is_stmt 0 view .LVU141
 696 0068 05EB0800 		add	r0, r5, r8
 697              	.LVL67:
 126:libs/flash/flash.c ****             } else {
 698              		.loc 1 126 17 view .LVU142
 699 006c FFF7FEFF 		bl	flash_write_page
 700              	.LVL68:
 126:libs/flash/flash.c ****             } else {
 701              		.loc 1 126 17 view .LVU143
 702 0070 E7E7     		b	.L38
 703              	.LVL69:
ARM GAS  /tmp/ccAwUBCd.s 			page 16


 704              	.L44:
 128:libs/flash/flash.c ****             }
 705              		.loc 1 128 17 is_stmt 1 view .LVU144
 706 0072 2146     		mov	r1, r4
 707              	.LVL70:
 128:libs/flash/flash.c ****             }
 708              		.loc 1 128 17 is_stmt 0 view .LVU145
 709 0074 FFF7FEFF 		bl	flash_write_page
 710              	.LVL71:
 128:libs/flash/flash.c ****             }
 711              		.loc 1 128 17 view .LVU146
 712 0078 E3E7     		b	.L38
 713              	.LVL72:
 714              	.L43:
 131:libs/flash/flash.c ****             NumOfPage = NumByteToWrite / FLASH_SPI_PAGESIZE;
 715              		.loc 1 131 13 is_stmt 1 view .LVU147
 131:libs/flash/flash.c ****             NumOfPage = NumByteToWrite / FLASH_SPI_PAGESIZE;
 716              		.loc 1 131 28 is_stmt 0 view .LVU148
 717 007a A2EB0807 		sub	r7, r2, r8
 718 007e 1FFA87F9 		uxth	r9, r7
 719              	.LVL73:
 132:libs/flash/flash.c ****             NumOfSingle = NumByteToWrite % FLASH_SPI_PAGESIZE;
 720              		.loc 1 132 13 is_stmt 1 view .LVU149
 132:libs/flash/flash.c ****             NumOfSingle = NumByteToWrite % FLASH_SPI_PAGESIZE;
 721              		.loc 1 132 23 is_stmt 0 view .LVU150
 722 0082 C7F30726 		ubfx	r6, r7, #8, #8
 723              	.LVL74:
 133:libs/flash/flash.c **** 
 724              		.loc 1 133 13 is_stmt 1 view .LVU151
 133:libs/flash/flash.c **** 
 725              		.loc 1 133 25 is_stmt 0 view .LVU152
 726 0086 FFB2     		uxtb	r7, r7
 727              	.LVL75:
 135:libs/flash/flash.c ****             WriteAddr += count;
 728              		.loc 1 135 13 is_stmt 1 view .LVU153
 729 0088 4246     		mov	r2, r8
 730 008a 2146     		mov	r1, r4
 731 008c FFF7FEFF 		bl	flash_write_page
 732              	.LVL76:
 136:libs/flash/flash.c ****             pBuffer += count;
 733              		.loc 1 136 13 view .LVU154
 136:libs/flash/flash.c ****             pBuffer += count;
 734              		.loc 1 136 23 is_stmt 0 view .LVU155
 735 0090 4444     		add	r4, r4, r8
 736              	.LVL77:
 137:libs/flash/flash.c **** 
 737              		.loc 1 137 13 is_stmt 1 view .LVU156
 137:libs/flash/flash.c **** 
 738              		.loc 1 137 21 is_stmt 0 view .LVU157
 739 0092 4544     		add	r5, r5, r8
 740              	.LVL78:
 139:libs/flash/flash.c ****                 flash_write_page(pBuffer, WriteAddr, FLASH_SPI_PAGESIZE);
 741              		.loc 1 139 13 is_stmt 1 view .LVU158
 139:libs/flash/flash.c ****                 flash_write_page(pBuffer, WriteAddr, FLASH_SPI_PAGESIZE);
 742              		.loc 1 139 19 is_stmt 0 view .LVU159
 743 0094 0AE0     		b	.L45
 744              	.LVL79:
ARM GAS  /tmp/ccAwUBCd.s 			page 17


 745              	.L46:
 140:libs/flash/flash.c ****                 WriteAddr += FLASH_SPI_PAGESIZE;
 746              		.loc 1 140 17 is_stmt 1 view .LVU160
 747 0096 4FF48072 		mov	r2, #256
 748 009a 2146     		mov	r1, r4
 749 009c 2846     		mov	r0, r5
 750 009e FFF7FEFF 		bl	flash_write_page
 751              	.LVL80:
 141:libs/flash/flash.c ****                 pBuffer += FLASH_SPI_PAGESIZE;
 752              		.loc 1 141 17 view .LVU161
 141:libs/flash/flash.c ****                 pBuffer += FLASH_SPI_PAGESIZE;
 753              		.loc 1 141 27 is_stmt 0 view .LVU162
 754 00a2 04F58074 		add	r4, r4, #256
 755              	.LVL81:
 142:libs/flash/flash.c ****             }
 756              		.loc 1 142 17 is_stmt 1 view .LVU163
 142:libs/flash/flash.c ****             }
 757              		.loc 1 142 25 is_stmt 0 view .LVU164
 758 00a6 05F58075 		add	r5, r5, #256
 759              	.LVL82:
 139:libs/flash/flash.c ****                 flash_write_page(pBuffer, WriteAddr, FLASH_SPI_PAGESIZE);
 760              		.loc 1 139 29 view .LVU165
 761 00aa 4646     		mov	r6, r8
 762              	.LVL83:
 763              	.L45:
 139:libs/flash/flash.c ****                 flash_write_page(pBuffer, WriteAddr, FLASH_SPI_PAGESIZE);
 764              		.loc 1 139 19 is_stmt 1 view .LVU166
 139:libs/flash/flash.c ****                 flash_write_page(pBuffer, WriteAddr, FLASH_SPI_PAGESIZE);
 765              		.loc 1 139 29 is_stmt 0 view .LVU167
 766 00ac 731E     		subs	r3, r6, #1
 767 00ae 5FFA83F8 		uxtb	r8, r3
 768              	.LVL84:
 139:libs/flash/flash.c ****                 flash_write_page(pBuffer, WriteAddr, FLASH_SPI_PAGESIZE);
 769              		.loc 1 139 19 view .LVU168
 770 00b2 002E     		cmp	r6, #0
 771 00b4 EFD1     		bne	.L46
 145:libs/flash/flash.c ****                 flash_write_page(pBuffer, WriteAddr, NumOfSingle);
 772              		.loc 1 145 13 is_stmt 1 view .LVU169
 145:libs/flash/flash.c ****                 flash_write_page(pBuffer, WriteAddr, NumOfSingle);
 773              		.loc 1 145 16 is_stmt 0 view .LVU170
 774 00b6 002F     		cmp	r7, #0
 775 00b8 C3D0     		beq	.L38
 146:libs/flash/flash.c ****             }
 776              		.loc 1 146 17 is_stmt 1 view .LVU171
 777 00ba 5FFA89F2 		uxtb	r2, r9
 778 00be 2146     		mov	r1, r4
 779 00c0 2846     		mov	r0, r5
 780 00c2 FFF7FEFF 		bl	flash_write_page
 781              	.LVL85:
 782              		.loc 1 150 1 is_stmt 0 view .LVU172
 783 00c6 BCE7     		b	.L38
 784              		.cfi_endproc
 785              	.LFE76:
 787              		.section	.text.flash_read_buffer,"ax",%progbits
 788              		.align	1
 789              		.global	flash_read_buffer
 790              		.syntax unified
ARM GAS  /tmp/ccAwUBCd.s 			page 18


 791              		.thumb
 792              		.thumb_func
 793              		.fpu softvfp
 795              	flash_read_buffer:
 796              	.LVL86:
 797              	.LFB77:
 151:libs/flash/flash.c **** 
 152:libs/flash/flash.c **** void flash_read_buffer(uint8_t *pBuffer, uint32_t ReadAddr, uint16_t NumByteToRead) {
 798              		.loc 1 152 85 is_stmt 1 view -0
 799              		.cfi_startproc
 800              		@ args = 0, pretend = 0, frame = 0
 801              		@ frame_needed = 0, uses_anonymous_args = 0
 802              		.loc 1 152 85 is_stmt 0 view .LVU174
 803 0000 70B5     		push	{r4, r5, r6, lr}
 804              	.LCFI18:
 805              		.cfi_def_cfa_offset 16
 806              		.cfi_offset 4, -16
 807              		.cfi_offset 5, -12
 808              		.cfi_offset 6, -8
 809              		.cfi_offset 14, -4
 810 0002 0646     		mov	r6, r0
 811 0004 0C46     		mov	r4, r1
 812 0006 1546     		mov	r5, r2
 153:libs/flash/flash.c ****     flash_cs_low();
 813              		.loc 1 153 5 is_stmt 1 view .LVU175
 814 0008 FFF7FEFF 		bl	flash_cs_low
 815              	.LVL87:
 154:libs/flash/flash.c ****     flash_send_byte(FLASH_CMD_READ);
 816              		.loc 1 154 5 view .LVU176
 817 000c 0320     		movs	r0, #3
 818 000e FFF7FEFF 		bl	flash_send_byte
 819              	.LVL88:
 155:libs/flash/flash.c ****     flash_send_byte((ReadAddr & 0xFF0000) >> 16);
 820              		.loc 1 155 5 view .LVU177
 821 0012 C4F30740 		ubfx	r0, r4, #16, #8
 822 0016 FFF7FEFF 		bl	flash_send_byte
 823              	.LVL89:
 156:libs/flash/flash.c ****     flash_send_byte((ReadAddr & 0xFF00) >> 8);
 824              		.loc 1 156 5 view .LVU178
 825 001a C4F30720 		ubfx	r0, r4, #8, #8
 826 001e FFF7FEFF 		bl	flash_send_byte
 827              	.LVL90:
 157:libs/flash/flash.c ****     flash_send_byte(ReadAddr & 0xFF);
 828              		.loc 1 157 5 view .LVU179
 829 0022 E0B2     		uxtb	r0, r4
 830 0024 FFF7FEFF 		bl	flash_send_byte
 831              	.LVL91:
 158:libs/flash/flash.c **** 
 159:libs/flash/flash.c ****     for (uint16_t i = 0; i < NumByteToRead; i++) {
 832              		.loc 1 159 5 view .LVU180
 833              	.LBB4:
 834              		.loc 1 159 10 view .LVU181
 835              		.loc 1 159 19 is_stmt 0 view .LVU182
 836 0028 0024     		movs	r4, #0
 837              	.LVL92:
 838              		.loc 1 159 5 view .LVU183
 839 002a 05E0     		b	.L49
ARM GAS  /tmp/ccAwUBCd.s 			page 19


 840              	.LVL93:
 841              	.L50:
 160:libs/flash/flash.c ****         pBuffer[i] = flash_send_byte(FLASH_DUMMY_BYTE);
 842              		.loc 1 160 9 is_stmt 1 discriminator 3 view .LVU184
 843              		.loc 1 160 22 is_stmt 0 discriminator 3 view .LVU185
 844 002c A520     		movs	r0, #165
 845 002e FFF7FEFF 		bl	flash_send_byte
 846              	.LVL94:
 847              		.loc 1 160 20 discriminator 3 view .LVU186
 848 0032 3055     		strb	r0, [r6, r4]
 159:libs/flash/flash.c ****         pBuffer[i] = flash_send_byte(FLASH_DUMMY_BYTE);
 849              		.loc 1 159 45 is_stmt 1 discriminator 3 view .LVU187
 159:libs/flash/flash.c ****         pBuffer[i] = flash_send_byte(FLASH_DUMMY_BYTE);
 850              		.loc 1 159 46 is_stmt 0 discriminator 3 view .LVU188
 851 0034 0134     		adds	r4, r4, #1
 852              	.LVL95:
 159:libs/flash/flash.c ****         pBuffer[i] = flash_send_byte(FLASH_DUMMY_BYTE);
 853              		.loc 1 159 46 discriminator 3 view .LVU189
 854 0036 A4B2     		uxth	r4, r4
 855              	.LVL96:
 856              	.L49:
 159:libs/flash/flash.c ****         pBuffer[i] = flash_send_byte(FLASH_DUMMY_BYTE);
 857              		.loc 1 159 26 is_stmt 1 discriminator 1 view .LVU190
 159:libs/flash/flash.c ****         pBuffer[i] = flash_send_byte(FLASH_DUMMY_BYTE);
 858              		.loc 1 159 5 is_stmt 0 discriminator 1 view .LVU191
 859 0038 AC42     		cmp	r4, r5
 860 003a F7D3     		bcc	.L50
 861              	.LBE4:
 161:libs/flash/flash.c ****     }
 162:libs/flash/flash.c **** 
 163:libs/flash/flash.c ****     flash_cs_high();
 862              		.loc 1 163 5 is_stmt 1 view .LVU192
 863 003c FFF7FEFF 		bl	flash_cs_high
 864              	.LVL97:
 164:libs/flash/flash.c **** }
 865              		.loc 1 164 1 is_stmt 0 view .LVU193
 866 0040 70BD     		pop	{r4, r5, r6, pc}
 867              		.loc 1 164 1 view .LVU194
 868              		.cfi_endproc
 869              	.LFE77:
 871              		.section	.text.flash_read_id,"ax",%progbits
 872              		.align	1
 873              		.global	flash_read_id
 874              		.syntax unified
 875              		.thumb
 876              		.thumb_func
 877              		.fpu softvfp
 879              	flash_read_id:
 880              	.LFB78:
 165:libs/flash/flash.c **** 
 166:libs/flash/flash.c **** uint32_t flash_read_id(void) {
 881              		.loc 1 166 30 is_stmt 1 view -0
 882              		.cfi_startproc
 883              		@ args = 0, pretend = 0, frame = 0
 884              		@ frame_needed = 0, uses_anonymous_args = 0
 885 0000 70B5     		push	{r4, r5, r6, lr}
 886              	.LCFI19:
ARM GAS  /tmp/ccAwUBCd.s 			page 20


 887              		.cfi_def_cfa_offset 16
 888              		.cfi_offset 4, -16
 889              		.cfi_offset 5, -12
 890              		.cfi_offset 6, -8
 891              		.cfi_offset 14, -4
 167:libs/flash/flash.c ****     uint32_t Temp = 0;
 892              		.loc 1 167 5 view .LVU196
 893              	.LVL98:
 168:libs/flash/flash.c ****     uint8_t Temp0, Temp1, Temp2;
 894              		.loc 1 168 5 view .LVU197
 169:libs/flash/flash.c **** 
 170:libs/flash/flash.c ****     flash_cs_low();
 895              		.loc 1 170 5 view .LVU198
 896 0002 FFF7FEFF 		bl	flash_cs_low
 897              	.LVL99:
 171:libs/flash/flash.c ****     flash_send_byte(0x9F);
 898              		.loc 1 171 5 view .LVU199
 899 0006 9F20     		movs	r0, #159
 900 0008 FFF7FEFF 		bl	flash_send_byte
 901              	.LVL100:
 172:libs/flash/flash.c ****     Temp0 = flash_send_byte(FLASH_DUMMY_BYTE);
 902              		.loc 1 172 5 view .LVU200
 903              		.loc 1 172 13 is_stmt 0 view .LVU201
 904 000c A520     		movs	r0, #165
 905 000e FFF7FEFF 		bl	flash_send_byte
 906              	.LVL101:
 907 0012 0646     		mov	r6, r0
 908              	.LVL102:
 173:libs/flash/flash.c ****     Temp1 = flash_send_byte(FLASH_DUMMY_BYTE);
 909              		.loc 1 173 5 is_stmt 1 view .LVU202
 910              		.loc 1 173 13 is_stmt 0 view .LVU203
 911 0014 A520     		movs	r0, #165
 912 0016 FFF7FEFF 		bl	flash_send_byte
 913              	.LVL103:
 914 001a 0446     		mov	r4, r0
 915              	.LVL104:
 174:libs/flash/flash.c ****     Temp2 = flash_send_byte(FLASH_DUMMY_BYTE);
 916              		.loc 1 174 5 is_stmt 1 view .LVU204
 917              		.loc 1 174 13 is_stmt 0 view .LVU205
 918 001c A520     		movs	r0, #165
 919 001e FFF7FEFF 		bl	flash_send_byte
 920              	.LVL105:
 921 0022 0546     		mov	r5, r0
 922              	.LVL106:
 175:libs/flash/flash.c ****     flash_cs_high();
 923              		.loc 1 175 5 is_stmt 1 view .LVU206
 924 0024 FFF7FEFF 		bl	flash_cs_high
 925              	.LVL107:
 176:libs/flash/flash.c **** 
 177:libs/flash/flash.c ****     Temp = (Temp0 << 16) | (Temp1 << 8) | Temp2;
 926              		.loc 1 177 5 view .LVU207
 927              		.loc 1 177 35 is_stmt 0 view .LVU208
 928 0028 2402     		lsls	r4, r4, #8
 929              	.LVL108:
 930              		.loc 1 177 26 view .LVU209
 931 002a 44EA0644 		orr	r4, r4, r6, lsl #16
 932              	.LVL109:
ARM GAS  /tmp/ccAwUBCd.s 			page 21


 178:libs/flash/flash.c ****     return Temp;
 933              		.loc 1 178 5 is_stmt 1 view .LVU210
 179:libs/flash/flash.c **** }
 934              		.loc 1 179 1 is_stmt 0 view .LVU211
 935 002e 45EA0400 		orr	r0, r5, r4
 936              	.LVL110:
 937              		.loc 1 179 1 view .LVU212
 938 0032 70BD     		pop	{r4, r5, r6, pc}
 939              		.loc 1 179 1 view .LVU213
 940              		.cfi_endproc
 941              	.LFE78:
 943              		.section	.text.flash_start_read_sequence,"ax",%progbits
 944              		.align	1
 945              		.global	flash_start_read_sequence
 946              		.syntax unified
 947              		.thumb
 948              		.thumb_func
 949              		.fpu softvfp
 951              	flash_start_read_sequence:
 952              	.LVL111:
 953              	.LFB79:
 180:libs/flash/flash.c **** 
 181:libs/flash/flash.c **** void flash_start_read_sequence(uint32_t ReadAddr) {
 954              		.loc 1 181 51 is_stmt 1 view -0
 955              		.cfi_startproc
 956              		@ args = 0, pretend = 0, frame = 0
 957              		@ frame_needed = 0, uses_anonymous_args = 0
 958              		.loc 1 181 51 is_stmt 0 view .LVU215
 959 0000 10B5     		push	{r4, lr}
 960              	.LCFI20:
 961              		.cfi_def_cfa_offset 8
 962              		.cfi_offset 4, -8
 963              		.cfi_offset 14, -4
 964 0002 0446     		mov	r4, r0
 182:libs/flash/flash.c ****     flash_cs_low();
 965              		.loc 1 182 5 is_stmt 1 view .LVU216
 966 0004 FFF7FEFF 		bl	flash_cs_low
 967              	.LVL112:
 183:libs/flash/flash.c ****     flash_send_byte(FLASH_CMD_READ);
 968              		.loc 1 183 5 view .LVU217
 969 0008 0320     		movs	r0, #3
 970 000a FFF7FEFF 		bl	flash_send_byte
 971              	.LVL113:
 184:libs/flash/flash.c ****     flash_send_byte((ReadAddr & 0xFF0000) >> 16);
 972              		.loc 1 184 5 view .LVU218
 973 000e C4F30740 		ubfx	r0, r4, #16, #8
 974 0012 FFF7FEFF 		bl	flash_send_byte
 975              	.LVL114:
 185:libs/flash/flash.c ****     flash_send_byte((ReadAddr & 0xFF00) >> 8);
 976              		.loc 1 185 5 view .LVU219
 977 0016 C4F30720 		ubfx	r0, r4, #8, #8
 978 001a FFF7FEFF 		bl	flash_send_byte
 979              	.LVL115:
 186:libs/flash/flash.c ****     flash_send_byte(ReadAddr & 0xFF);
 980              		.loc 1 186 5 view .LVU220
 981 001e E0B2     		uxtb	r0, r4
 982 0020 FFF7FEFF 		bl	flash_send_byte
ARM GAS  /tmp/ccAwUBCd.s 			page 22


 983              	.LVL116:
 187:libs/flash/flash.c **** }
 984              		.loc 1 187 1 is_stmt 0 view .LVU221
 985 0024 10BD     		pop	{r4, pc}
 986              		.loc 1 187 1 view .LVU222
 987              		.cfi_endproc
 988              	.LFE79:
 990              		.section	.text.flash_read_byte,"ax",%progbits
 991              		.align	1
 992              		.global	flash_read_byte
 993              		.syntax unified
 994              		.thumb
 995              		.thumb_func
 996              		.fpu softvfp
 998              	flash_read_byte:
 999              	.LFB80:
 188:libs/flash/flash.c **** 
 189:libs/flash/flash.c **** uint8_t flash_read_byte(void) {
 1000              		.loc 1 189 31 is_stmt 1 view -0
 1001              		.cfi_startproc
 1002              		@ args = 0, pretend = 0, frame = 0
 1003              		@ frame_needed = 0, uses_anonymous_args = 0
 1004 0000 08B5     		push	{r3, lr}
 1005              	.LCFI21:
 1006              		.cfi_def_cfa_offset 8
 1007              		.cfi_offset 3, -8
 1008              		.cfi_offset 14, -4
 190:libs/flash/flash.c ****     return flash_send_byte(FLASH_DUMMY_BYTE);
 1009              		.loc 1 190 5 view .LVU224
 1010              		.loc 1 190 12 is_stmt 0 view .LVU225
 1011 0002 A520     		movs	r0, #165
 1012 0004 FFF7FEFF 		bl	flash_send_byte
 1013              	.LVL117:
 191:libs/flash/flash.c **** }
 1014              		.loc 1 191 1 view .LVU226
 1015 0008 08BD     		pop	{r3, pc}
 1016              		.cfi_endproc
 1017              	.LFE80:
 1019              		.text
 1020              	.Letext0:
 1021              		.file 2 "/usr/lib/gcc/arm-none-eabi/10.3.1/include/stdint.h"
 1022              		.file 3 "Drivers/CMSIS/Device/ST/STM32F1xx/Include/stm32f103xb.h"
 1023              		.file 4 "Drivers/CMSIS/Device/ST/STM32F1xx/Include/stm32f1xx.h"
 1024              		.file 5 "Drivers/STM32F1xx_HAL_Driver/Inc/stm32f1xx_hal_def.h"
 1025              		.file 6 "Drivers/STM32F1xx_HAL_Driver/Inc/stm32f1xx_hal_gpio.h"
 1026              		.file 7 "Drivers/STM32F1xx_HAL_Driver/Inc/stm32f1xx_hal_dma.h"
 1027              		.file 8 "Drivers/STM32F1xx_HAL_Driver/Inc/stm32f1xx_hal_spi.h"
 1028              		.file 9 "Core/Inc/spi.h"
ARM GAS  /tmp/ccAwUBCd.s 			page 23

