ARM GAS  /tmp/ccbJTUhF.s 			page 1


   1              		.cpu cortex-m3
   2              		.eabi_attribute 20, 1
   3              		.eabi_attribute 21, 1
   4              		.eabi_attribute 23, 3
   5              		.eabi_attribute 24, 1
   6              		.eabi_attribute 25, 1
   7              		.eabi_attribute 26, 1
   8              		.eabi_attribute 30, 1
   9              		.eabi_attribute 34, 1
  10              		.eabi_attribute 18, 4
  11              		.file	"i2c_slave.c"
  12              		.text
  13              	.Ltext0:
  14              		.cfi_sections	.debug_frame
  15              		.section	.text.HAL_I2C_ListenCpltCallback,"ax",%progbits
  16              		.align	1
  17              		.global	HAL_I2C_ListenCpltCallback
  18              		.arch armv7-m
  19              		.syntax unified
  20              		.thumb
  21              		.thumb_func
  22              		.fpu softvfp
  24              	HAL_I2C_ListenCpltCallback:
  25              	.LVL0:
  26              	.LFB68:
  27              		.file 1 "Core/Src/i2c_slave.c"
   1:Core/Src/i2c_slave.c **** #include "main.h"
   2:Core/Src/i2c_slave.c **** #include "i2c_slave.h"
   3:Core/Src/i2c_slave.c **** #include "camera.h"
   4:Core/Src/i2c_slave.c **** #include "test_card_ssdv.h"
   5:Core/Src/i2c_slave.c **** #include "watchdog.h"
   6:Core/Src/i2c_slave.c **** 
   7:Core/Src/i2c_slave.c **** #define CAM_BRIGHTNESS_LEVEL_CMD  0x30
   8:Core/Src/i2c_slave.c **** #define CAM_SHARPNESS_LEVEL_CMD   0x40
   9:Core/Src/i2c_slave.c **** #define CAM_CONTRAST_LEVEL_CMD    0x50
  10:Core/Src/i2c_slave.c **** #define CAM_EV_LEVEL_CMD          0x60
  11:Core/Src/i2c_slave.c **** #define CAM_STAURATION_LEVEL_CMD  0x70
  12:Core/Src/i2c_slave.c **** #define CAM_COLOR_FX_CMD          0x80
  13:Core/Src/i2c_slave.c **** 
  14:Core/Src/i2c_slave.c **** volatile CAM_BRIGHTNESS_LEVEL lvl = 0;
  15:Core/Src/i2c_slave.c **** volatile CAM_SHARPNESS_LEVEL shrp_lvl = 0;
  16:Core/Src/i2c_slave.c **** volatile CAM_CONTRAST_LEVEL contra_lvl = 0;
  17:Core/Src/i2c_slave.c **** volatile CAM_EV_LEVEL exposure_lvl = 0;
  18:Core/Src/i2c_slave.c **** volatile CAM_STAURATION_LEVEL saturation_lvl = 0;
  19:Core/Src/i2c_slave.c **** volatile CAM_COLOR_FX effect = 0;
  20:Core/Src/i2c_slave.c **** 
  21:Core/Src/i2c_slave.c **** volatile uint8_t capture_requested = 0;
  22:Core/Src/i2c_slave.c **** volatile uint8_t prestore_image_requested = 0;
  23:Core/Src/i2c_slave.c **** volatile uint8_t send_all_packets = 0;
  24:Core/Src/i2c_slave.c **** volatile uint16_t current_packet_index = 0;
  25:Core/Src/i2c_slave.c **** 
  26:Core/Src/i2c_slave.c **** extern uint32_t ssdv_start_addr;
  27:Core/Src/i2c_slave.c **** extern uint32_t ssdv_packets_in_image;
  28:Core/Src/i2c_slave.c **** 
  29:Core/Src/i2c_slave.c **** extern I2C_HandleTypeDef hi2c2;
  30:Core/Src/i2c_slave.c **** #define RxSize 2
  31:Core/Src/i2c_slave.c **** uint8_t RxData[RxSize];
ARM GAS  /tmp/ccbJTUhF.s 			page 2


  32:Core/Src/i2c_slave.c **** 
  33:Core/Src/i2c_slave.c **** uint32_t last_i2c_activity = 0;
  34:Core/Src/i2c_slave.c **** 
  35:Core/Src/i2c_slave.c **** // -------------------- I2C callbacks --------------------
  36:Core/Src/i2c_slave.c **** 
  37:Core/Src/i2c_slave.c **** void HAL_I2C_ListenCpltCallback(I2C_HandleTypeDef *hi2c)
  38:Core/Src/i2c_slave.c **** {
  28              		.loc 1 38 1 view -0
  29              		.cfi_startproc
  30              		@ args = 0, pretend = 0, frame = 0
  31              		@ frame_needed = 0, uses_anonymous_args = 0
  32              		.loc 1 38 1 is_stmt 0 view .LVU1
  33 0000 08B5     		push	{r3, lr}
  34              	.LCFI0:
  35              		.cfi_def_cfa_offset 8
  36              		.cfi_offset 3, -8
  37              		.cfi_offset 14, -4
  39:Core/Src/i2c_slave.c ****     HAL_I2C_EnableListen_IT(hi2c);  // Keep listening
  38              		.loc 1 39 5 is_stmt 1 view .LVU2
  39 0002 FFF7FEFF 		bl	HAL_I2C_EnableListen_IT
  40              	.LVL1:
  40:Core/Src/i2c_slave.c **** }
  41              		.loc 1 40 1 is_stmt 0 view .LVU3
  42 0006 08BD     		pop	{r3, pc}
  43              		.cfi_endproc
  44              	.LFE68:
  46              		.section	.text.HAL_I2C_ErrorCallback,"ax",%progbits
  47              		.align	1
  48              		.global	HAL_I2C_ErrorCallback
  49              		.syntax unified
  50              		.thumb
  51              		.thumb_func
  52              		.fpu softvfp
  54              	HAL_I2C_ErrorCallback:
  55              	.LVL2:
  56              	.LFB69:
  41:Core/Src/i2c_slave.c **** 
  42:Core/Src/i2c_slave.c **** void HAL_I2C_ErrorCallback(I2C_HandleTypeDef *hi2c)
  43:Core/Src/i2c_slave.c **** {
  57              		.loc 1 43 1 is_stmt 1 view -0
  58              		.cfi_startproc
  59              		@ args = 0, pretend = 0, frame = 0
  60              		@ frame_needed = 0, uses_anonymous_args = 0
  61              		.loc 1 43 1 is_stmt 0 view .LVU5
  62 0000 08B5     		push	{r3, lr}
  63              	.LCFI1:
  64              		.cfi_def_cfa_offset 8
  65              		.cfi_offset 3, -8
  66              		.cfi_offset 14, -4
  44:Core/Src/i2c_slave.c ****     HAL_I2C_EnableListen_IT(hi2c);
  67              		.loc 1 44 5 is_stmt 1 view .LVU6
  68 0002 FFF7FEFF 		bl	HAL_I2C_EnableListen_IT
  69              	.LVL3:
  45:Core/Src/i2c_slave.c **** }
  70              		.loc 1 45 1 is_stmt 0 view .LVU7
  71 0006 08BD     		pop	{r3, pc}
  72              		.cfi_endproc
ARM GAS  /tmp/ccbJTUhF.s 			page 3


  73              	.LFE69:
  75              		.section	.text.HAL_I2C_AddrCallback,"ax",%progbits
  76              		.align	1
  77              		.global	HAL_I2C_AddrCallback
  78              		.syntax unified
  79              		.thumb
  80              		.thumb_func
  81              		.fpu softvfp
  83              	HAL_I2C_AddrCallback:
  84              	.LVL4:
  85              	.LFB70:
  46:Core/Src/i2c_slave.c **** 
  47:Core/Src/i2c_slave.c **** void HAL_I2C_AddrCallback(I2C_HandleTypeDef *hi2c, uint8_t TransferDirection, uint16_t AddrMatchCod
  48:Core/Src/i2c_slave.c **** {
  86              		.loc 1 48 1 is_stmt 1 view -0
  87              		.cfi_startproc
  88              		@ args = 0, pretend = 0, frame = 232
  89              		@ frame_needed = 0, uses_anonymous_args = 0
  90              		.loc 1 48 1 is_stmt 0 view .LVU9
  91 0000 30B5     		push	{r4, r5, lr}
  92              	.LCFI2:
  93              		.cfi_def_cfa_offset 12
  94              		.cfi_offset 4, -12
  95              		.cfi_offset 5, -8
  96              		.cfi_offset 14, -4
  97 0002 BBB0     		sub	sp, sp, #236
  98              	.LCFI3:
  99              		.cfi_def_cfa_offset 248
 100 0004 0546     		mov	r5, r0
 101 0006 0C46     		mov	r4, r1
  49:Core/Src/i2c_slave.c ****     last_i2c_activity = HAL_GetTick();
 102              		.loc 1 49 5 is_stmt 1 view .LVU10
 103              		.loc 1 49 25 is_stmt 0 view .LVU11
 104 0008 FFF7FEFF 		bl	HAL_GetTick
 105              	.LVL5:
 106              		.loc 1 49 23 view .LVU12
 107 000c 3C4B     		ldr	r3, .L15
 108 000e 1860     		str	r0, [r3]
  50:Core/Src/i2c_slave.c **** 
  51:Core/Src/i2c_slave.c ****     if (TransferDirection == I2C_DIRECTION_TRANSMIT)
 109              		.loc 1 51 5 is_stmt 1 view .LVU13
 110              		.loc 1 51 8 is_stmt 0 view .LVU14
 111 0010 012C     		cmp	r4, #1
 112 0012 22D0     		beq	.L13
  52:Core/Src/i2c_slave.c ****     {
  53:Core/Src/i2c_slave.c ****         HAL_I2C_Slave_Seq_Receive_IT(hi2c, RxData, RxSize, I2C_FIRST_AND_LAST_FRAME);
  54:Core/Src/i2c_slave.c ****     }
  55:Core/Src/i2c_slave.c ****     else if (TransferDirection == I2C_DIRECTION_RECEIVE)
 113              		.loc 1 55 10 is_stmt 1 view .LVU15
 114              		.loc 1 55 13 is_stmt 0 view .LVU16
 115 0014 3CBB     		cbnz	r4, .L5
 116              	.LBB2:
  56:Core/Src/i2c_slave.c ****     {
  57:Core/Src/i2c_slave.c ****         // ------------------- SSDV packet streaming -------------------
  58:Core/Src/i2c_slave.c ****         uint8_t ssdv_pkt[SSDV_PKT_SIZE] = {0};
 117              		.loc 1 58 9 is_stmt 1 view .LVU17
 118              		.loc 1 58 17 is_stmt 0 view .LVU18
ARM GAS  /tmp/ccbJTUhF.s 			page 4


 119 0016 0021     		movs	r1, #0
 120 0018 0291     		str	r1, [sp, #8]
 121 001a DC22     		movs	r2, #220
 122 001c 03A8     		add	r0, sp, #12
 123 001e FFF7FEFF 		bl	memset
 124              	.LVL6:
  59:Core/Src/i2c_slave.c **** 
  60:Core/Src/i2c_slave.c ****         if (prestore_image_requested)
 125              		.loc 1 60 9 is_stmt 1 view .LVU19
 126              		.loc 1 60 13 is_stmt 0 view .LVU20
 127 0022 384B     		ldr	r3, .L15+4
 128 0024 1B78     		ldrb	r3, [r3]	@ zero_extendqisi2
 129              		.loc 1 60 12 view .LVU21
 130 0026 002B     		cmp	r3, #0
 131 0028 33D0     		beq	.L8
  61:Core/Src/i2c_slave.c ****         {
  62:Core/Src/i2c_slave.c ****             if (current_packet_index < 8)
 132              		.loc 1 62 13 is_stmt 1 view .LVU22
 133              		.loc 1 62 38 is_stmt 0 view .LVU23
 134 002a 374B     		ldr	r3, .L15+8
 135 002c 1B88     		ldrh	r3, [r3]
 136 002e 9BB2     		uxth	r3, r3
 137              		.loc 1 62 16 view .LVU24
 138 0030 072B     		cmp	r3, #7
 139 0032 1AD8     		bhi	.L9
  63:Core/Src/i2c_slave.c ****             {
  64:Core/Src/i2c_slave.c ****                 HAL_I2C_Slave_Seq_Transmit_IT(hi2c,
 140              		.loc 1 64 17 is_stmt 1 view .LVU25
  65:Core/Src/i2c_slave.c ****                     &test_card_ssdv_buffer[current_packet_index * SSDV_PKT_SIZE],
 141              		.loc 1 65 65 is_stmt 0 view .LVU26
 142 0034 344C     		ldr	r4, .L15+8
 143 0036 2188     		ldrh	r1, [r4]
 144 0038 89B2     		uxth	r1, r1
 145 003a C1EBC101 		rsb	r1, r1, r1, lsl #3
  64:Core/Src/i2c_slave.c ****                     &test_card_ssdv_buffer[current_packet_index * SSDV_PKT_SIZE],
 146              		.loc 1 64 17 view .LVU27
 147 003e 0823     		movs	r3, #8
 148 0040 E022     		movs	r2, #224
 149 0042 3248     		ldr	r0, .L15+12
 150 0044 00EB4111 		add	r1, r0, r1, lsl #5
 151 0048 2846     		mov	r0, r5
 152 004a FFF7FEFF 		bl	HAL_I2C_Slave_Seq_Transmit_IT
 153              	.LVL7:
  66:Core/Src/i2c_slave.c ****                     SSDV_PKT_SIZE,
  67:Core/Src/i2c_slave.c ****                     I2C_FIRST_AND_LAST_FRAME);
  68:Core/Src/i2c_slave.c ****                 current_packet_index++;
 154              		.loc 1 68 17 is_stmt 1 view .LVU28
 155              		.loc 1 68 37 is_stmt 0 view .LVU29
 156 004e 2388     		ldrh	r3, [r4]
 157 0050 9BB2     		uxth	r3, r3
 158 0052 0133     		adds	r3, r3, #1
 159 0054 9BB2     		uxth	r3, r3
 160 0056 2380     		strh	r3, [r4]	@ movhi
 161 0058 05E0     		b	.L5
 162              	.L13:
 163              	.LBE2:
  53:Core/Src/i2c_slave.c ****     }
ARM GAS  /tmp/ccbJTUhF.s 			page 5


 164              		.loc 1 53 9 is_stmt 1 view .LVU30
 165 005a 0823     		movs	r3, #8
 166 005c 0222     		movs	r2, #2
 167 005e 2C49     		ldr	r1, .L15+16
 168 0060 2846     		mov	r0, r5
 169 0062 FFF7FEFF 		bl	HAL_I2C_Slave_Seq_Receive_IT
 170              	.LVL8:
 171              	.L5:
  69:Core/Src/i2c_slave.c ****             }
  70:Core/Src/i2c_slave.c ****             else
  71:Core/Src/i2c_slave.c ****             {
  72:Core/Src/i2c_slave.c ****                 uint8_t dummy[1] = {0xFF};
  73:Core/Src/i2c_slave.c ****                 HAL_I2C_Slave_Seq_Transmit_IT(hi2c, dummy, 1, I2C_FIRST_AND_LAST_FRAME);
  74:Core/Src/i2c_slave.c **** 
  75:Core/Src/i2c_slave.c ****                 prestore_image_requested = 0;
  76:Core/Src/i2c_slave.c ****                 send_all_packets = 0;
  77:Core/Src/i2c_slave.c ****                 current_packet_index = 0;
  78:Core/Src/i2c_slave.c **** 
  79:Core/Src/i2c_slave.c ****                 watchdog_set_time_period(WD_DELAY_1_S);
  80:Core/Src/i2c_slave.c ****                 // Keep I2C listening — no halt
  81:Core/Src/i2c_slave.c ****             }
  82:Core/Src/i2c_slave.c ****         }
  83:Core/Src/i2c_slave.c ****         else if (send_all_packets && current_packet_index < ssdv_packets_in_image)
  84:Core/Src/i2c_slave.c ****         {
  85:Core/Src/i2c_slave.c ****             flash_read_buffer(ssdv_pkt,
  86:Core/Src/i2c_slave.c ****                 ssdv_start_addr + current_packet_index * SSDV_PKT_SIZE,
  87:Core/Src/i2c_slave.c ****                 SSDV_PKT_SIZE);
  88:Core/Src/i2c_slave.c **** 
  89:Core/Src/i2c_slave.c ****             HAL_I2C_Slave_Seq_Transmit_IT(hi2c, ssdv_pkt, SSDV_PKT_SIZE, I2C_FIRST_AND_LAST_FRAME);
  90:Core/Src/i2c_slave.c ****             current_packet_index++;
  91:Core/Src/i2c_slave.c ****         }
  92:Core/Src/i2c_slave.c ****         else
  93:Core/Src/i2c_slave.c ****         {
  94:Core/Src/i2c_slave.c ****             uint8_t dummy[1] = {0xFF};
  95:Core/Src/i2c_slave.c ****             HAL_I2C_Slave_Seq_Transmit_IT(hi2c, dummy, 1, I2C_FIRST_AND_LAST_FRAME);
  96:Core/Src/i2c_slave.c **** 
  97:Core/Src/i2c_slave.c ****             send_all_packets = 0;
  98:Core/Src/i2c_slave.c ****             current_packet_index = 0;
  99:Core/Src/i2c_slave.c **** 
 100:Core/Src/i2c_slave.c ****             watchdog_set_time_period(WD_DELAY_1_S);
 101:Core/Src/i2c_slave.c ****             // No halt — ready for new commands
 102:Core/Src/i2c_slave.c ****         }
 103:Core/Src/i2c_slave.c ****     }
 104:Core/Src/i2c_slave.c **** }
 172              		.loc 1 104 1 is_stmt 0 view .LVU31
 173 0066 3BB0     		add	sp, sp, #236
 174              	.LCFI4:
 175              		.cfi_remember_state
 176              		.cfi_def_cfa_offset 12
 177              		@ sp needed
 178 0068 30BD     		pop	{r4, r5, pc}
 179              	.LVL9:
 180              	.L9:
 181              	.LCFI5:
 182              		.cfi_restore_state
 183              	.LBB5:
 184              	.LBB3:
ARM GAS  /tmp/ccbJTUhF.s 			page 6


  72:Core/Src/i2c_slave.c ****                 HAL_I2C_Slave_Seq_Transmit_IT(hi2c, dummy, 1, I2C_FIRST_AND_LAST_FRAME);
 185              		.loc 1 72 17 is_stmt 1 view .LVU32
  72:Core/Src/i2c_slave.c ****                 HAL_I2C_Slave_Seq_Transmit_IT(hi2c, dummy, 1, I2C_FIRST_AND_LAST_FRAME);
 186              		.loc 1 72 25 is_stmt 0 view .LVU33
 187 006a FF23     		movs	r3, #255
 188 006c 8DF80430 		strb	r3, [sp, #4]
  73:Core/Src/i2c_slave.c **** 
 189              		.loc 1 73 17 is_stmt 1 view .LVU34
 190 0070 0823     		movs	r3, #8
 191 0072 0122     		movs	r2, #1
 192 0074 01A9     		add	r1, sp, #4
 193 0076 2846     		mov	r0, r5
 194 0078 FFF7FEFF 		bl	HAL_I2C_Slave_Seq_Transmit_IT
 195              	.LVL10:
  75:Core/Src/i2c_slave.c ****                 send_all_packets = 0;
 196              		.loc 1 75 17 view .LVU35
  75:Core/Src/i2c_slave.c ****                 send_all_packets = 0;
 197              		.loc 1 75 42 is_stmt 0 view .LVU36
 198 007c 0023     		movs	r3, #0
 199 007e 214A     		ldr	r2, .L15+4
 200 0080 1370     		strb	r3, [r2]
  76:Core/Src/i2c_slave.c ****                 current_packet_index = 0;
 201              		.loc 1 76 17 is_stmt 1 view .LVU37
  76:Core/Src/i2c_slave.c ****                 current_packet_index = 0;
 202              		.loc 1 76 34 is_stmt 0 view .LVU38
 203 0082 244A     		ldr	r2, .L15+20
 204 0084 1370     		strb	r3, [r2]
  77:Core/Src/i2c_slave.c **** 
 205              		.loc 1 77 17 is_stmt 1 view .LVU39
  77:Core/Src/i2c_slave.c **** 
 206              		.loc 1 77 38 is_stmt 0 view .LVU40
 207 0086 204A     		ldr	r2, .L15+8
 208 0088 1380     		strh	r3, [r2]	@ movhi
  79:Core/Src/i2c_slave.c ****                 // Keep I2C listening — no halt
 209              		.loc 1 79 17 is_stmt 1 view .LVU41
 210 008a 0420     		movs	r0, #4
 211 008c FFF7FEFF 		bl	watchdog_set_time_period
 212              	.LVL11:
 213 0090 E9E7     		b	.L5
 214              	.L8:
  79:Core/Src/i2c_slave.c ****                 // Keep I2C listening — no halt
 215              		.loc 1 79 17 is_stmt 0 view .LVU42
 216              	.LBE3:
  83:Core/Src/i2c_slave.c ****         {
 217              		.loc 1 83 14 is_stmt 1 view .LVU43
  83:Core/Src/i2c_slave.c ****         {
 218              		.loc 1 83 18 is_stmt 0 view .LVU44
 219 0092 204B     		ldr	r3, .L15+20
 220 0094 1B78     		ldrb	r3, [r3]	@ zero_extendqisi2
  83:Core/Src/i2c_slave.c ****         {
 221              		.loc 1 83 17 view .LVU45
 222 0096 33B1     		cbz	r3, .L11
  83:Core/Src/i2c_slave.c ****         {
 223              		.loc 1 83 59 discriminator 1 view .LVU46
 224 0098 1B4B     		ldr	r3, .L15+8
 225 009a 1B88     		ldrh	r3, [r3]
 226 009c 9BB2     		uxth	r3, r3
ARM GAS  /tmp/ccbJTUhF.s 			page 7


 227 009e 1E4A     		ldr	r2, .L15+24
 228 00a0 1268     		ldr	r2, [r2]
  83:Core/Src/i2c_slave.c ****         {
 229              		.loc 1 83 35 discriminator 1 view .LVU47
 230 00a2 9342     		cmp	r3, r2
 231 00a4 11D3     		bcc	.L14
 232              	.L11:
 233              	.LBB4:
  94:Core/Src/i2c_slave.c ****             HAL_I2C_Slave_Seq_Transmit_IT(hi2c, dummy, 1, I2C_FIRST_AND_LAST_FRAME);
 234              		.loc 1 94 13 is_stmt 1 discriminator 3 view .LVU48
  94:Core/Src/i2c_slave.c ****             HAL_I2C_Slave_Seq_Transmit_IT(hi2c, dummy, 1, I2C_FIRST_AND_LAST_FRAME);
 235              		.loc 1 94 21 is_stmt 0 discriminator 3 view .LVU49
 236 00a6 FF23     		movs	r3, #255
 237 00a8 8DF80430 		strb	r3, [sp, #4]
  95:Core/Src/i2c_slave.c **** 
 238              		.loc 1 95 13 is_stmt 1 discriminator 3 view .LVU50
 239 00ac 0823     		movs	r3, #8
 240 00ae 0122     		movs	r2, #1
 241 00b0 01A9     		add	r1, sp, #4
 242 00b2 2846     		mov	r0, r5
 243 00b4 FFF7FEFF 		bl	HAL_I2C_Slave_Seq_Transmit_IT
 244              	.LVL12:
  97:Core/Src/i2c_slave.c ****             current_packet_index = 0;
 245              		.loc 1 97 13 discriminator 3 view .LVU51
  97:Core/Src/i2c_slave.c ****             current_packet_index = 0;
 246              		.loc 1 97 30 is_stmt 0 discriminator 3 view .LVU52
 247 00b8 0023     		movs	r3, #0
 248 00ba 164A     		ldr	r2, .L15+20
 249 00bc 1370     		strb	r3, [r2]
  98:Core/Src/i2c_slave.c **** 
 250              		.loc 1 98 13 is_stmt 1 discriminator 3 view .LVU53
  98:Core/Src/i2c_slave.c **** 
 251              		.loc 1 98 34 is_stmt 0 discriminator 3 view .LVU54
 252 00be 124A     		ldr	r2, .L15+8
 253 00c0 1380     		strh	r3, [r2]	@ movhi
 100:Core/Src/i2c_slave.c ****             // No halt — ready for new commands
 254              		.loc 1 100 13 is_stmt 1 discriminator 3 view .LVU55
 255 00c2 0420     		movs	r0, #4
 256 00c4 FFF7FEFF 		bl	watchdog_set_time_period
 257              	.LVL13:
 258              	.LBE4:
 259              	.LBE5:
 260              		.loc 1 104 1 is_stmt 0 discriminator 3 view .LVU56
 261 00c8 CDE7     		b	.L5
 262              	.L14:
 263              	.LBB6:
  85:Core/Src/i2c_slave.c ****                 ssdv_start_addr + current_packet_index * SSDV_PKT_SIZE,
 264              		.loc 1 85 13 is_stmt 1 view .LVU57
  86:Core/Src/i2c_slave.c ****                 SSDV_PKT_SIZE);
 265              		.loc 1 86 56 is_stmt 0 view .LVU58
 266 00ca 0F4C     		ldr	r4, .L15+8
 267 00cc 2188     		ldrh	r1, [r4]
 268 00ce 89B2     		uxth	r1, r1
 269 00d0 C1EBC101 		rsb	r1, r1, r1, lsl #3
  85:Core/Src/i2c_slave.c ****                 ssdv_start_addr + current_packet_index * SSDV_PKT_SIZE,
 270              		.loc 1 85 13 view .LVU59
 271 00d4 114B     		ldr	r3, .L15+28
ARM GAS  /tmp/ccbJTUhF.s 			page 8


 272 00d6 1B68     		ldr	r3, [r3]
 273 00d8 E022     		movs	r2, #224
 274 00da 03EB4111 		add	r1, r3, r1, lsl #5
 275 00de 02A8     		add	r0, sp, #8
 276 00e0 FFF7FEFF 		bl	flash_read_buffer
 277              	.LVL14:
  89:Core/Src/i2c_slave.c ****             current_packet_index++;
 278              		.loc 1 89 13 is_stmt 1 view .LVU60
 279 00e4 0823     		movs	r3, #8
 280 00e6 E022     		movs	r2, #224
 281 00e8 0DEB0301 		add	r1, sp, r3
 282 00ec 2846     		mov	r0, r5
 283 00ee FFF7FEFF 		bl	HAL_I2C_Slave_Seq_Transmit_IT
 284              	.LVL15:
  90:Core/Src/i2c_slave.c ****         }
 285              		.loc 1 90 13 view .LVU61
  90:Core/Src/i2c_slave.c ****         }
 286              		.loc 1 90 33 is_stmt 0 view .LVU62
 287 00f2 2388     		ldrh	r3, [r4]
 288 00f4 9BB2     		uxth	r3, r3
 289 00f6 0133     		adds	r3, r3, #1
 290 00f8 9BB2     		uxth	r3, r3
 291 00fa 2380     		strh	r3, [r4]	@ movhi
 292 00fc B3E7     		b	.L5
 293              	.L16:
 294 00fe 00BF     		.align	2
 295              	.L15:
 296 0100 00000000 		.word	.LANCHOR0
 297 0104 00000000 		.word	.LANCHOR2
 298 0108 00000000 		.word	.LANCHOR3
 299 010c 00000000 		.word	.LANCHOR4
 300 0110 00000000 		.word	.LANCHOR1
 301 0114 00000000 		.word	.LANCHOR5
 302 0118 00000000 		.word	ssdv_packets_in_image
 303 011c 00000000 		.word	ssdv_start_addr
 304              	.LBE6:
 305              		.cfi_endproc
 306              	.LFE70:
 308              		.section	.rodata.HAL_I2C_SlaveRxCpltCallback.str1.4,"aMS",%progbits,1
 309              		.align	2
 310              	.LC0:
 311 0000 43617074 		.ascii	"Capture command received\015\000"
 311      75726520 
 311      636F6D6D 
 311      616E6420 
 311      72656365 
 312 001a 0000     		.align	2
 313              	.LC1:
 314 001c 53534456 		.ascii	"SSDV stream requested\015\000"
 314      20737472 
 314      65616D20 
 314      72657175 
 314      65737465 
 315 0033 00       		.align	2
 316              	.LC2:
 317 0034 50726573 		.ascii	"Prestored command received\015\000"
 317      746F7265 
ARM GAS  /tmp/ccbJTUhF.s 			page 9


 317      6420636F 
 317      6D6D616E 
 317      64207265 
 318              		.align	2
 319              	.LC3:
 320 0050 42726967 		.ascii	"Brightness level: %i\012\000"
 320      68746E65 
 320      7373206C 
 320      6576656C 
 320      3A202569 
 321 0066 0000     		.align	2
 322              	.LC4:
 323 0068 53686172 		.ascii	"Sharpness level: %i\012\000"
 323      706E6573 
 323      73206C65 
 323      76656C3A 
 323      2025690A 
 324 007d 000000   		.align	2
 325              	.LC5:
 326 0080 436F6E74 		.ascii	"Contrast level: %i\012\000"
 326      72617374 
 326      206C6576 
 326      656C3A20 
 326      25690A00 
 327              		.align	2
 328              	.LC6:
 329 0094 4578706F 		.ascii	"Exposure level: %i\012\000"
 329      73757265 
 329      206C6576 
 329      656C3A20 
 329      25690A00 
 330              		.align	2
 331              	.LC7:
 332 00a8 53617475 		.ascii	"Saturation level: %i\012\000"
 332      72617469 
 332      6F6E206C 
 332      6576656C 
 332      3A202569 
 333 00be 0000     		.align	2
 334              	.LC8:
 335 00c0 45666665 		.ascii	"Effect: %i\012\000"
 335      63743A20 
 335      25690A00 
 336              		.align	2
 337              	.LC9:
 338 00cc 556E6B6E 		.ascii	"Unknown command: 0x%02X\012\000"
 338      6F776E20 
 338      636F6D6D 
 338      616E643A 
 338      20307825 
 339              		.section	.text.HAL_I2C_SlaveRxCpltCallback,"ax",%progbits
 340              		.align	1
 341              		.global	HAL_I2C_SlaveRxCpltCallback
 342              		.syntax unified
 343              		.thumb
 344              		.thumb_func
 345              		.fpu softvfp
ARM GAS  /tmp/ccbJTUhF.s 			page 10


 347              	HAL_I2C_SlaveRxCpltCallback:
 348              	.LVL16:
 349              	.LFB71:
 105:Core/Src/i2c_slave.c **** 
 106:Core/Src/i2c_slave.c **** void HAL_I2C_SlaveRxCpltCallback(I2C_HandleTypeDef *hi2c)
 107:Core/Src/i2c_slave.c **** {
 350              		.loc 1 107 1 is_stmt 1 view -0
 351              		.cfi_startproc
 352              		@ args = 0, pretend = 0, frame = 0
 353              		@ frame_needed = 0, uses_anonymous_args = 0
 354              		.loc 1 107 1 is_stmt 0 view .LVU64
 355 0000 08B5     		push	{r3, lr}
 356              	.LCFI6:
 357              		.cfi_def_cfa_offset 8
 358              		.cfi_offset 3, -8
 359              		.cfi_offset 14, -4
 108:Core/Src/i2c_slave.c ****     last_i2c_activity = HAL_GetTick();
 360              		.loc 1 108 5 is_stmt 1 view .LVU65
 361              		.loc 1 108 25 is_stmt 0 view .LVU66
 362 0002 FFF7FEFF 		bl	HAL_GetTick
 363              	.LVL17:
 364              		.loc 1 108 23 view .LVU67
 365 0006 3B4B     		ldr	r3, .L36
 366 0008 1860     		str	r0, [r3]
 109:Core/Src/i2c_slave.c **** 
 110:Core/Src/i2c_slave.c ****     uint8_t cmd = RxData[0];
 367              		.loc 1 110 5 is_stmt 1 view .LVU68
 368              		.loc 1 110 13 is_stmt 0 view .LVU69
 369 000a 3B4B     		ldr	r3, .L36+4
 370 000c 1978     		ldrb	r1, [r3]	@ zero_extendqisi2
 371              	.LVL18:
 111:Core/Src/i2c_slave.c **** 
 112:Core/Src/i2c_slave.c ****     switch(cmd)
 372              		.loc 1 112 5 is_stmt 1 view .LVU70
 373 000e 5029     		cmp	r1, #80
 374 0010 51D0     		beq	.L18
 375 0012 10D9     		bls	.L33
 376 0014 8029     		cmp	r1, #128
 377 0016 60D0     		beq	.L26
 378 0018 29D9     		bls	.L34
 379 001a 9029     		cmp	r1, #144
 380 001c 66D1     		bne	.L24
 113:Core/Src/i2c_slave.c ****     {
 114:Core/Src/i2c_slave.c ****         case 0x10: // Capture
 115:Core/Src/i2c_slave.c ****             printf("Capture command received\r\n");
 116:Core/Src/i2c_slave.c ****             capture_requested = 1;
 117:Core/Src/i2c_slave.c ****             send_all_packets = 0;
 118:Core/Src/i2c_slave.c ****             prestore_image_requested = 0;
 119:Core/Src/i2c_slave.c ****             current_packet_index = 0;
 120:Core/Src/i2c_slave.c ****             break;
 121:Core/Src/i2c_slave.c **** 
 122:Core/Src/i2c_slave.c ****         case 0x20: // Stream SSDV
 123:Core/Src/i2c_slave.c ****             printf("SSDV stream requested\r\n");
 124:Core/Src/i2c_slave.c ****             send_all_packets = 1;
 125:Core/Src/i2c_slave.c ****             current_packet_index = 0;
 126:Core/Src/i2c_slave.c ****             break;
 127:Core/Src/i2c_slave.c **** 
ARM GAS  /tmp/ccbJTUhF.s 			page 11


 128:Core/Src/i2c_slave.c ****         case 0x90: // Prestored
 129:Core/Src/i2c_slave.c ****             printf("Prestored command received\r\n");
 381              		.loc 1 129 13 view .LVU71
 382 001e 3748     		ldr	r0, .L36+8
 383 0020 FFF7FEFF 		bl	puts
 384              	.LVL19:
 130:Core/Src/i2c_slave.c ****             prestore_image_requested = 1;
 385              		.loc 1 130 13 view .LVU72
 386              		.loc 1 130 38 is_stmt 0 view .LVU73
 387 0024 0123     		movs	r3, #1
 388 0026 364A     		ldr	r2, .L36+12
 389 0028 1370     		strb	r3, [r2]
 131:Core/Src/i2c_slave.c ****             send_all_packets = 1;
 390              		.loc 1 131 13 is_stmt 1 view .LVU74
 391              		.loc 1 131 30 is_stmt 0 view .LVU75
 392 002a 364A     		ldr	r2, .L36+16
 393 002c 1370     		strb	r3, [r2]
 132:Core/Src/i2c_slave.c ****             current_packet_index = 0;
 394              		.loc 1 132 13 is_stmt 1 view .LVU76
 395              		.loc 1 132 34 is_stmt 0 view .LVU77
 396 002e 364B     		ldr	r3, .L36+20
 397 0030 0022     		movs	r2, #0
 398 0032 1A80     		strh	r2, [r3]	@ movhi
 133:Core/Src/i2c_slave.c ****             break;
 399              		.loc 1 133 13 is_stmt 1 view .LVU78
 400 0034 35E0     		b	.L17
 401              	.LVL20:
 402              	.L33:
 112:Core/Src/i2c_slave.c ****     {
 403              		.loc 1 112 5 is_stmt 0 view .LVU79
 404 0036 3029     		cmp	r1, #48
 405 0038 34D0     		beq	.L20
 406 003a 0AD9     		bls	.L35
 407 003c 4029     		cmp	r1, #64
 408 003e 55D1     		bne	.L24
 134:Core/Src/i2c_slave.c **** 
 135:Core/Src/i2c_slave.c ****         case CAM_BRIGHTNESS_LEVEL_CMD:
 136:Core/Src/i2c_slave.c ****             lvl = RxData[1];
 137:Core/Src/i2c_slave.c ****             printf("Brightness level: %i\n", lvl);
 138:Core/Src/i2c_slave.c ****             break;
 139:Core/Src/i2c_slave.c **** 
 140:Core/Src/i2c_slave.c ****         case CAM_SHARPNESS_LEVEL_CMD:
 141:Core/Src/i2c_slave.c ****             shrp_lvl = RxData[1];
 409              		.loc 1 141 13 is_stmt 1 view .LVU80
 410              		.loc 1 141 30 is_stmt 0 view .LVU81
 411 0040 2D4B     		ldr	r3, .L36+4
 412 0042 5A78     		ldrb	r2, [r3, #1]	@ zero_extendqisi2
 413              		.loc 1 141 22 view .LVU82
 414 0044 314B     		ldr	r3, .L36+24
 415 0046 1A70     		strb	r2, [r3]
 142:Core/Src/i2c_slave.c ****             printf("Sharpness level: %i\n", shrp_lvl);
 416              		.loc 1 142 13 is_stmt 1 view .LVU83
 417 0048 1978     		ldrb	r1, [r3]	@ zero_extendqisi2
 418              	.LVL21:
 419              		.loc 1 142 13 is_stmt 0 view .LVU84
 420 004a 3148     		ldr	r0, .L36+28
 421 004c FFF7FEFF 		bl	printf
ARM GAS  /tmp/ccbJTUhF.s 			page 12


 422              	.LVL22:
 143:Core/Src/i2c_slave.c ****             break;
 423              		.loc 1 143 13 is_stmt 1 view .LVU85
 424 0050 27E0     		b	.L17
 425              	.LVL23:
 426              	.L35:
 112:Core/Src/i2c_slave.c ****     {
 427              		.loc 1 112 5 is_stmt 0 view .LVU86
 428 0052 1029     		cmp	r1, #16
 429 0054 18D0     		beq	.L22
 430 0056 2029     		cmp	r1, #32
 431 0058 48D1     		bne	.L24
 123:Core/Src/i2c_slave.c ****             send_all_packets = 1;
 432              		.loc 1 123 13 is_stmt 1 view .LVU87
 433 005a 2E48     		ldr	r0, .L36+32
 434 005c FFF7FEFF 		bl	puts
 435              	.LVL24:
 124:Core/Src/i2c_slave.c ****             current_packet_index = 0;
 436              		.loc 1 124 13 view .LVU88
 124:Core/Src/i2c_slave.c ****             current_packet_index = 0;
 437              		.loc 1 124 30 is_stmt 0 view .LVU89
 438 0060 284B     		ldr	r3, .L36+16
 439 0062 0122     		movs	r2, #1
 440 0064 1A70     		strb	r2, [r3]
 125:Core/Src/i2c_slave.c ****             break;
 441              		.loc 1 125 13 is_stmt 1 view .LVU90
 125:Core/Src/i2c_slave.c ****             break;
 442              		.loc 1 125 34 is_stmt 0 view .LVU91
 443 0066 284B     		ldr	r3, .L36+20
 444 0068 0022     		movs	r2, #0
 445 006a 1A80     		strh	r2, [r3]	@ movhi
 126:Core/Src/i2c_slave.c **** 
 446              		.loc 1 126 13 is_stmt 1 view .LVU92
 447 006c 19E0     		b	.L17
 448              	.LVL25:
 449              	.L34:
 112:Core/Src/i2c_slave.c ****     {
 450              		.loc 1 112 5 is_stmt 0 view .LVU93
 451 006e 6029     		cmp	r1, #96
 452 0070 2AD0     		beq	.L28
 453 0072 7029     		cmp	r1, #112
 454 0074 3AD1     		bne	.L24
 144:Core/Src/i2c_slave.c **** 
 145:Core/Src/i2c_slave.c ****         case CAM_CONTRAST_LEVEL_CMD:
 146:Core/Src/i2c_slave.c ****             contra_lvl = RxData[1];
 147:Core/Src/i2c_slave.c ****             printf("Contrast level: %i\n", contra_lvl);
 148:Core/Src/i2c_slave.c ****             break;
 149:Core/Src/i2c_slave.c **** 
 150:Core/Src/i2c_slave.c ****         case CAM_EV_LEVEL_CMD:
 151:Core/Src/i2c_slave.c ****             exposure_lvl = RxData[1];
 152:Core/Src/i2c_slave.c ****             printf("Exposure level: %i\n", exposure_lvl);
 153:Core/Src/i2c_slave.c ****             break;
 154:Core/Src/i2c_slave.c **** 
 155:Core/Src/i2c_slave.c ****         case CAM_STAURATION_LEVEL_CMD:
 156:Core/Src/i2c_slave.c ****             saturation_lvl = RxData[1];
 455              		.loc 1 156 13 is_stmt 1 view .LVU94
 456              		.loc 1 156 36 is_stmt 0 view .LVU95
ARM GAS  /tmp/ccbJTUhF.s 			page 13


 457 0076 204B     		ldr	r3, .L36+4
 458 0078 5A78     		ldrb	r2, [r3, #1]	@ zero_extendqisi2
 459              		.loc 1 156 28 view .LVU96
 460 007a 274B     		ldr	r3, .L36+36
 461 007c 1A70     		strb	r2, [r3]
 157:Core/Src/i2c_slave.c ****             printf("Saturation level: %i\n", saturation_lvl);
 462              		.loc 1 157 13 is_stmt 1 view .LVU97
 463 007e 1978     		ldrb	r1, [r3]	@ zero_extendqisi2
 464              	.LVL26:
 465              		.loc 1 157 13 is_stmt 0 view .LVU98
 466 0080 2648     		ldr	r0, .L36+40
 467 0082 FFF7FEFF 		bl	printf
 468              	.LVL27:
 158:Core/Src/i2c_slave.c ****             break;
 469              		.loc 1 158 13 is_stmt 1 view .LVU99
 470 0086 0CE0     		b	.L17
 471              	.LVL28:
 472              	.L22:
 115:Core/Src/i2c_slave.c ****             capture_requested = 1;
 473              		.loc 1 115 13 view .LVU100
 474 0088 2548     		ldr	r0, .L36+44
 475 008a FFF7FEFF 		bl	puts
 476              	.LVL29:
 116:Core/Src/i2c_slave.c ****             send_all_packets = 0;
 477              		.loc 1 116 13 view .LVU101
 116:Core/Src/i2c_slave.c ****             send_all_packets = 0;
 478              		.loc 1 116 31 is_stmt 0 view .LVU102
 479 008e 254B     		ldr	r3, .L36+48
 480 0090 0122     		movs	r2, #1
 481 0092 1A70     		strb	r2, [r3]
 117:Core/Src/i2c_slave.c ****             prestore_image_requested = 0;
 482              		.loc 1 117 13 is_stmt 1 view .LVU103
 117:Core/Src/i2c_slave.c ****             prestore_image_requested = 0;
 483              		.loc 1 117 30 is_stmt 0 view .LVU104
 484 0094 0023     		movs	r3, #0
 485 0096 1B4A     		ldr	r2, .L36+16
 486 0098 1370     		strb	r3, [r2]
 118:Core/Src/i2c_slave.c ****             current_packet_index = 0;
 487              		.loc 1 118 13 is_stmt 1 view .LVU105
 118:Core/Src/i2c_slave.c ****             current_packet_index = 0;
 488              		.loc 1 118 38 is_stmt 0 view .LVU106
 489 009a 194A     		ldr	r2, .L36+12
 490 009c 1370     		strb	r3, [r2]
 119:Core/Src/i2c_slave.c ****             break;
 491              		.loc 1 119 13 is_stmt 1 view .LVU107
 119:Core/Src/i2c_slave.c ****             break;
 492              		.loc 1 119 34 is_stmt 0 view .LVU108
 493 009e 1A4A     		ldr	r2, .L36+20
 494 00a0 1380     		strh	r3, [r2]	@ movhi
 120:Core/Src/i2c_slave.c **** 
 495              		.loc 1 120 13 is_stmt 1 view .LVU109
 496              	.L17:
 159:Core/Src/i2c_slave.c **** 
 160:Core/Src/i2c_slave.c ****         case CAM_COLOR_FX_CMD:
 161:Core/Src/i2c_slave.c ****             effect = RxData[1];
 162:Core/Src/i2c_slave.c ****             printf("Effect: %i\n", effect);
 163:Core/Src/i2c_slave.c ****             break;
ARM GAS  /tmp/ccbJTUhF.s 			page 14


 164:Core/Src/i2c_slave.c **** 
 165:Core/Src/i2c_slave.c ****         default:
 166:Core/Src/i2c_slave.c ****             printf("Unknown command: 0x%02X\n", cmd);
 167:Core/Src/i2c_slave.c ****             break;
 168:Core/Src/i2c_slave.c ****     }
 169:Core/Src/i2c_slave.c **** }
 497              		.loc 1 169 1 is_stmt 0 view .LVU110
 498 00a2 08BD     		pop	{r3, pc}
 499              	.LVL30:
 500              	.L20:
 136:Core/Src/i2c_slave.c ****             printf("Brightness level: %i\n", lvl);
 501              		.loc 1 136 13 is_stmt 1 view .LVU111
 136:Core/Src/i2c_slave.c ****             printf("Brightness level: %i\n", lvl);
 502              		.loc 1 136 25 is_stmt 0 view .LVU112
 503 00a4 144B     		ldr	r3, .L36+4
 504 00a6 5A78     		ldrb	r2, [r3, #1]	@ zero_extendqisi2
 136:Core/Src/i2c_slave.c ****             printf("Brightness level: %i\n", lvl);
 505              		.loc 1 136 17 view .LVU113
 506 00a8 1F4B     		ldr	r3, .L36+52
 507 00aa 1A70     		strb	r2, [r3]
 137:Core/Src/i2c_slave.c ****             break;
 508              		.loc 1 137 13 is_stmt 1 view .LVU114
 509 00ac 1978     		ldrb	r1, [r3]	@ zero_extendqisi2
 510              	.LVL31:
 137:Core/Src/i2c_slave.c ****             break;
 511              		.loc 1 137 13 is_stmt 0 view .LVU115
 512 00ae 1F48     		ldr	r0, .L36+56
 513 00b0 FFF7FEFF 		bl	printf
 514              	.LVL32:
 138:Core/Src/i2c_slave.c **** 
 515              		.loc 1 138 13 is_stmt 1 view .LVU116
 516 00b4 F5E7     		b	.L17
 517              	.LVL33:
 518              	.L18:
 146:Core/Src/i2c_slave.c ****             printf("Contrast level: %i\n", contra_lvl);
 519              		.loc 1 146 13 view .LVU117
 146:Core/Src/i2c_slave.c ****             printf("Contrast level: %i\n", contra_lvl);
 520              		.loc 1 146 32 is_stmt 0 view .LVU118
 521 00b6 104B     		ldr	r3, .L36+4
 522 00b8 5A78     		ldrb	r2, [r3, #1]	@ zero_extendqisi2
 146:Core/Src/i2c_slave.c ****             printf("Contrast level: %i\n", contra_lvl);
 523              		.loc 1 146 24 view .LVU119
 524 00ba 1D4B     		ldr	r3, .L36+60
 525 00bc 1A70     		strb	r2, [r3]
 147:Core/Src/i2c_slave.c ****             break;
 526              		.loc 1 147 13 is_stmt 1 view .LVU120
 527 00be 1978     		ldrb	r1, [r3]	@ zero_extendqisi2
 528              	.LVL34:
 147:Core/Src/i2c_slave.c ****             break;
 529              		.loc 1 147 13 is_stmt 0 view .LVU121
 530 00c0 1C48     		ldr	r0, .L36+64
 531 00c2 FFF7FEFF 		bl	printf
 532              	.LVL35:
 148:Core/Src/i2c_slave.c **** 
 533              		.loc 1 148 13 is_stmt 1 view .LVU122
 534 00c6 ECE7     		b	.L17
 535              	.LVL36:
ARM GAS  /tmp/ccbJTUhF.s 			page 15


 536              	.L28:
 151:Core/Src/i2c_slave.c ****             printf("Exposure level: %i\n", exposure_lvl);
 537              		.loc 1 151 13 view .LVU123
 151:Core/Src/i2c_slave.c ****             printf("Exposure level: %i\n", exposure_lvl);
 538              		.loc 1 151 34 is_stmt 0 view .LVU124
 539 00c8 0B4B     		ldr	r3, .L36+4
 540 00ca 5A78     		ldrb	r2, [r3, #1]	@ zero_extendqisi2
 151:Core/Src/i2c_slave.c ****             printf("Exposure level: %i\n", exposure_lvl);
 541              		.loc 1 151 26 view .LVU125
 542 00cc 1A4B     		ldr	r3, .L36+68
 543 00ce 1A70     		strb	r2, [r3]
 152:Core/Src/i2c_slave.c ****             break;
 544              		.loc 1 152 13 is_stmt 1 view .LVU126
 545 00d0 1978     		ldrb	r1, [r3]	@ zero_extendqisi2
 546              	.LVL37:
 152:Core/Src/i2c_slave.c ****             break;
 547              		.loc 1 152 13 is_stmt 0 view .LVU127
 548 00d2 1A48     		ldr	r0, .L36+72
 549 00d4 FFF7FEFF 		bl	printf
 550              	.LVL38:
 153:Core/Src/i2c_slave.c **** 
 551              		.loc 1 153 13 is_stmt 1 view .LVU128
 552 00d8 E3E7     		b	.L17
 553              	.LVL39:
 554              	.L26:
 161:Core/Src/i2c_slave.c ****             printf("Effect: %i\n", effect);
 555              		.loc 1 161 13 view .LVU129
 161:Core/Src/i2c_slave.c ****             printf("Effect: %i\n", effect);
 556              		.loc 1 161 28 is_stmt 0 view .LVU130
 557 00da 074B     		ldr	r3, .L36+4
 558 00dc 5A78     		ldrb	r2, [r3, #1]	@ zero_extendqisi2
 161:Core/Src/i2c_slave.c ****             printf("Effect: %i\n", effect);
 559              		.loc 1 161 20 view .LVU131
 560 00de 184B     		ldr	r3, .L36+76
 561 00e0 1A70     		strb	r2, [r3]
 162:Core/Src/i2c_slave.c ****             break;
 562              		.loc 1 162 13 is_stmt 1 view .LVU132
 563 00e2 1978     		ldrb	r1, [r3]	@ zero_extendqisi2
 564              	.LVL40:
 162:Core/Src/i2c_slave.c ****             break;
 565              		.loc 1 162 13 is_stmt 0 view .LVU133
 566 00e4 1748     		ldr	r0, .L36+80
 567 00e6 FFF7FEFF 		bl	printf
 568              	.LVL41:
 163:Core/Src/i2c_slave.c **** 
 569              		.loc 1 163 13 is_stmt 1 view .LVU134
 570 00ea DAE7     		b	.L17
 571              	.LVL42:
 572              	.L24:
 166:Core/Src/i2c_slave.c ****             break;
 573              		.loc 1 166 13 view .LVU135
 574 00ec 1648     		ldr	r0, .L36+84
 575 00ee FFF7FEFF 		bl	printf
 576              	.LVL43:
 167:Core/Src/i2c_slave.c ****     }
 577              		.loc 1 167 13 view .LVU136
 578              		.loc 1 169 1 is_stmt 0 view .LVU137
ARM GAS  /tmp/ccbJTUhF.s 			page 16


 579 00f2 D6E7     		b	.L17
 580              	.L37:
 581              		.align	2
 582              	.L36:
 583 00f4 00000000 		.word	.LANCHOR0
 584 00f8 00000000 		.word	.LANCHOR1
 585 00fc 34000000 		.word	.LC2
 586 0100 00000000 		.word	.LANCHOR2
 587 0104 00000000 		.word	.LANCHOR5
 588 0108 00000000 		.word	.LANCHOR3
 589 010c 00000000 		.word	.LANCHOR8
 590 0110 68000000 		.word	.LC4
 591 0114 1C000000 		.word	.LC1
 592 0118 00000000 		.word	.LANCHOR11
 593 011c A8000000 		.word	.LC7
 594 0120 00000000 		.word	.LC0
 595 0124 00000000 		.word	.LANCHOR6
 596 0128 00000000 		.word	.LANCHOR7
 597 012c 50000000 		.word	.LC3
 598 0130 00000000 		.word	.LANCHOR9
 599 0134 80000000 		.word	.LC5
 600 0138 00000000 		.word	.LANCHOR10
 601 013c 94000000 		.word	.LC6
 602 0140 00000000 		.word	.LANCHOR12
 603 0144 C0000000 		.word	.LC8
 604 0148 CC000000 		.word	.LC9
 605              		.cfi_endproc
 606              	.LFE71:
 608              		.global	last_i2c_activity
 609              		.global	RxData
 610              		.global	current_packet_index
 611              		.global	send_all_packets
 612              		.global	prestore_image_requested
 613              		.global	capture_requested
 614              		.global	effect
 615              		.global	saturation_lvl
 616              		.global	exposure_lvl
 617              		.global	contra_lvl
 618              		.global	shrp_lvl
 619              		.global	lvl
 620              		.global	test_card_ssdv_buffer
 621              		.section	.bss.RxData,"aw",%nobits
 622              		.align	2
 623              		.set	.LANCHOR1,. + 0
 626              	RxData:
 627 0000 0000     		.space	2
 628              		.section	.bss.capture_requested,"aw",%nobits
 629              		.set	.LANCHOR6,. + 0
 632              	capture_requested:
 633 0000 00       		.space	1
 634              		.section	.bss.contra_lvl,"aw",%nobits
 635              		.set	.LANCHOR9,. + 0
 638              	contra_lvl:
 639 0000 00       		.space	1
 640              		.section	.bss.current_packet_index,"aw",%nobits
 641              		.align	1
 642              		.set	.LANCHOR3,. + 0
ARM GAS  /tmp/ccbJTUhF.s 			page 17


 645              	current_packet_index:
 646 0000 0000     		.space	2
 647              		.section	.bss.effect,"aw",%nobits
 648              		.set	.LANCHOR12,. + 0
 651              	effect:
 652 0000 00       		.space	1
 653              		.section	.bss.exposure_lvl,"aw",%nobits
 654              		.set	.LANCHOR10,. + 0
 657              	exposure_lvl:
 658 0000 00       		.space	1
 659              		.section	.bss.last_i2c_activity,"aw",%nobits
 660              		.align	2
 661              		.set	.LANCHOR0,. + 0
 664              	last_i2c_activity:
 665 0000 00000000 		.space	4
 666              		.section	.bss.lvl,"aw",%nobits
 667              		.set	.LANCHOR7,. + 0
 670              	lvl:
 671 0000 00       		.space	1
 672              		.section	.bss.prestore_image_requested,"aw",%nobits
 673              		.set	.LANCHOR2,. + 0
 676              	prestore_image_requested:
 677 0000 00       		.space	1
 678              		.section	.bss.saturation_lvl,"aw",%nobits
 679              		.set	.LANCHOR11,. + 0
 682              	saturation_lvl:
 683 0000 00       		.space	1
 684              		.section	.bss.send_all_packets,"aw",%nobits
 685              		.set	.LANCHOR5,. + 0
 688              	send_all_packets:
 689 0000 00       		.space	1
 690              		.section	.bss.shrp_lvl,"aw",%nobits
 691              		.set	.LANCHOR8,. + 0
 694              	shrp_lvl:
 695 0000 00       		.space	1
 696              		.section	.data.test_card_ssdv_buffer,"aw"
 697              		.align	2
 698              		.set	.LANCHOR4,. + 0
 701              	test_card_ssdv_buffer:
 702 0000 55660093 		.ascii	"Uf\000\2235\202\000\000\000\005\005\000\000\000\000"
 702      35820000 
 702      00050500 
 702      000000
 703 000f E5AC6CED 		.ascii	"\345\254l\355\245\265\215\312\011di1 2\354\362\327\326"
 703      A5B58DCA 
 703      09646931 
 703      2032ECF2 
 703      D7D6
 704 0021 A64B2D34 		.ascii	"\246K-4,y\221\033|\314\201\232B2\240\361\323\372\325"
 704      2C79911B 
 704      7CCC819A 
 704      4232A0F1 
 704      D3FAD5
 705 0034 0B7D3A59 		.ascii	"\013}:YJ3\256\"a\235\312\312p:g\255!\323nC\272\252\243"
 705      4A33AE22 
 705      619DCACA 
 705      703A67AD 
ARM GAS  /tmp/ccbJTUhF.s 			page 18


 705      21D36E43 
 706 004b 6C241224 		.ascii	"l$\022$^\337\215\000_]>\303ta\233\000\313\"\234\310"
 706      5EDF8D00 
 706      5F5D3EC3 
 706      74619B00 
 706      CB229CC8 
 707 005f 0671F747 		.ascii	"\006q\367G\267\326\225,,\214\221y\250\"b\256^!6q\216"
 707      B7D6952C 
 707      2C8C9179 
 707      A82262AE 
 707      5E213671 
 708 0074 8735422D 		.ascii	"\2075B-2\342F\\\252\204'\005\303\251\300\357\336\242"
 708      32E2465C 
 708      AA842705 
 708      C3A9C0EF 
 708      DEA2
 709 0086 96D596F1 		.ascii	"\226\325\226\361\340\217\031S\201\271\200\376\270\240"
 709      E08F1953 
 709      81B980FE 
 709      B8A0
 710 0094 0B573696 		.ascii	"\013W6\226\261\351\336|N\031\236_\227\346\344.:\021"
 710      B1E9DE7C 
 710      4E199E5F 
 710      97E6E42E 
 710      3A11
 711 00a6 EA0D5C97 		.ascii	"\352\015\\\227O\260\020\306\311\205\313\240\313K\313"
 711      4FB010C6 
 711      C985CBA0 
 711      CB4BCB
 712 00b5 03D7DAA9 		.ascii	"\003\327\332\251\256\226\026cp\360\367\303W\246\232"
 712      AE961663 
 712      70F0F7C3 
 712      57A69A
 713 00c4 25FB26A1 		.ascii	"%\373&\241\343W\302\016\007x\251\3545\264~\353\243\216"
 713      E357C20E 
 713      0778A9EC 
 713      35B47EEB 
 713      A38E
 714 00d6 BB08355C 		.ascii	"\273\0105\\&7&\272\304\011Uf\000\2235\202\000\000\001"
 714      263726BA 
 714      C4095566 
 714      00933582 
 714      000001
 715 00e9 0505001C 		.ascii	"\005\005\000\034\000\003%3\271\215\331\231O+\205\307"
 715      00032533 
 715      B98DD999 
 715      4F2B85C7 
 716 00f9 AF350369 		.ascii	"\2575\003i\267*\356\273P\354\344\221\"\364\365\353@"
 716      B72AEEBB 
 716      50ECE491 
 716      22F4F5EB 
 716      40
 717 010a 1FE5AEED 		.ascii	"\037\345\256\355\354\001\226\030\010\363\374\315\261"
 717      EC019618 
 717      08F3FCCD 
 717      B1
 718 0117 8562475E 		.ascii	"\205bG^\344\361Ks\247\332\013r!\235\014\261c\314!\363"
ARM GAS  /tmp/ccbJTUhF.s 			page 19


 718      E4F14B73 
 718      A7DA0B72 
 718      219D0CB1 
 718      63CC21F3 
 719 012b B877207B 		.ascii	"\270w {VsZ\314\267\006\002\240H:\202\300\177Z\224\351"
 719      56735ACC 
 719      B70602A0 
 719      483A82C0 
 719      7F5A94E9 
 720 013f B7601263 		.ascii	"\267`\022c\\\014\347\367\213\306:\367\240\013\3276V"
 720      5C0CE7F7 
 720      8BC63AF7 
 720      A00BD736 
 720      56
 721 0150 D186F2E2 		.ascii	"\321\206\362\342S\030+\266o\264\003\277\327\212n\251"
 721      53182BB6 
 721      6FB403BF 
 721      D78A6EA9 
 722 0160 676F6F1B 		.ascii	"goo\033\233x\306\320\300o\337\236?:\254\232l\236L\257"
 722      9B78C6D0 
 722      C06FDF9E 
 722      3F3AAC9A 
 722      6C9E4CAF 
 723 0174 282A5541 		.ascii	"(*UAQ\221\316N99\250\244\260\270\2157\262 ^\307z\363"
 723      5191CE4E 
 723      3939A8A4 
 723      B0B88D37 
 723      B2205EC7 
 724 018a FAD00392 		.ascii	"\372\320\003\222\371\326 \214\201\202\240E\307\030\001"
 724      F9D6208C 
 724      8182A045 
 724      C71801
 725 0199 B754CB33 		.ascii	"\267T\3133\207%\\4>\357`\340\265\240\360\014\006\362"
 725      87255C34 
 725      3EEF60E0 
 725      B5A0F00C 
 725      06F2
 726 01ab 51E0C721 		.ascii	"Q\340\307!8/u\373\247\024Z^\203\343_\035O,\371\363\226"
 726      382F75FB 
 726      A7145A5E 
 726      83E35F1D 
 726      4F2CF9F3 
 727 01c0 55660093 		.ascii	"Uf\000\2235\202\000\000\002\005\005\000/\000\006\252"
 727      35820000 
 727      02050500 
 727      2F0006AA 
 728 01d0 C8A65C44 		.ascii	"\310\246\\D\243qr\244\034\025-\374\351\332u\364v\361"
 728      A37172A4 
 728      1C152DFC 
 728      E9DA75F4 
 728      76F1
 729 01e2 14959C7D 		.ascii	"\024\225\234}\355\270\310\307\025au(\241\273pdv\205"
 729      EDB8C8C7 
 729      15617528 
 729      A1BB7064 
 729      7685
 730 01f4 F6152ADB 		.ascii	"\366\025*\333\266\343\250\346\200?\343N\243!/\373\270"
ARM GAS  /tmp/ccbJTUhF.s 			page 20


 730      B6E3A8E6 
 730      803FE34E 
 730      A3212FFB 
 730      B8
 731 0205 C2BB16C0 		.ascii	"\302\273\026\300\037w8\310\037\\\012-\345\226MI\256"
 731      1F7738C8 
 731      1F5C0A2D 
 731      E5964D49 
 731      AE
 732 0216 22540DB9 		.ascii	"\"T\015\271\244!\317\000w\315Z\203S\211e\"m\314\004"
 732      A421CF00 
 732      77CD5A83 
 732      53896522 
 732      6DCC04
 733 0229 FBD1C718 		.ascii	"\373\321\307\030\031>\325V\326\353\312\271\236C!R\350"
 733      193ED556 
 733      D6EBCAB9 
 733      9E432152 
 733      E8
 734 023a E01F527A 		.ascii	"\340\037RzP\004\322\315<Qo\211P\250g%\303\0111\273\035"
 734      5004D2CD 
 734      3C516F89 
 734      50A86725 
 734      C30931BB 
 735 024f 78EBC75A 		.ascii	"x\353\307ZW\277\235#\222m\250c\237\003\202\016\326P"
 735      57BF9D23 
 735      926DA863 
 735      9F03820E 
 735      D650
 736 0261 073C7E95 		.ascii	"\007<~\225)\324\342\026\362\252I wF\301l\222:`u\372"
 736      29D4E216 
 736      F2AA4920 
 736      7746C16C 
 736      923A6075 
 737 0276 F3449A94 		.ascii	"\363D\232\224B006\324X\245;I\261\020\307{2\327\036\032"
 737      42303036 
 737      D458A53B 
 737      49B110C7 
 737      7B32D71E 
 738 028b 4C40A767 		.ascii	"L@\247g'.\343%\263\244d\2435v\354\376m\0242\027\337"
 738      272EE325 
 738      B3A464A3 
 738      3576ECFE 
 738      6D143217 
 739 02a0 55660093 		.ascii	"Uf\000\2235\202\000\000\003\005\005\000\017\000\010"
 739      35820000 
 739      03050500 
 739      0F0008
 740 02af 11E56512 		.ascii	"\021\345e\022+\020\034\206+\216y\355\315\000\177\342"
 740      2B101C86 
 740      2B8E79ED 
 740      CD007FE2 
 741 02bf 5AF1FFB4 		.ascii	"Z\361\377\264\015\332(\015\277pS\310\253iy-\354\236"
 741      0DDA280D 
 741      BF7053C8 
 741      AB69792D 
 741      EC9E
ARM GAS  /tmp/ccbJTUhF.s 			page 21


 742 02d1 5A440B6D 		.ascii	"ZD\013m\223\031`>\360\003\323\237\353P_]\013\203nT\237"
 742      9319603E 
 742      F003D39F 
 742      EB505F5D 
 742      0B836E54 
 743 02e6 91390493 		.ascii	"\2219\004\223\203\223\337\362\253\347U\204\201\265\344"
 743      8393DFF2 
 743      ABE75584 
 743      81B5E4
 744 02f5 43B53AB1 		.ascii	"C\265:\2618\303|\337\247\177J\000\240u\011\015\271\205"
 744      38C37CDF 
 744      A77F4A00 
 744      A075090D 
 744      B985
 745 0307 E242C115 		.ascii	"\342B\301\025\003c\220\003\003\375)\363j\2174-\033D"
 745      03639003 
 745      03FD29F3 
 745      6A8F342D 
 745      1B44
 746 0319 A376EDDC 		.ascii	"\243v\355\334\347\223\216y\372T\223j9\201\304r7\231"
 746      E7938E79 
 746      FA54936A 
 746      3981C472 
 746      3799
 747 032b E76EF9B9 		.ascii	"\347n\371\271\014\271\310\307\245%\345\3747\026\256"
 747      0CB9C8C7 
 747      A525E5FC 
 747      3716AE
 748 033a B1874669 		.ascii	"\261\207Fi\025\212\223\234\374\270'\363\240\014\366"
 748      158A939C 
 748      FCB827F3 
 748      A00CF6
 749 0349 8CAE0807 		.ascii	"\214\256\010\007\007\245^\323ma\271V\017\031v\016\243"
 749      07A55ED3 
 749      6D61B956 
 749      0F19760E 
 749      A3
 750 035a 3BF68620 		.ascii	";\366\206 \324tK\345\335`u\212Yj+\362dO\213\276\256"
 750      D4744BE5 
 750      DD60758A 
 750      596A2BF2 
 750      644F8BBE 
 751 036f F86EB736 		.ascii	"\370n\2676~\231\3441\267\200\375\341\371\205\036>\260"
 751      7E99E431 
 751      B780FDE1 
 751      F9851E3E 
 751      B0
 752 0380 55660093 		.ascii	"Uf\000\2235\202\000\000\004\005\005\000\026\000\013"
 752      35820000 
 752      04050500 
 752      16000B
 753 038f E14F069D 		.ascii	"\341O\006\235\012\206\267P\303\"\241\226\325\227&2q"
 753      0A86B750 
 753      C322A196 
 753      D5972632 
 753      71
 754 03a0 9CE075A0 		.ascii	"\234\340u\240\017\346`\261\264\221T\224l\231\212\020"
ARM GAS  /tmp/ccbJTUhF.s 			page 22


 754      0FE660B1 
 754      B4915494 
 754      6C998A10 
 755 03b0 24CE3AF5 		.ascii	"$\316:\365\364\351Q\230,\306\322Q\0231+\341\345#9\364"
 755      F4E95198 
 755      2CC6D251 
 755      13312BE1 
 755      E52339F4 
 756 03c4 E2B332CA 		.ascii	"\342\2632\312z\220s\324\032\261ijn\367\346R\201\027"
 756      7A9073D4 
 756      1AB1696A 
 756      6EF7E652 
 756      8117
 757 03d6 24952401 		.ascii	"$\225$\001\375(\002\305\375\254\020[\202\210D\202R\214"
 757      FD2802C5 
 757      FDAC105B 
 757      82884482 
 757      528C
 758 03e8 43120606 		.ascii	"C\022\006\006{\377:\233Ma\3665^T\264\304\026\017\214"
 758      7BFF3A9B 
 758      4D61F635 
 758      5E54B4C4 
 758      160F8C
 759 03fb FCB9C7BD 		.ascii	"\374\271\307\275$\032r4\3069%\022)\0123\264\214\026"
 759      241A7234 
 759      C6392512 
 759      290A33B4 
 759      8C16
 760 040d 1C63DEA0 		.ascii	"\034c\336\240\032k\023$bll]\3042\021\353\375\005\000"
 760      1A6B1324 
 760      626C6C5D 
 760      C43211EB 
 760      FD0500
 761 0420 5B96D2D5 		.ascii	"[\226\322\325\356&\314~Y\021\007\302\277|d\340R\033"
 761      EE26CC7E 
 761      591107C2 
 761      BF7C64E0 
 761      521B
 762 0432 2B52CAAB 		.ascii	"+R\312\253\011\004\270Nd?\030\033A\353\215QRd%c\335"
 762      0904B84E 
 762      643F181B 
 762      41EB8D51 
 762      52642563 
 763 0447 257DA997 		.ascii	"%}\251\227\020\331\305\376\204\230\217\267\011\322\343"
 763      10D9C5FE 
 763      84988FB7 
 763      09D2E3
 764 0456 A92A7B46 		.ascii	"\251*{F\277\016\316\"\260\377Uf\000\2235\202\000\000"
 764      BF0ECE22 
 764      B0FF5566 
 764      00933582 
 764      0000
 765 0468 05050500 		.ascii	"\005\005\005\000\031\000\016\334\335\351Y\227P\233k"
 765      19000EDC 
 765      DDE95997 
 765      509B6B
 766 0477 831F99BC 		.ascii	"\203\037\231\274\250\034\200Gj\207s\037\342n\276\264"
ARM GAS  /tmp/ccbJTUhF.s 			page 23


 766      A81C8047 
 766      6A87731F 
 766      E26EBEB4 
 767 0487 01E3EFE0 		.ascii	"\001\343\357\340\267\212\336'\204r\354\300\220I\034"
 767      B78ADE27 
 767      8472ECC0 
 767      90491C
 768 0496 638E7EB5 		.ascii	"c\216~\265\237Nm\330\033\263\216\2434\332\000\277\272"
 768      9F4E6DD8 
 768      1BB38EA3 
 768      34DA00BF 
 768      BA
 769 04a7 44B50506 		.ascii	"D\265\005\006z\364\355\315\026\2573p\300\355\317\336"
 769      7AF4EDCD 
 769      16AF3370 
 769      C0EDCFDE 
 770 04b7 352C2C16 		.ascii	"5,,\026\335I8\031\353L\220\011\306\350\233,\007L\365"
 770      DD493819 
 770      EB4C9009 
 770      C6E89B2C 
 770      074CF5
 771 04ca A007CB6E 		.ascii	"\240\007\313n\262\202q\206\365\365\252\243\316\265v"
 771      B2827186 
 771      F5F5AAA3 
 771      CEB576
 772 04d9 DBD19482 		.ascii	"\333\321\224\202\010\310a\375j\026wS\202O\347Hdc\301"
 772      08C861FD 
 772      6A167753 
 772      824FE748 
 772      6463C1
 773 04ec E6802C26 		.ascii	"\346\200,&\243s\034\276b\311\203\362\344c\203\201\201"
 773      A3731CBE 
 773      62C983F2 
 773      E4638381 
 773      81
 774 04fd 4C17B38C 		.ascii	"L\027\263\214\2170\355d\330W\261^\225\0036\343\223\212"
 774      8F30ED64 
 774      D857B15E 
 774      950336E3 
 774      938A
 775 050f 4A009DDD 		.ascii	"J\000\235\335\356diX\215\307\251\351\355\253\027\276"
 775      EE646958 
 775      8DC7A9E9 
 775      EDAB17BE 
 776 051f A9064F4E 		.ascii	"\251\006ON\260;\374\355\245Yk\317\327J:\214\314\263"
 776      B03BFCED 
 776      A5596BCF 
 776      D74A3A8C 
 776      CCB3
 777 0531 F13D83C2 		.ascii	"\361=\203\302qv\255\332\367\332\207\310\376\034[Uf\000"
 777      7176ADDA 
 777      F7DA87C8 
 777      FE1C5B55 
 777      6600
 778 0543 93358200 		.ascii	"\2235\202\000\000\006\005\005\000\016\000\023L\330}"
 778      00060505 
 778      000E0013 
ARM GAS  /tmp/ccbJTUhF.s 			page 24


 778      4CD87D
 779 0552 6A4B5FE2 		.ascii	"jK_\342\372U\220\240z\320#\341\014lW\327\332\242\255"
 779      FA5590A0 
 779      7AD023E1 
 779      0C6C57D7 
 779      DAA2AD
 780 0565 02808350 		.ascii	"\002\200\203P\311\032\354b\000\004\017J\005qeVkT d\002"
 780      C91AEC62 
 780      00040F4A 
 780      05716556 
 780      6B542064 
 781 057a 73C5259A 		.ascii	"s\305%\2327\233\234\034c\322\246\212\3424\214+\036A"
 781      379B9C1C 
 781      63D2A68A 
 781      E2348C2B 
 781      1E41
 782 058c F4A78B98 		.ascii	"\364\247\213\230@\340\221\370P1\2676\341\301u\034\367"
 782      40E091F8 
 782      5031B736 
 782      E1C1751C 
 782      F7
 783 059d 1EB59E46 		.ascii	"\036\265\236F\016+K\355Qz\237\312\253O\345Hr\204\203"
 783      0E2B4BED 
 783      517A9FCA 
 783      AB4FE548 
 783      728483
 784 05b0 9E462802 		.ascii	"\236F(\002\255\024\021\203\212\267oo\034\261\356l\347"
 784      AD141183 
 784      8AB76F6F 
 784      1CB1EE6C 
 784      E7
 785 05c1 3D8D0047 		.ascii	"=\215\000Go\237\233\037\215L\3620\340g>\2652\333\307"
 785      6F9F9B1F 
 785      8D4CF230 
 785      E0673EB5 
 785      32DBC7
 786 05d4 183B41E7 		.ascii	"\030;A\347\2574\2061\301Prx\"\201\020&\342y$\217\255"
 786      AF348631 
 786      C1507278 
 786      22811026 
 786      E279248F 
 787 05e9 39CEC0DB 		.ascii	"9\316\300\333\224\034\016\2252\306\243\034\023\236\364"
 787      941C0E95 
 787      32C6A31C 
 787      139EF4
 788 05f8 AD1A3921 		.ascii	"\255\0329!l\314H\361\220\001pH\246\0156\324\266/P5\004"
 788      6CCC48F1 
 788      90017048 
 788      A60D36D4 
 788      B62F5035 
 789 060d FDAEFB3F 		.ascii	"\375\256\373?:\376\237\035\315#\272:N\350e\343\325 "
 789      3AFE9F1D 
 789      CD23BA3A 
 789      4EE865E3 
 789      D520
 790 061f 88556600 		.ascii	"\210Uf\000\2235\202\000\000\007\005\005\004\377\377"
 790      93358200 
ARM GAS  /tmp/ccbJTUhF.s 			page 25


 790      00070505 
 790      04FFFF
 791 062e FF978C75 		.ascii	"\377\227\214u\240,\177->\203\214)j\237Xe\326\373d\341"
 791      A02C7F2D 
 791      3E838C29 
 791      6A9F5865 
 791      D6FB64E1 
 792 0642 8297B09D 		.ascii	"\202\227\260\235ns<\231\232\217\010\325\006\353\024"
 792      6E733C99 
 792      9A8F08D5 
 792      06EB14
 793 0651 51B28760 		.ascii	"Q\262\207`\015\236c\354\011\312\177\270E6\333\304\301"
 793      0D9E63EC 
 793      09CA7FB8 
 793      4536DBC4 
 793      C1
 794 0662 E277107D 		.ascii	"\342w\020}\316S\234y\372oh\265f\313t1\022g\300\355\376"
 794      CE539C79 
 794      FA6F68B5 
 794      66CB7431 
 794      1267C0ED 
 795 0677 434CE92A 		.ascii	"CL\351*_\030%\226\273$\241BWp].3\374YZO\310\225\306"
 795      5F182596 
 795      BB24A142 
 795      57705D2E 
 795      33FC595A 
 796 068f ABD41172 		.ascii	"\253\324\021rG \315^#\254\311\212?x\005\366\233\204"
 796      4720CD5E 
 796      23ACC98A 
 796      3F7805F6 
 796      9B84
 797 06a1 81A237D0 		.ascii	"\201\2427\320=\216\023\\9\272/(u&\2134\361\322'\200"
 797      3D8E135C 
 797      39BA2F28 
 797      75268B34 
 797      F1D22780 
 798 06b5 ADBE030C 		.ascii	"\255\276\003\014\251\352\037\330\345V{\344a\002\027"
 798      A9EA1FD8 
 798      E5567BE4 
 798      610217
 799 06c4 301DEEF3 		.ascii	"0\035\356\363\274\031\032\017\210U\206k\224\3212\007"
 799      BC191A0F 
 799      8855866B 
 799      94D13207 
 800 06d4 E08D1EE3 		.ascii	"\340\215\036\343l\211J\377\232\000\001\233\337'4?\246"
 800      6C894AFF 
 800      9A00019B 
 800      DF27343F 
 800      A6
 801 06e5 71B40C0A 		.ascii	"q\264\014\0121\342\352\016\214@\255\275\221\244l\300"
 801      31E2EA0E 
 801      8C40ADBD 
 801      91A46CC0 
 802 06f5 54A9B7FE 		.ascii	"T\251\267\376\235\330\271'\252\272J"
 802      9DD8B927 
 802      AABA4A
 803              		.text
ARM GAS  /tmp/ccbJTUhF.s 			page 26


 804              	.Letext0:
 805              		.file 2 "/usr/lib/gcc/arm-none-eabi/10.3.1/include/stdint.h"
 806              		.file 3 "Drivers/CMSIS/Device/ST/STM32F1xx/Include/stm32f103xb.h"
 807              		.file 4 "Drivers/STM32F1xx_HAL_Driver/Inc/stm32f1xx_hal_def.h"
 808              		.file 5 "Drivers/STM32F1xx_HAL_Driver/Inc/stm32f1xx_hal_dma.h"
 809              		.file 6 "Drivers/STM32F1xx_HAL_Driver/Inc/stm32f1xx_hal_i2c.h"
 810              		.file 7 "libs/camera/camera.h"
 811              		.file 8 "Core/Inc/i2c_slave.h"
 812              		.file 9 "libs/ssdv/test_card_ssdv.h"
 813              		.file 10 "libs/watchdog/watchdog.h"
 814              		.file 11 "Drivers/STM32F1xx_HAL_Driver/Inc/stm32f1xx_hal.h"
 815              		.file 12 "/usr/include/newlib/stdio.h"
 816              		.file 13 "<built-in>"
 817              		.file 14 "libs/flash/flash.h"
ARM GAS  /tmp/ccbJTUhF.s 			page 27

